ARM GAS  /tmp/ccCWfaoM.s 			page 1


   1              		.syntax unified
   2              		.cpu cortex-m3
   3              		.fpu softvfp
   4              		.eabi_attribute 20, 1
   5              		.eabi_attribute 21, 1
   6              		.eabi_attribute 23, 3
   7              		.eabi_attribute 24, 1
   8              		.eabi_attribute 25, 1
   9              		.eabi_attribute 26, 1
  10              		.eabi_attribute 30, 6
  11              		.eabi_attribute 34, 1
  12              		.eabi_attribute 18, 4
  13              		.thumb
  14              		.file	"syscalls.c"
  15              		.text
  16              	.Ltext0:
  17              		.cfi_sections	.debug_frame
  18              		.section	.text._read,"ax",%progbits
  19              		.align	2
  20              		.global	_read
  21              		.thumb
  22              		.thumb_func
  23              		.type	_read, %function
  24              	_read:
  25              	.LFB35:
  26              		.file 1 "board/syscalls.c"
   1:board/syscalls.c **** /* ----------------------------------------------------------------------------
   2:board/syscalls.c ****  *         ATMEL Microcontroller Software Support
   3:board/syscalls.c ****  * ----------------------------------------------------------------------------
   4:board/syscalls.c ****  * Copyright (c) 2009, Atmel Corporation
   5:board/syscalls.c ****  *
   6:board/syscalls.c ****  * All rights reserved.
   7:board/syscalls.c ****  *
   8:board/syscalls.c ****  * Redistribution and use in source and binary forms, with or without
   9:board/syscalls.c ****  * modification, are permitted provided that the following conditions are met:
  10:board/syscalls.c ****  *
  11:board/syscalls.c ****  * - Redistributions of source code must retain the above copyright notice,
  12:board/syscalls.c ****  * this list of conditions and the disclaimer below.
  13:board/syscalls.c ****  *
  14:board/syscalls.c ****  * Atmel's name may not be used to endorse or promote products derived from
  15:board/syscalls.c ****  * this software without specific prior written permission.
  16:board/syscalls.c ****  *
  17:board/syscalls.c ****  * DISCLAIMER: THIS SOFTWARE IS PROVIDED BY ATMEL "AS IS" AND ANY EXPRESS OR
  18:board/syscalls.c ****  * IMPLIED WARRANTIES, INCLUDING, BUT NOT LIMITED TO, THE IMPLIED WARRANTIES OF
  19:board/syscalls.c ****  * MERCHANTABILITY, FITNESS FOR A PARTICULAR PURPOSE AND NON-INFRINGEMENT ARE
  20:board/syscalls.c ****  * DISCLAIMED. IN NO EVENT SHALL ATMEL BE LIABLE FOR ANY DIRECT, INDIRECT,
  21:board/syscalls.c ****  * INCIDENTAL, SPECIAL, EXEMPLARY, OR CONSEQUENTIAL DAMAGES (INCLUDING, BUT NOT
  22:board/syscalls.c ****  * LIMITED TO, PROCUREMENT OF SUBSTITUTE GOODS OR SERVICES; LOSS OF USE, DATA,
  23:board/syscalls.c ****  * OR PROFITS; OR BUSINESS INTERRUPTION) HOWEVER CAUSED AND ON ANY THEORY OF
  24:board/syscalls.c ****  * LIABILITY, WHETHER IN CONTRACT, STRICT LIABILITY, OR TORT (INCLUDING
  25:board/syscalls.c ****  * NEGLIGENCE OR OTHERWISE) ARISING IN ANY WAY OUT OF THE USE OF THIS SOFTWARE,
  26:board/syscalls.c ****  * EVEN IF ADVISED OF THE POSSIBILITY OF SUCH DAMAGE.
  27:board/syscalls.c ****  * ----------------------------------------------------------------------------
  28:board/syscalls.c ****  */
  29:board/syscalls.c **** 
  30:board/syscalls.c **** /**
  31:board/syscalls.c ****   * \file syscalls.c
ARM GAS  /tmp/ccCWfaoM.s 			page 2


  32:board/syscalls.c ****   *
  33:board/syscalls.c ****   * Implementation of newlib syscall.
  34:board/syscalls.c ****   *
  35:board/syscalls.c ****   */
  36:board/syscalls.c **** 
  37:board/syscalls.c **** /*----------------------------------------------------------------------------
  38:board/syscalls.c ****  *        Headers
  39:board/syscalls.c ****  *----------------------------------------------------------------------------*/
  40:board/syscalls.c **** 
  41:board/syscalls.c **** 
  42:board/syscalls.c **** #include "board.h"
  43:board/syscalls.c **** 
  44:board/syscalls.c **** #include <stdio.h>
  45:board/syscalls.c **** #include <stdarg.h>
  46:board/syscalls.c **** #include <errno.h>
  47:board/syscalls.c **** #include <sys/types.h>
  48:board/syscalls.c **** #include <sys/stat.h>
  49:board/syscalls.c **** #include <sys/unistd.h>
  50:board/syscalls.c **** 
  51:board/syscalls.c **** /*----------------------------------------------------------------------------
  52:board/syscalls.c ****  *        Exported variables
  53:board/syscalls.c ****  *----------------------------------------------------------------------------*/
  54:board/syscalls.c **** 
  55:board/syscalls.c **** #undef errno
  56:board/syscalls.c **** extern int errno ;
  57:board/syscalls.c **** extern int  _end ;
  58:board/syscalls.c **** 
  59:board/syscalls.c **** /*----------------------------------------------------------------------------
  60:board/syscalls.c ****  *        Exported functions
  61:board/syscalls.c ****  *----------------------------------------------------------------------------*/
  62:board/syscalls.c **** extern int _read(int file, char *ptr, int len)
  63:board/syscalls.c **** {
  27              		.loc 1 63 0
  28              		.cfi_startproc
  29              		@ args = 0, pretend = 0, frame = 16
  30              		@ frame_needed = 1, uses_anonymous_args = 0
  31 0000 80B5     		push	{r7, lr}
  32              	.LCFI0:
  33              		.cfi_def_cfa_offset 8
  34              		.cfi_offset 14, -4
  35              		.cfi_offset 7, -8
  36 0002 84B0     		sub	sp, sp, #16
  37              	.LCFI1:
  38              		.cfi_def_cfa_offset 24
  39 0004 00AF     		add	r7, sp, #0
  40              	.LCFI2:
  41              		.cfi_def_cfa_register 7
  42 0006 F860     		str	r0, [r7, #12]
  43 0008 B960     		str	r1, [r7, #8]
  44 000a 7A60     		str	r2, [r7, #4]
  64:board/syscalls.c **** 	switch (file)
  45              		.loc 1 64 0
  46 000c FB68     		ldr	r3, [r7, #12]
  47 000e 002B     		cmp	r3, #0
  48 0010 02D0     		beq	.L3
  49 0012 022B     		cmp	r3, #2
  50 0014 08D0     		beq	.L4
ARM GAS  /tmp/ccCWfaoM.s 			page 3


  51 0016 0DE0     		b	.L7
  52              	.L3:
  65:board/syscalls.c **** 	{
  66:board/syscalls.c **** #ifdef read_stdin
  67:board/syscalls.c **** 		case STDIN_FILENO:
  68:board/syscalls.c **** 			len = read_stdin(ptr, len);
  53              		.loc 1 68 0
  54 0018 7B68     		ldr	r3, [r7, #4]
  55 001a 9BB2     		uxth	r3, r3
  56 001c B868     		ldr	r0, [r7, #8]
  57 001e 1946     		mov	r1, r3
  58 0020 FFF7FEFF 		bl	USBC_Gets
  59 0024 7860     		str	r0, [r7, #4]
  69:board/syscalls.c **** 		break;
  60              		.loc 1 69 0
  61 0026 0FE0     		b	.L5
  62              	.L4:
  70:board/syscalls.c **** #endif
  71:board/syscalls.c **** #ifdef read_stderr
  72:board/syscalls.c **** 		case STDERR_FILENO: // For convenience, use stderr both ways
  73:board/syscalls.c **** 			len = read_stderr(ptr, len);
  63              		.loc 1 73 0
  64 0028 B868     		ldr	r0, [r7, #8]
  65 002a 7968     		ldr	r1, [r7, #4]
  66 002c FFF7FEFF 		bl	UART_Gets
  67 0030 7860     		str	r0, [r7, #4]
  74:board/syscalls.c **** 		break;
  68              		.loc 1 74 0
  69 0032 09E0     		b	.L5
  70              	.L7:
  75:board/syscalls.c **** #endif
  76:board/syscalls.c **** 		default:
  77:board/syscalls.c **** 			errno = EBADF;
  71              		.loc 1 77 0
  72 0034 40F20003 		movw	r3, #:lower16:errno
  73 0038 C0F20003 		movt	r3, #:upper16:errno
  74 003c 4FF00902 		mov	r2, #9
  75 0040 1A60     		str	r2, [r3, #0]
  78:board/syscalls.c **** 			return -1;
  76              		.loc 1 78 0
  77 0042 4FF0FF33 		mov	r3, #-1
  78 0046 00E0     		b	.L6
  79              	.L5:
  79:board/syscalls.c **** 	}
  80:board/syscalls.c **** 	return len;
  80              		.loc 1 80 0
  81 0048 7B68     		ldr	r3, [r7, #4]
  82              	.L6:
  81:board/syscalls.c **** }
  83              		.loc 1 81 0
  84 004a 1846     		mov	r0, r3
  85 004c 07F11007 		add	r7, r7, #16
  86 0050 BD46     		mov	sp, r7
  87 0052 80BD     		pop	{r7, pc}
  88              		.cfi_endproc
  89              	.LFE35:
  90              		.size	_read, .-_read
ARM GAS  /tmp/ccCWfaoM.s 			page 4


  91              		.section	.text._write,"ax",%progbits
  92              		.align	2
  93              		.global	_write
  94              		.thumb
  95              		.thumb_func
  96              		.type	_write, %function
  97              	_write:
  98              	.LFB36:
  82:board/syscalls.c **** 
  83:board/syscalls.c **** extern int _write( int file, char *ptr, int len )
  84:board/syscalls.c **** {
  99              		.loc 1 84 0
 100              		.cfi_startproc
 101              		@ args = 0, pretend = 0, frame = 16
 102              		@ frame_needed = 1, uses_anonymous_args = 0
 103 0000 80B5     		push	{r7, lr}
 104              	.LCFI3:
 105              		.cfi_def_cfa_offset 8
 106              		.cfi_offset 14, -4
 107              		.cfi_offset 7, -8
 108 0002 84B0     		sub	sp, sp, #16
 109              	.LCFI4:
 110              		.cfi_def_cfa_offset 24
 111 0004 00AF     		add	r7, sp, #0
 112              	.LCFI5:
 113              		.cfi_def_cfa_register 7
 114 0006 F860     		str	r0, [r7, #12]
 115 0008 B960     		str	r1, [r7, #8]
 116 000a 7A60     		str	r2, [r7, #4]
  85:board/syscalls.c **** 	switch (file)
 117              		.loc 1 85 0
 118 000c FB68     		ldr	r3, [r7, #12]
 119 000e 012B     		cmp	r3, #1
 120 0010 02D0     		beq	.L10
 121 0012 022B     		cmp	r3, #2
 122 0014 08D0     		beq	.L11
 123 0016 0DE0     		b	.L14
 124              	.L10:
  86:board/syscalls.c **** 	{
  87:board/syscalls.c **** #ifdef write_stdout
  88:board/syscalls.c **** 		case STDOUT_FILENO:
  89:board/syscalls.c **** 			len = write_stdout(ptr, len);
 125              		.loc 1 89 0
 126 0018 7B68     		ldr	r3, [r7, #4]
 127 001a 9BB2     		uxth	r3, r3
 128 001c B868     		ldr	r0, [r7, #8]
 129 001e 1946     		mov	r1, r3
 130 0020 FFF7FEFF 		bl	USBC_Puts
 131 0024 7860     		str	r0, [r7, #4]
  90:board/syscalls.c **** 		break;
 132              		.loc 1 90 0
 133 0026 0FE0     		b	.L12
 134              	.L11:
  91:board/syscalls.c **** #endif
  92:board/syscalls.c **** #ifdef write_stderr
  93:board/syscalls.c **** 		case STDERR_FILENO:
  94:board/syscalls.c **** 			len = write_stderr(ptr, len);
ARM GAS  /tmp/ccCWfaoM.s 			page 5


 135              		.loc 1 94 0
 136 0028 B868     		ldr	r0, [r7, #8]
 137 002a 7968     		ldr	r1, [r7, #4]
 138 002c FFF7FEFF 		bl	UART_Puts
 139 0030 7860     		str	r0, [r7, #4]
  95:board/syscalls.c **** 		break;
 140              		.loc 1 95 0
 141 0032 09E0     		b	.L12
 142              	.L14:
  96:board/syscalls.c **** #endif
  97:board/syscalls.c **** 		default:
  98:board/syscalls.c **** 			errno = EBADF;
 143              		.loc 1 98 0
 144 0034 40F20003 		movw	r3, #:lower16:errno
 145 0038 C0F20003 		movt	r3, #:upper16:errno
 146 003c 4FF00902 		mov	r2, #9
 147 0040 1A60     		str	r2, [r3, #0]
  99:board/syscalls.c **** 			return -1;
 148              		.loc 1 99 0
 149 0042 4FF0FF33 		mov	r3, #-1
 150 0046 00E0     		b	.L13
 151              	.L12:
 100:board/syscalls.c **** 	}
 101:board/syscalls.c **** 	return len;
 152              		.loc 1 101 0
 153 0048 7B68     		ldr	r3, [r7, #4]
 154              	.L13:
 102:board/syscalls.c **** }
 155              		.loc 1 102 0
 156 004a 1846     		mov	r0, r3
 157 004c 07F11007 		add	r7, r7, #16
 158 0050 BD46     		mov	sp, r7
 159 0052 80BD     		pop	{r7, pc}
 160              		.cfi_endproc
 161              	.LFE36:
 162              		.size	_write, .-_write
 163              		.section	.text._sbrk,"ax",%progbits
 164              		.align	2
 165              		.global	_sbrk
 166              		.thumb
 167              		.thumb_func
 168              		.type	_sbrk, %function
 169              	_sbrk:
 170              	.LFB37:
 103:board/syscalls.c **** 
 104:board/syscalls.c **** /*
 105:board/syscalls.c ****  sbrk
 106:board/syscalls.c ****  Increase program data space.
 107:board/syscalls.c ****  Malloc and related functions depend on this
 108:board/syscalls.c ****  */
 109:board/syscalls.c **** extern caddr_t _sbrk ( int incr )
 110:board/syscalls.c **** {
 171              		.loc 1 110 0
 172              		.cfi_startproc
 173              		@ args = 0, pretend = 0, frame = 16
 174              		@ frame_needed = 1, uses_anonymous_args = 0
 175              		@ link register save eliminated.
ARM GAS  /tmp/ccCWfaoM.s 			page 6


 176 0000 80B4     		push	{r7}
 177              	.LCFI6:
 178              		.cfi_def_cfa_offset 4
 179              		.cfi_offset 7, -4
 180 0002 85B0     		sub	sp, sp, #20
 181              	.LCFI7:
 182              		.cfi_def_cfa_offset 24
 183 0004 00AF     		add	r7, sp, #0
 184              	.LCFI8:
 185              		.cfi_def_cfa_register 7
 186 0006 7860     		str	r0, [r7, #4]
 111:board/syscalls.c ****     static unsigned char *heap = NULL ;
 112:board/syscalls.c ****     unsigned char *prev_heap ;
 113:board/syscalls.c **** 
 114:board/syscalls.c ****     if ( heap == NULL )
 187              		.loc 1 114 0
 188 0008 40F20003 		movw	r3, #:lower16:heap.7559
 189 000c C0F20003 		movt	r3, #:upper16:heap.7559
 190 0010 1B68     		ldr	r3, [r3, #0]
 191 0012 002B     		cmp	r3, #0
 192 0014 08D1     		bne	.L16
 115:board/syscalls.c ****     {
 116:board/syscalls.c ****         heap = (unsigned char *)&_end ;
 193              		.loc 1 116 0
 194 0016 40F20003 		movw	r3, #:lower16:heap.7559
 195 001a C0F20003 		movt	r3, #:upper16:heap.7559
 196 001e 40F20002 		movw	r2, #:lower16:_end
 197 0022 C0F20002 		movt	r2, #:upper16:_end
 198 0026 1A60     		str	r2, [r3, #0]
 199              	.L16:
 117:board/syscalls.c ****     }
 118:board/syscalls.c ****     prev_heap = heap;
 200              		.loc 1 118 0
 201 0028 40F20003 		movw	r3, #:lower16:heap.7559
 202 002c C0F20003 		movt	r3, #:upper16:heap.7559
 203 0030 1B68     		ldr	r3, [r3, #0]
 204 0032 FB60     		str	r3, [r7, #12]
 119:board/syscalls.c **** 
 120:board/syscalls.c ****     heap += incr ;
 205              		.loc 1 120 0
 206 0034 40F20003 		movw	r3, #:lower16:heap.7559
 207 0038 C0F20003 		movt	r3, #:upper16:heap.7559
 208 003c 1A68     		ldr	r2, [r3, #0]
 209 003e 7B68     		ldr	r3, [r7, #4]
 210 0040 D218     		adds	r2, r2, r3
 211 0042 40F20003 		movw	r3, #:lower16:heap.7559
 212 0046 C0F20003 		movt	r3, #:upper16:heap.7559
 213 004a 1A60     		str	r2, [r3, #0]
 121:board/syscalls.c **** 
 122:board/syscalls.c ****     return (caddr_t) prev_heap ;
 214              		.loc 1 122 0
 215 004c FB68     		ldr	r3, [r7, #12]
 123:board/syscalls.c **** }
 216              		.loc 1 123 0
 217 004e 1846     		mov	r0, r3
 218 0050 07F11407 		add	r7, r7, #20
 219 0054 BD46     		mov	sp, r7
ARM GAS  /tmp/ccCWfaoM.s 			page 7


 220 0056 80BC     		pop	{r7}
 221 0058 7047     		bx	lr
 222              		.cfi_endproc
 223              	.LFE37:
 224              		.size	_sbrk, .-_sbrk
 225 005a 00BF     		.section	.text._isatty,"ax",%progbits
 226              		.align	2
 227              		.global	_isatty
 228              		.thumb
 229              		.thumb_func
 230              		.type	_isatty, %function
 231              	_isatty:
 232              	.LFB38:
 124:board/syscalls.c **** 
 125:board/syscalls.c **** 
 126:board/syscalls.c **** /*
 127:board/syscalls.c ****  isatty
 128:board/syscalls.c ****  Query whether output stream is a terminal. 
 129:board/syscalls.c ****  For consistency with the other minimal implementations:
 130:board/syscalls.c ****  */
 131:board/syscalls.c **** extern int _isatty( int file )
 132:board/syscalls.c **** {
 233              		.loc 1 132 0
 234              		.cfi_startproc
 235              		@ args = 0, pretend = 0, frame = 8
 236              		@ frame_needed = 1, uses_anonymous_args = 0
 237              		@ link register save eliminated.
 238 0000 80B4     		push	{r7}
 239              	.LCFI9:
 240              		.cfi_def_cfa_offset 4
 241              		.cfi_offset 7, -4
 242 0002 83B0     		sub	sp, sp, #12
 243              	.LCFI10:
 244              		.cfi_def_cfa_offset 16
 245 0004 00AF     		add	r7, sp, #0
 246              	.LCFI11:
 247              		.cfi_def_cfa_register 7
 248 0006 7860     		str	r0, [r7, #4]
 133:board/syscalls.c **** 	switch (file) {
 134:board/syscalls.c **** #if defined(read_stdin)
 135:board/syscalls.c **** 		case STDIN_FILENO:
 136:board/syscalls.c **** #elif defined(read_stderr) | defined(write_stderr)
 137:board/syscalls.c **** 		case STDERR_FILENO:
 138:board/syscalls.c **** #elif defined(write_stdout)
 139:board/syscalls.c **** 		case STDOUT_FILENO:
 140:board/syscalls.c **** 			return 1;
 141:board/syscalls.c **** 		break;
 142:board/syscalls.c **** #endif
 143:board/syscalls.c **** 		default:
 144:board/syscalls.c **** 			errno = EBADF;
 249              		.loc 1 144 0
 250 0008 40F20003 		movw	r3, #:lower16:errno
 251 000c C0F20003 		movt	r3, #:upper16:errno
 252 0010 4FF00902 		mov	r2, #9
 253 0014 1A60     		str	r2, [r3, #0]
 145:board/syscalls.c **** 			return 0;
 254              		.loc 1 145 0
ARM GAS  /tmp/ccCWfaoM.s 			page 8


 255 0016 4FF00003 		mov	r3, #0
 146:board/syscalls.c **** 	}
 147:board/syscalls.c **** }
 256              		.loc 1 147 0
 257 001a 1846     		mov	r0, r3
 258 001c 07F10C07 		add	r7, r7, #12
 259 0020 BD46     		mov	sp, r7
 260 0022 80BC     		pop	{r7}
 261 0024 7047     		bx	lr
 262              		.cfi_endproc
 263              	.LFE38:
 264              		.size	_isatty, .-_isatty
 265 0026 00BF     		.section	.rodata
 266              		.align	2
 267              	.LC0:
 268 0000 45786974 		.ascii	"Exiting with status %d.\012\000"
 268      696E6720 
 268      77697468 
 268      20737461 
 268      74757320 
 269 0019 000000   		.section	.text._exit,"ax",%progbits
 270              		.align	2
 271              		.global	_exit
 272              		.thumb
 273              		.thumb_func
 274              		.type	_exit, %function
 275              	_exit:
 276              	.LFB39:
 148:board/syscalls.c **** 
 149:board/syscalls.c **** /*
 150:board/syscalls.c ****  exit
 151:board/syscalls.c ****  Leave the program.
 152:board/syscalls.c ****  */
 153:board/syscalls.c **** extern void _exit( int status )
 154:board/syscalls.c **** {
 277              		.loc 1 154 0
 278              		.cfi_startproc
 279              		@ args = 0, pretend = 0, frame = 8
 280              		@ frame_needed = 1, uses_anonymous_args = 0
 281 0000 80B5     		push	{r7, lr}
 282              	.LCFI12:
 283              		.cfi_def_cfa_offset 8
 284              		.cfi_offset 14, -4
 285              		.cfi_offset 7, -8
 286 0002 82B0     		sub	sp, sp, #8
 287              	.LCFI13:
 288              		.cfi_def_cfa_offset 16
 289 0004 00AF     		add	r7, sp, #0
 290              	.LCFI14:
 291              		.cfi_def_cfa_register 7
 292 0006 7860     		str	r0, [r7, #4]
 155:board/syscalls.c ****     printf( "Exiting with status %d.\n", status ) ;
 293              		.loc 1 155 0
 294 0008 40F20000 		movw	r0, #:lower16:.LC0
 295 000c C0F20000 		movt	r0, #:upper16:.LC0
 296 0010 7968     		ldr	r1, [r7, #4]
 297 0012 FFF7FEFF 		bl	iprintf
ARM GAS  /tmp/ccCWfaoM.s 			page 9


 298              	.L19:
 156:board/syscalls.c **** 
 157:board/syscalls.c ****     for ( ; ; ) ;
 299              		.loc 1 157 0 discriminator 1
 300 0016 FEE7     		b	.L19
 301              		.cfi_endproc
 302              	.LFE39:
 303              		.size	_exit, .-_exit
 304              		.section	.text._lseek,"ax",%progbits
 305              		.align	2
 306              		.global	_lseek
 307              		.thumb
 308              		.thumb_func
 309              		.type	_lseek, %function
 310              	_lseek:
 311              	.LFB40:
 158:board/syscalls.c **** }
 159:board/syscalls.c **** 
 160:board/syscalls.c **** /*
 161:board/syscalls.c ****  lseek
 162:board/syscalls.c ****  Set position in a file. Minimal implementation:
 163:board/syscalls.c ****  */
 164:board/syscalls.c **** extern int _lseek( int file, int ptr, int dir )
 165:board/syscalls.c **** {
 312              		.loc 1 165 0
 313              		.cfi_startproc
 314              		@ args = 0, pretend = 0, frame = 16
 315              		@ frame_needed = 1, uses_anonymous_args = 0
 316              		@ link register save eliminated.
 317 0000 80B4     		push	{r7}
 318              	.LCFI15:
 319              		.cfi_def_cfa_offset 4
 320              		.cfi_offset 7, -4
 321 0002 85B0     		sub	sp, sp, #20
 322              	.LCFI16:
 323              		.cfi_def_cfa_offset 24
 324 0004 00AF     		add	r7, sp, #0
 325              	.LCFI17:
 326              		.cfi_def_cfa_register 7
 327 0006 F860     		str	r0, [r7, #12]
 328 0008 B960     		str	r1, [r7, #8]
 329 000a 7A60     		str	r2, [r7, #4]
 166:board/syscalls.c ****     return 0 ;
 330              		.loc 1 166 0
 331 000c 4FF00003 		mov	r3, #0
 167:board/syscalls.c **** }
 332              		.loc 1 167 0
 333 0010 1846     		mov	r0, r3
 334 0012 07F11407 		add	r7, r7, #20
 335 0016 BD46     		mov	sp, r7
 336 0018 80BC     		pop	{r7}
 337 001a 7047     		bx	lr
 338              		.cfi_endproc
 339              	.LFE40:
 340              		.size	_lseek, .-_lseek
 341              		.section	.text._kill,"ax",%progbits
 342              		.align	2
ARM GAS  /tmp/ccCWfaoM.s 			page 10


 343              		.global	_kill
 344              		.thumb
 345              		.thumb_func
 346              		.type	_kill, %function
 347              	_kill:
 348              	.LFB41:
 168:board/syscalls.c **** 
 169:board/syscalls.c **** /*
 170:board/syscalls.c ****  kill
 171:board/syscalls.c ****  Send a signal. Minimal implementation:
 172:board/syscalls.c ****  */
 173:board/syscalls.c **** extern int _kill( int pid, int sig )
 174:board/syscalls.c **** {
 349              		.loc 1 174 0
 350              		.cfi_startproc
 351              		@ args = 0, pretend = 0, frame = 8
 352              		@ frame_needed = 1, uses_anonymous_args = 0
 353              		@ link register save eliminated.
 354 0000 80B4     		push	{r7}
 355              	.LCFI18:
 356              		.cfi_def_cfa_offset 4
 357              		.cfi_offset 7, -4
 358 0002 83B0     		sub	sp, sp, #12
 359              	.LCFI19:
 360              		.cfi_def_cfa_offset 16
 361 0004 00AF     		add	r7, sp, #0
 362              	.LCFI20:
 363              		.cfi_def_cfa_register 7
 364 0006 7860     		str	r0, [r7, #4]
 365 0008 3960     		str	r1, [r7, #0]
 175:board/syscalls.c **** 	errno = EINVAL;
 366              		.loc 1 175 0
 367 000a 40F20003 		movw	r3, #:lower16:errno
 368 000e C0F20003 		movt	r3, #:upper16:errno
 369 0012 4FF01602 		mov	r2, #22
 370 0016 1A60     		str	r2, [r3, #0]
 176:board/syscalls.c ****     return -1; 
 371              		.loc 1 176 0
 372 0018 4FF0FF33 		mov	r3, #-1
 177:board/syscalls.c **** }
 373              		.loc 1 177 0
 374 001c 1846     		mov	r0, r3
 375 001e 07F10C07 		add	r7, r7, #12
 376 0022 BD46     		mov	sp, r7
 377 0024 80BC     		pop	{r7}
 378 0026 7047     		bx	lr
 379              		.cfi_endproc
 380              	.LFE41:
 381              		.size	_kill, .-_kill
 382              		.section	.text._getpid,"ax",%progbits
 383              		.align	2
 384              		.global	_getpid
 385              		.thumb
 386              		.thumb_func
 387              		.type	_getpid, %function
 388              	_getpid:
 389              	.LFB42:
ARM GAS  /tmp/ccCWfaoM.s 			page 11


 178:board/syscalls.c **** 
 179:board/syscalls.c **** /*
 180:board/syscalls.c ****  getpid
 181:board/syscalls.c ****  Process-ID; this is sometimes used to generate strings unlikely to conflict with other processes. 
 182:board/syscalls.c ****  */
 183:board/syscalls.c **** extern int _getpid ( void )
 184:board/syscalls.c **** {
 390              		.loc 1 184 0
 391              		.cfi_startproc
 392              		@ args = 0, pretend = 0, frame = 0
 393              		@ frame_needed = 1, uses_anonymous_args = 0
 394              		@ link register save eliminated.
 395 0000 80B4     		push	{r7}
 396              	.LCFI21:
 397              		.cfi_def_cfa_offset 4
 398              		.cfi_offset 7, -4
 399 0002 00AF     		add	r7, sp, #0
 400              	.LCFI22:
 401              		.cfi_def_cfa_register 7
 185:board/syscalls.c ****     return -1 ;
 402              		.loc 1 185 0
 403 0004 4FF0FF33 		mov	r3, #-1
 186:board/syscalls.c **** }
 404              		.loc 1 186 0
 405 0008 1846     		mov	r0, r3
 406 000a BD46     		mov	sp, r7
 407 000c 80BC     		pop	{r7}
 408 000e 7047     		bx	lr
 409              		.cfi_endproc
 410              	.LFE42:
 411              		.size	_getpid, .-_getpid
 412              		.section	.text._link,"ax",%progbits
 413              		.align	2
 414              		.global	_link
 415              		.thumb
 416              		.thumb_func
 417              		.type	_link, %function
 418              	_link:
 419              	.LFB43:
 187:board/syscalls.c **** 
 188:board/syscalls.c **** extern int _link( char *old, char *new )
 189:board/syscalls.c **** {
 420              		.loc 1 189 0
 421              		.cfi_startproc
 422              		@ args = 0, pretend = 0, frame = 8
 423              		@ frame_needed = 1, uses_anonymous_args = 0
 424              		@ link register save eliminated.
 425 0000 80B4     		push	{r7}
 426              	.LCFI23:
 427              		.cfi_def_cfa_offset 4
 428              		.cfi_offset 7, -4
 429 0002 83B0     		sub	sp, sp, #12
 430              	.LCFI24:
 431              		.cfi_def_cfa_offset 16
 432 0004 00AF     		add	r7, sp, #0
 433              	.LCFI25:
 434              		.cfi_def_cfa_register 7
ARM GAS  /tmp/ccCWfaoM.s 			page 12


 435 0006 7860     		str	r0, [r7, #4]
 436 0008 3960     		str	r1, [r7, #0]
 190:board/syscalls.c ****     return -1 ;
 437              		.loc 1 190 0
 438 000a 4FF0FF33 		mov	r3, #-1
 191:board/syscalls.c **** }
 439              		.loc 1 191 0
 440 000e 1846     		mov	r0, r3
 441 0010 07F10C07 		add	r7, r7, #12
 442 0014 BD46     		mov	sp, r7
 443 0016 80BC     		pop	{r7}
 444 0018 7047     		bx	lr
 445              		.cfi_endproc
 446              	.LFE43:
 447              		.size	_link, .-_link
 448 001a 00BF     		.section	.text._close,"ax",%progbits
 449              		.align	2
 450              		.global	_close
 451              		.thumb
 452              		.thumb_func
 453              		.type	_close, %function
 454              	_close:
 455              	.LFB44:
 192:board/syscalls.c **** 
 193:board/syscalls.c **** extern int _close( int file )
 194:board/syscalls.c **** {
 456              		.loc 1 194 0
 457              		.cfi_startproc
 458              		@ args = 0, pretend = 0, frame = 8
 459              		@ frame_needed = 1, uses_anonymous_args = 0
 460              		@ link register save eliminated.
 461 0000 80B4     		push	{r7}
 462              	.LCFI26:
 463              		.cfi_def_cfa_offset 4
 464              		.cfi_offset 7, -4
 465 0002 83B0     		sub	sp, sp, #12
 466              	.LCFI27:
 467              		.cfi_def_cfa_offset 16
 468 0004 00AF     		add	r7, sp, #0
 469              	.LCFI28:
 470              		.cfi_def_cfa_register 7
 471 0006 7860     		str	r0, [r7, #4]
 195:board/syscalls.c ****     return -1 ;
 472              		.loc 1 195 0
 473 0008 4FF0FF33 		mov	r3, #-1
 196:board/syscalls.c **** }
 474              		.loc 1 196 0
 475 000c 1846     		mov	r0, r3
 476 000e 07F10C07 		add	r7, r7, #12
 477 0012 BD46     		mov	sp, r7
 478 0014 80BC     		pop	{r7}
 479 0016 7047     		bx	lr
 480              		.cfi_endproc
 481              	.LFE44:
 482              		.size	_close, .-_close
 483              		.section	.text._fstat,"ax",%progbits
 484              		.align	2
ARM GAS  /tmp/ccCWfaoM.s 			page 13


 485              		.global	_fstat
 486              		.thumb
 487              		.thumb_func
 488              		.type	_fstat, %function
 489              	_fstat:
 490              	.LFB45:
 197:board/syscalls.c **** 
 198:board/syscalls.c **** extern int _fstat( int file, struct stat *st )
 199:board/syscalls.c **** {
 491              		.loc 1 199 0
 492              		.cfi_startproc
 493              		@ args = 0, pretend = 0, frame = 8
 494              		@ frame_needed = 1, uses_anonymous_args = 0
 495              		@ link register save eliminated.
 496 0000 80B4     		push	{r7}
 497              	.LCFI29:
 498              		.cfi_def_cfa_offset 4
 499              		.cfi_offset 7, -4
 500 0002 83B0     		sub	sp, sp, #12
 501              	.LCFI30:
 502              		.cfi_def_cfa_offset 16
 503 0004 00AF     		add	r7, sp, #0
 504              	.LCFI31:
 505              		.cfi_def_cfa_register 7
 506 0006 7860     		str	r0, [r7, #4]
 507 0008 3960     		str	r1, [r7, #0]
 200:board/syscalls.c ****     st->st_mode = S_IFCHR ;
 508              		.loc 1 200 0
 509 000a 3B68     		ldr	r3, [r7, #0]
 510 000c 4FF40052 		mov	r2, #8192
 511 0010 5A60     		str	r2, [r3, #4]
 201:board/syscalls.c **** 
 202:board/syscalls.c ****     return 0 ;
 512              		.loc 1 202 0
 513 0012 4FF00003 		mov	r3, #0
 203:board/syscalls.c **** }
 514              		.loc 1 203 0
 515 0016 1846     		mov	r0, r3
 516 0018 07F10C07 		add	r7, r7, #12
 517 001c BD46     		mov	sp, r7
 518 001e 80BC     		pop	{r7}
 519 0020 7047     		bx	lr
 520              		.cfi_endproc
 521              	.LFE45:
 522              		.size	_fstat, .-_fstat
 523 0022 00BF     		.bss
 524              		.align	2
 525              	heap.7559:
 526 0000 00000000 		.space	4
 527              		.text
 528              	.Letext0:
 529              		.file 2 "/usr/local/Sourcery/bin/../lib/gcc/arm-none-eabi/4.6.1/../../../../arm-none-eabi/include/
 530              		.file 3 "/usr/local/Sourcery/bin/../lib/gcc/arm-none-eabi/4.6.1/../../../../arm-none-eabi/include/
 531              		.file 4 "/usr/local/Sourcery/bin/../lib/gcc/arm-none-eabi/4.6.1/../../../../arm-none-eabi/include/
 532              		.file 5 "libchip/cmsis/core_cm3.h"
 533              		.file 6 "/usr/local/Sourcery/bin/../lib/gcc/arm-none-eabi/4.6.1/../../../../arm-none-eabi/include/