ARM GAS  /tmp/ccPeHd1h.s 			page 1


   1              		.syntax unified
   2              		.cpu cortex-m3
   3              		.fpu softvfp
   4              		.eabi_attribute 20, 1
   5              		.eabi_attribute 21, 1
   6              		.eabi_attribute 23, 3
   7              		.eabi_attribute 24, 1
   8              		.eabi_attribute 25, 1
   9              		.eabi_attribute 26, 1
  10              		.eabi_attribute 30, 6
  11              		.eabi_attribute 34, 1
  12              		.eabi_attribute 18, 4
  13              		.thumb
  14              		.file	"system.c"
  15              		.text
  16              	.Ltext0:
  17              		.cfi_sections	.debug_frame
  18              		.global	SystemCoreClock
  19              		.data
  20              		.align	2
  21              		.type	SystemCoreClock, %object
  22              		.size	SystemCoreClock, 4
  23              	SystemCoreClock:
  24 0000 01093D00 		.word	4000001
  25              		.section	.text.SystemCoreClockUpdate,"ax",%progbits
  26              		.align	2
  27              		.global	SystemCoreClockUpdate
  28              		.thumb
  29              		.thumb_func
  30              		.type	SystemCoreClockUpdate, %function
  31              	SystemCoreClockUpdate:
  32              	.LFB35:
  33              		.file 1 "board/system.c"
   1:board/system.c **** /* ----------------------------------------------------------------------------
   2:board/system.c ****  *         ATMEL Microcontroller Software Support
   3:board/system.c ****  * ----------------------------------------------------------------------------
   4:board/system.c ****  * Copyright (c) 2009, Atmel Corporation
   5:board/system.c ****  *
   6:board/system.c ****  * All rights reserved.
   7:board/system.c ****  *
   8:board/system.c ****  * Redistribution and use in source and binary forms, with or without
   9:board/system.c ****  * modification, are permitted provided that the following conditions are met:
  10:board/system.c ****  *
  11:board/system.c ****  * - Redistributions of source code must retain the above copyright notice,
  12:board/system.c ****  * this list of conditions and the disclaimer below.
  13:board/system.c ****  *
  14:board/system.c ****  * Atmel's name may not be used to endorse or promote products derived from
  15:board/system.c ****  * this software without specific prior written permission.
  16:board/system.c ****  *
  17:board/system.c ****  * DISCLAIMER: THIS SOFTWARE IS PROVIDED BY ATMEL "AS IS" AND ANY EXPRESS OR
  18:board/system.c ****  * IMPLIED WARRANTIES, INCLUDING, BUT NOT LIMITED TO, THE IMPLIED WARRANTIES OF
  19:board/system.c ****  * MERCHANTABILITY, FITNESS FOR A PARTICULAR PURPOSE AND NON-INFRINGEMENT ARE
  20:board/system.c ****  * DISCLAIMED. IN NO EVENT SHALL ATMEL BE LIABLE FOR ANY DIRECT, INDIRECT,
  21:board/system.c ****  * INCIDENTAL, SPECIAL, EXEMPLARY, OR CONSEQUENTIAL DAMAGES (INCLUDING, BUT NOT
  22:board/system.c ****  * LIMITED TO, PROCUREMENT OF SUBSTITUTE GOODS OR SERVICES; LOSS OF USE, DATA,
  23:board/system.c ****  * OR PROFITS; OR BUSINESS INTERRUPTION) HOWEVER CAUSED AND ON ANY THEORY OF
  24:board/system.c ****  * LIABILITY, WHETHER IN CONTRACT, STRICT LIABILITY, OR TORT (INCLUDING
ARM GAS  /tmp/ccPeHd1h.s 			page 2


  25:board/system.c ****  * NEGLIGENCE OR OTHERWISE) ARISING IN ANY WAY OUT OF THE USE OF THIS SOFTWARE,
  26:board/system.c ****  * EVEN IF ADVISED OF THE POSSIBILITY OF SUCH DAMAGE.
  27:board/system.c ****  * ----------------------------------------------------------------------------
  28:board/system.c ****  */
  29:board/system.c **** 
  30:board/system.c **** /**
  31:board/system.c ****  * \file
  32:board/system.c ****  *
  33:board/system.c ****  * Provides the low-level initialization function that called on chip startup.
  34:board/system.c ****  */
  35:board/system.c **** 
  36:board/system.c **** /*----------------------------------------------------------------------------
  37:board/system.c ****  *        Headers
  38:board/system.c ****  *----------------------------------------------------------------------------*/
  39:board/system.c **** 
  40:board/system.c **** #include "board.h"
  41:board/system.c **** 
  42:board/system.c **** /*----------------------------------------------------------------------------
  43:board/system.c ****  *        Local definitions
  44:board/system.c ****  *----------------------------------------------------------------------------*/
  45:board/system.c **** /* Clock settings at 48MHz */
  46:board/system.c **** #if (BOARD_MCK == 48000000)
  47:board/system.c **** #define BOARD_OSCOUNT   (CKGR_MOR_MOSCXTST(0x8))
  48:board/system.c **** #define BOARD_PLLAR     (CKGR_PLLAR_STUCKTO1 \
  49:board/system.c ****                        | CKGR_PLLAR_MULA(0x7) \
  50:board/system.c ****                        | CKGR_PLLAR_PLLACOUNT(0x1) \
  51:board/system.c ****                        | CKGR_PLLAR_DIVA(0x1))
  52:board/system.c **** #define BOARD_MCKR      (PMC_MCKR_PRES_CLK_2 | PMC_MCKR_CSS_PLLA_CLK)
  53:board/system.c **** 
  54:board/system.c **** /* Clock settings at 64MHz */
  55:board/system.c **** #elif (BOARD_MCK == 64000000)
  56:board/system.c **** #define BOARD_OSCOUNT   (CKGR_MOR_MOSCXTST(0x8))
  57:board/system.c **** #define BOARD_PLLAR     (CKGR_PLLAR_STUCKTO1 \
  58:board/system.c ****                        | CKGR_PLLAR_MULA(0x0f) \
  59:board/system.c ****                        | CKGR_PLLAR_PLLACOUNT(0x1) \
  60:board/system.c ****                        | CKGR_PLLAR_DIVA(0x3))
  61:board/system.c **** #define BOARD_MCKR      (PMC_MCKR_PRES_CLK | PMC_MCKR_CSS_PLLA_CLK)
  62:board/system.c **** 
  63:board/system.c **** #else
  64:board/system.c ****     #error "No settings for current BOARD_MCK."
  65:board/system.c **** #endif
  66:board/system.c **** 
  67:board/system.c **** /* Define clock timeout */
  68:board/system.c **** #define CLOCK_TIMEOUT    0xFFFFFFFF
  69:board/system.c **** 
  70:board/system.c **** /*----------------------------------------------------------------------------
  71:board/system.c ****  *        Exported functions
  72:board/system.c ****  *----------------------------------------------------------------------------*/
  73:board/system.c **** 
  74:board/system.c **** volatile uint32_t SystemCoreClock = 4000001;
  75:board/system.c **** 
  76:board/system.c **** /*
  77:board/system.c ****  * Calculates system frequency from
  78:board/system.c ****  * measurement and register settings.
  79:board/system.c ****  *
  80:board/system.c ****  * This only works with a precise slow clock xtal
  81:board/system.c ****  * connected!
ARM GAS  /tmp/ccPeHd1h.s 			page 3


  82:board/system.c ****  */
  83:board/system.c **** void SystemCoreClockUpdate()	
  84:board/system.c **** {
  34              		.loc 1 84 0
  35              		.cfi_startproc
  36              		@ args = 0, pretend = 0, frame = 16
  37              		@ frame_needed = 1, uses_anonymous_args = 0
  38              		@ link register save eliminated.
  39 0000 80B4     		push	{r7}
  40              	.LCFI0:
  41              		.cfi_def_cfa_offset 4
  42              		.cfi_offset 7, -4
  43 0002 85B0     		sub	sp, sp, #20
  44              	.LCFI1:
  45              		.cfi_def_cfa_offset 24
  46 0004 00AF     		add	r7, sp, #0
  47              	.LCFI2:
  48              		.cfi_def_cfa_register 7
  85:board/system.c **** 	uint32_t mainf;
  86:board/system.c **** 	uint32_t sysf;
  87:board/system.c **** 	uint16_t mul;
  88:board/system.c **** 	uint8_t div;
  89:board/system.c **** 	uint8_t prescaler;
  90:board/system.c **** 
  91:board/system.c **** 	while(!(PMC->CKGR_MCFR & CKGR_MCFR_MAINFRDY));
  49              		.loc 1 91 0
  50 0006 00BF     		nop
  51              	.L2:
  52              		.loc 1 91 0 is_stmt 0 discriminator 1
  53 0008 4FF48063 		mov	r3, #1024
  54 000c C4F20E03 		movt	r3, 16398
  55 0010 5B6A     		ldr	r3, [r3, #36]
  56 0012 03F48033 		and	r3, r3, #65536
  57 0016 002B     		cmp	r3, #0
  58 0018 F6D0     		beq	.L2
  92:board/system.c **** 	/* MAINF holds MAINCLK cycles within 16 slow clock periods:
  93:board/system.c **** 	 * f = MAINF/(16 * 1/32768 Hz) = (MAINF * 2^15 Hz) / 2^4
  94:board/system.c **** 	 * f = MAINF * 2^11
  95:board/system.c **** 	 */
  96:board/system.c **** 	mainf = (PMC->CKGR_MCFR & CKGR_MCFR_MAINF_Msk) << 11;
  59              		.loc 1 96 0 is_stmt 1
  60 001a 4FF48063 		mov	r3, #1024
  61 001e C4F20E03 		movt	r3, 16398
  62 0022 5B6A     		ldr	r3, [r3, #36]
  63 0024 4FEA0343 		lsl	r3, r3, #16
  64 0028 4FEA1343 		lsr	r3, r3, #16
  65 002c 4FEAC323 		lsl	r3, r3, #11
  66 0030 BB60     		str	r3, [r7, #8]
  97:board/system.c **** 
  98:board/system.c **** 	switch(PMC->PMC_MCKR & PMC_MCKR_CSS_Msk) {
  67              		.loc 1 98 0
  68 0032 4FF48063 		mov	r3, #1024
  69 0036 C4F20E03 		movt	r3, 16398
  70 003a 1B6B     		ldr	r3, [r3, #48]
  71 003c 03F00303 		and	r3, r3, #3
  72 0040 032B     		cmp	r3, #3
  73 0042 00F28680 		bhi	.L3
ARM GAS  /tmp/ccPeHd1h.s 			page 4


  74 0046 01A2     		adr	r2, .L8
  75 0048 52F823F0 		ldr	pc, [r2, r3, lsl #2]
  76              		.align	2
  77              	.L8:
  78 004c 5D000000 		.word	.L4+1
  79 0050 65000000 		.word	.L5+1
  80 0054 6B000000 		.word	.L6+1
  81 0058 DF000000 		.word	.L7+1
  82              	.L4:
  99:board/system.c **** 		case PMC_MCKR_CSS_SLOW_CLK: // SLOW CLOCK selected
 100:board/system.c **** 			sysf = 32768; // lucky guess 
  83              		.loc 1 100 0
  84 005c 4FF40043 		mov	r3, #32768
  85 0060 FB60     		str	r3, [r7, #12]
 101:board/system.c **** 			break;
  86              		.loc 1 101 0
  87 0062 76E0     		b	.L3
  88              	.L5:
 102:board/system.c **** 		case PMC_MCKR_CSS_MAIN_CLK: // MAIN CLOCK selected
 103:board/system.c **** 			sysf = mainf;
  89              		.loc 1 103 0
  90 0064 BB68     		ldr	r3, [r7, #8]
  91 0066 FB60     		str	r3, [r7, #12]
 104:board/system.c **** 			break;
  92              		.loc 1 104 0
  93 0068 73E0     		b	.L3
  94              	.L6:
 105:board/system.c **** 		case PMC_MCKR_CSS_PLLA_CLK: // PLLA CLOCK selected
 106:board/system.c **** 			mul = ((BOARD_PLLAR & CKGR_PLLAR_MULA_Msk) >> CKGR_PLLAR_MULA_Pos);
  95              		.loc 1 106 0
  96 006a 4FF00703 		mov	r3, #7
  97 006e FB80     		strh	r3, [r7, #6]	@ movhi
 107:board/system.c **** 			mul = (uint16_t)((PMC->CKGR_PLLAR & CKGR_PLLAR_MULA_Msk) >> CKGR_PLLAR_MULA_Pos);
  98              		.loc 1 107 0
  99 0070 4FF48063 		mov	r3, #1024
 100 0074 C4F20E03 		movt	r3, 16398
 101 0078 9A6A     		ldr	r2, [r3, #40]
 102 007a 4FF00003 		mov	r3, #0
 103 007e C0F2FF73 		movt	r3, 2047
 104 0082 1340     		ands	r3, r3, r2
 105 0084 4FEA1343 		lsr	r3, r3, #16
 106 0088 FB80     		strh	r3, [r7, #6]	@ movhi
 108:board/system.c **** 			div = (uint8_t) (PMC->CKGR_PLLAR & CKGR_PLLAR_DIVA_Msk);
 107              		.loc 1 108 0
 108 008a 4FF48063 		mov	r3, #1024
 109 008e C4F20E03 		movt	r3, 16398
 110 0092 9B6A     		ldr	r3, [r3, #40]
 111 0094 7B71     		strb	r3, [r7, #5]
 109:board/system.c **** 			if (mul == 0) // plla disabled? 
 112              		.loc 1 109 0
 113 0096 FB88     		ldrh	r3, [r7, #6]
 114 0098 002B     		cmp	r3, #0
 115 009a 02D1     		bne	.L9
 110:board/system.c **** 				sysf = mainf;
 116              		.loc 1 110 0
 117 009c BB68     		ldr	r3, [r7, #8]
 118 009e FB60     		str	r3, [r7, #12]
ARM GAS  /tmp/ccPeHd1h.s 			page 5


 111:board/system.c **** 			else {
 112:board/system.c **** 				sysf = div == 0 ? 0 : mainf * (mul+1)/div;
 113:board/system.c **** 				if (PMC->PMC_MCKR & PMC_MCKR_PLLADIV2)
 114:board/system.c **** 					sysf = sysf >> 1;
 115:board/system.c **** 			}
 116:board/system.c **** 			break;
 119              		.loc 1 116 0
 120 00a0 54E0     		b	.L17
 121              	.L9:
 112:board/system.c **** 				sysf = div == 0 ? 0 : mainf * (mul+1)/div;
 122              		.loc 1 112 0
 123 00a2 7B79     		ldrb	r3, [r7, #5]	@ zero_extendqisi2
 124 00a4 002B     		cmp	r3, #0
 125 00a6 09D0     		beq	.L11
 112:board/system.c **** 				sysf = div == 0 ? 0 : mainf * (mul+1)/div;
 126              		.loc 1 112 0 is_stmt 0 discriminator 1
 127 00a8 FB88     		ldrh	r3, [r7, #6]
 128 00aa 03F10103 		add	r3, r3, #1
 129 00ae BA68     		ldr	r2, [r7, #8]
 130 00b0 02FB03F2 		mul	r2, r2, r3
 131 00b4 7B79     		ldrb	r3, [r7, #5]	@ zero_extendqisi2
 132 00b6 B2FBF3F3 		udiv	r3, r2, r3
 133 00ba 01E0     		b	.L12
 134              	.L11:
 112:board/system.c **** 				sysf = div == 0 ? 0 : mainf * (mul+1)/div;
 135              		.loc 1 112 0 discriminator 2
 136 00bc 4FF00003 		mov	r3, #0
 137              	.L12:
 112:board/system.c **** 				sysf = div == 0 ? 0 : mainf * (mul+1)/div;
 138              		.loc 1 112 0 discriminator 3
 139 00c0 FB60     		str	r3, [r7, #12]
 113:board/system.c **** 				if (PMC->PMC_MCKR & PMC_MCKR_PLLADIV2)
 140              		.loc 1 113 0 is_stmt 1 discriminator 3
 141 00c2 4FF48063 		mov	r3, #1024
 142 00c6 C4F20E03 		movt	r3, 16398
 143 00ca 1B6B     		ldr	r3, [r3, #48]
 144 00cc 03F48053 		and	r3, r3, #4096
 145 00d0 002B     		cmp	r3, #0
 146 00d2 3BD0     		beq	.L17
 114:board/system.c **** 					sysf = sysf >> 1;
 147              		.loc 1 114 0
 148 00d4 FB68     		ldr	r3, [r7, #12]
 149 00d6 4FEA5303 		lsr	r3, r3, #1
 150 00da FB60     		str	r3, [r7, #12]
 151              		.loc 1 116 0
 152 00dc 36E0     		b	.L17
 153              	.L7:
 117:board/system.c **** 		case PMC_MCKR_CSS_PLLB_CLK: // PLLB CLOCK selected
 118:board/system.c **** 			mul = (uint16_t)((PMC->CKGR_PLLBR & CKGR_PLLBR_MULB_Msk) >> CKGR_PLLAR_MULA_Pos);
 154              		.loc 1 118 0
 155 00de 4FF48063 		mov	r3, #1024
 156 00e2 C4F20E03 		movt	r3, 16398
 157 00e6 DA6A     		ldr	r2, [r3, #44]
 158 00e8 4FF00003 		mov	r3, #0
 159 00ec C0F2FF73 		movt	r3, 2047
 160 00f0 1340     		ands	r3, r3, r2
 161 00f2 4FEA1343 		lsr	r3, r3, #16
ARM GAS  /tmp/ccPeHd1h.s 			page 6


 162 00f6 FB80     		strh	r3, [r7, #6]	@ movhi
 119:board/system.c **** 			div = (uint8_t) (PMC->CKGR_PLLBR & CKGR_PLLBR_DIVB_Msk);
 163              		.loc 1 119 0
 164 00f8 4FF48063 		mov	r3, #1024
 165 00fc C4F20E03 		movt	r3, 16398
 166 0100 DB6A     		ldr	r3, [r3, #44]
 167 0102 7B71     		strb	r3, [r7, #5]
 120:board/system.c **** 			if (mul == 0) // pllb disabled? 
 168              		.loc 1 120 0
 169 0104 FB88     		ldrh	r3, [r7, #6]
 170 0106 002B     		cmp	r3, #0
 171 0108 02D1     		bne	.L13
 121:board/system.c **** 				sysf = mainf;
 172              		.loc 1 121 0
 173 010a BB68     		ldr	r3, [r7, #8]
 174 010c FB60     		str	r3, [r7, #12]
 122:board/system.c **** 			else {
 123:board/system.c **** 				sysf = div == 0 ? 0 : mainf * (mul+1)/div;
 124:board/system.c **** 				if (PMC->PMC_MCKR & PMC_MCKR_PLLBDIV2)
 125:board/system.c **** 					sysf = sysf >> 1;
 126:board/system.c **** 			}
 127:board/system.c **** 			break;
 175              		.loc 1 127 0
 176 010e 1FE0     		b	.L18
 177              	.L13:
 123:board/system.c **** 				sysf = div == 0 ? 0 : mainf * (mul+1)/div;
 178              		.loc 1 123 0
 179 0110 7B79     		ldrb	r3, [r7, #5]	@ zero_extendqisi2
 180 0112 002B     		cmp	r3, #0
 181 0114 09D0     		beq	.L15
 123:board/system.c **** 				sysf = div == 0 ? 0 : mainf * (mul+1)/div;
 182              		.loc 1 123 0 is_stmt 0 discriminator 1
 183 0116 FB88     		ldrh	r3, [r7, #6]
 184 0118 03F10103 		add	r3, r3, #1
 185 011c BA68     		ldr	r2, [r7, #8]
 186 011e 02FB03F2 		mul	r2, r2, r3
 187 0122 7B79     		ldrb	r3, [r7, #5]	@ zero_extendqisi2
 188 0124 B2FBF3F3 		udiv	r3, r2, r3
 189 0128 01E0     		b	.L16
 190              	.L15:
 123:board/system.c **** 				sysf = div == 0 ? 0 : mainf * (mul+1)/div;
 191              		.loc 1 123 0 discriminator 2
 192 012a 4FF00003 		mov	r3, #0
 193              	.L16:
 123:board/system.c **** 				sysf = div == 0 ? 0 : mainf * (mul+1)/div;
 194              		.loc 1 123 0 discriminator 3
 195 012e FB60     		str	r3, [r7, #12]
 124:board/system.c **** 				if (PMC->PMC_MCKR & PMC_MCKR_PLLBDIV2)
 196              		.loc 1 124 0 is_stmt 1 discriminator 3
 197 0130 4FF48063 		mov	r3, #1024
 198 0134 C4F20E03 		movt	r3, 16398
 199 0138 1B6B     		ldr	r3, [r3, #48]
 200 013a 03F40053 		and	r3, r3, #8192
 201 013e 002B     		cmp	r3, #0
 202 0140 06D0     		beq	.L18
 125:board/system.c **** 					sysf = sysf >> 1;
 203              		.loc 1 125 0
ARM GAS  /tmp/ccPeHd1h.s 			page 7


 204 0142 FB68     		ldr	r3, [r7, #12]
 205 0144 4FEA5303 		lsr	r3, r3, #1
 206 0148 FB60     		str	r3, [r7, #12]
 207              		.loc 1 127 0
 208 014a 01E0     		b	.L18
 209              	.L17:
 116:board/system.c **** 			break;
 210              		.loc 1 116 0
 211 014c 00BF     		nop
 212 014e 00E0     		b	.L3
 213              	.L18:
 214              		.loc 1 127 0
 215 0150 00BF     		nop
 216              	.L3:
 128:board/system.c **** 	}
 129:board/system.c **** 
 130:board/system.c **** 	prescaler = (PMC->PMC_MCKR & PMC_MCKR_PRES_Msk) >> PMC_MCKR_PRES_Pos;
 217              		.loc 1 130 0
 218 0152 4FF48063 		mov	r3, #1024
 219 0156 C4F20E03 		movt	r3, 16398
 220 015a 1B6B     		ldr	r3, [r3, #48]
 221 015c 03F07003 		and	r3, r3, #112
 222 0160 4FEA1313 		lsr	r3, r3, #4
 223 0164 3B71     		strb	r3, [r7, #4]
 131:board/system.c **** 	SystemCoreClock = sysf >> prescaler;
 224              		.loc 1 131 0
 225 0166 3B79     		ldrb	r3, [r7, #4]	@ zero_extendqisi2
 226 0168 FA68     		ldr	r2, [r7, #12]
 227 016a 22FA03F2 		lsr	r2, r2, r3
 228 016e 40F20003 		movw	r3, #:lower16:SystemCoreClock
 229 0172 C0F20003 		movt	r3, #:upper16:SystemCoreClock
 230 0176 1A60     		str	r2, [r3, #0]
 132:board/system.c **** }
 231              		.loc 1 132 0
 232 0178 07F11407 		add	r7, r7, #20
 233 017c BD46     		mov	sp, r7
 234 017e 80BC     		pop	{r7}
 235 0180 7047     		bx	lr
 236              		.cfi_endproc
 237              	.LFE35:
 238              		.size	SystemCoreClockUpdate, .-SystemCoreClockUpdate
 239 0182 00BF     		.section	.text.SystemInit,"ax",%progbits
 240              		.align	2
 241              		.weak	SystemInit
 242              		.thumb
 243              		.thumb_func
 244              		.type	SystemInit, %function
 245              	SystemInit:
 246              	.LFB36:
 133:board/system.c **** 
 134:board/system.c **** /**
 135:board/system.c ****  * \brief Performs the low-level initialization of the chip.
 136:board/system.c ****  * This includes EFC and master clock configuration.
 137:board/system.c ****  * It also enable a low level on the pin NRST triggers a user reset.
 138:board/system.c ****  */
 139:board/system.c **** WEAK void SystemInit( void )
 140:board/system.c **** {
ARM GAS  /tmp/ccPeHd1h.s 			page 8


 247              		.loc 1 140 0
 248              		.cfi_startproc
 249              		@ args = 0, pretend = 0, frame = 8
 250              		@ frame_needed = 1, uses_anonymous_args = 0
 251              		@ link register save eliminated.
 252 0000 80B4     		push	{r7}
 253              	.LCFI3:
 254              		.cfi_def_cfa_offset 4
 255              		.cfi_offset 7, -4
 256 0002 83B0     		sub	sp, sp, #12
 257              	.LCFI4:
 258              		.cfi_def_cfa_offset 16
 259 0004 00AF     		add	r7, sp, #0
 260              	.LCFI5:
 261              		.cfi_def_cfa_register 7
 141:board/system.c ****     uint32_t timeout = 0;
 262              		.loc 1 141 0
 263 0006 4FF00003 		mov	r3, #0
 264 000a 7B60     		str	r3, [r7, #4]
 142:board/system.c **** 
 143:board/system.c ****     /* Set 3 FWS for Embedded Flash Access */
 144:board/system.c ****     EFC->EEFC_FMR = EEFC_FMR_FWS(3);
 265              		.loc 1 144 0
 266 000c 4FF42063 		mov	r3, #2560
 267 0010 C4F20E03 		movt	r3, 16398
 268 0014 4FF44072 		mov	r2, #768
 269 0018 1A60     		str	r2, [r3, #0]
 145:board/system.c **** 
 146:board/system.c ****     /* Select external slow clock */
 147:board/system.c ****     //if ((SUPC->SUPC_SR & SUPC_SR_OSCSEL) != SUPC_SR_OSCSEL_CRYST)
 148:board/system.c ****     //{
 149:board/system.c ****     //    SUPC->SUPC_CR = (uint32_t)(SUPC_CR_XTALSEL_CRYSTAL_SEL | SUPC_CR_KEY(0xA5));
 150:board/system.c ****     //    for ( timeout = 0; !(SUPC->SUPC_SR & SUPC_SR_OSCSEL_CRYST) ; );
 151:board/system.c ****     //}
 152:board/system.c **** 
 153:board/system.c ****     /* Initialize main oscillator */
 154:board/system.c ****     if ( !(PMC->CKGR_MOR & CKGR_MOR_MOSCSEL) )
 270              		.loc 1 154 0
 271 001a 4FF48063 		mov	r3, #1024
 272 001e C4F20E03 		movt	r3, 16398
 273 0022 1B6A     		ldr	r3, [r3, #32]
 274 0024 03F08073 		and	r3, r3, #16777216
 275 0028 002B     		cmp	r3, #0
 276 002a 22D1     		bne	.L20
 155:board/system.c ****     {
 156:board/system.c ****         PMC->CKGR_MOR = CKGR_MOR_KEY(0x37) | BOARD_OSCOUNT | CKGR_MOR_MOSCRCEN | CKGR_MOR_MOSCXTEN;
 277              		.loc 1 156 0
 278 002c 4FF48063 		mov	r3, #1024
 279 0030 C4F20E03 		movt	r3, 16398
 280 0034 40F60902 		movw	r2, #2057
 281 0038 C0F23702 		movt	r2, 55
 282 003c 1A62     		str	r2, [r3, #32]
 157:board/system.c ****         for ( timeout = 0; !(PMC->PMC_SR & PMC_SR_MOSCXTS) && (timeout++ < CLOCK_TIMEOUT); );
 283              		.loc 1 157 0
 284 003e 4FF00003 		mov	r3, #0
 285 0042 7B60     		str	r3, [r7, #4]
 286 0044 00BF     		nop
ARM GAS  /tmp/ccPeHd1h.s 			page 9


 287              	.L21:
 288              		.loc 1 157 0 is_stmt 0 discriminator 1
 289 0046 4FF48063 		mov	r3, #1024
 290 004a C4F20E03 		movt	r3, 16398
 291 004e 9B6E     		ldr	r3, [r3, #104]
 292 0050 03F00103 		and	r3, r3, #1
 293 0054 002B     		cmp	r3, #0
 294 0056 0CD1     		bne	.L20
 295              		.loc 1 157 0 discriminator 2
 296 0058 7B68     		ldr	r3, [r7, #4]
 297 005a B3F1FF3F 		cmp	r3, #-1
 298 005e 0CBF     		ite	eq
 299 0060 0023     		moveq	r3, #0
 300 0062 0123     		movne	r3, #1
 301 0064 DBB2     		uxtb	r3, r3
 302 0066 7A68     		ldr	r2, [r7, #4]
 303 0068 02F10102 		add	r2, r2, #1
 304 006c 7A60     		str	r2, [r7, #4]
 305 006e 002B     		cmp	r3, #0
 306 0070 E9D1     		bne	.L21
 307              	.L20:
 158:board/system.c ****     }
 159:board/system.c **** 
 160:board/system.c ****     /* Switch to 3-20MHz Xtal oscillator */
 161:board/system.c ****     PMC->CKGR_MOR = CKGR_MOR_KEY(0x37) | BOARD_OSCOUNT | CKGR_MOR_MOSCRCEN | CKGR_MOR_MOSCXTEN | CK
 308              		.loc 1 161 0 is_stmt 1
 309 0072 4FF48063 		mov	r3, #1024
 310 0076 C4F20E03 		movt	r3, 16398
 311 007a 40F60902 		movw	r2, #2057
 312 007e C0F23712 		movt	r2, 311
 313 0082 1A62     		str	r2, [r3, #32]
 162:board/system.c ****     for ( timeout = 0; !(PMC->PMC_SR & PMC_SR_MOSCSELS) && (timeout++ < CLOCK_TIMEOUT); );
 314              		.loc 1 162 0
 315 0084 4FF00003 		mov	r3, #0
 316 0088 7B60     		str	r3, [r7, #4]
 317 008a 00BF     		nop
 318              	.L23:
 319              		.loc 1 162 0 is_stmt 0 discriminator 1
 320 008c 4FF48063 		mov	r3, #1024
 321 0090 C4F20E03 		movt	r3, 16398
 322 0094 9B6E     		ldr	r3, [r3, #104]
 323 0096 03F48033 		and	r3, r3, #65536
 324 009a 002B     		cmp	r3, #0
 325 009c 0CD1     		bne	.L22
 326              		.loc 1 162 0 discriminator 2
 327 009e 7B68     		ldr	r3, [r7, #4]
 328 00a0 B3F1FF3F 		cmp	r3, #-1
 329 00a4 0CBF     		ite	eq
 330 00a6 0023     		moveq	r3, #0
 331 00a8 0123     		movne	r3, #1
 332 00aa DBB2     		uxtb	r3, r3
 333 00ac 7A68     		ldr	r2, [r7, #4]
 334 00ae 02F10102 		add	r2, r2, #1
 335 00b2 7A60     		str	r2, [r7, #4]
 336 00b4 002B     		cmp	r3, #0
 337 00b6 E9D1     		bne	.L23
 338              	.L22:
ARM GAS  /tmp/ccPeHd1h.s 			page 10


 163:board/system.c ****     PMC->PMC_MCKR = (PMC->PMC_MCKR & ~(uint32_t)PMC_MCKR_CSS_Msk) | PMC_MCKR_CSS_MAIN_CLK;
 339              		.loc 1 163 0 is_stmt 1
 340 00b8 4FF48063 		mov	r3, #1024
 341 00bc C4F20E03 		movt	r3, 16398
 342 00c0 4FF48062 		mov	r2, #1024
 343 00c4 C4F20E02 		movt	r2, 16398
 344 00c8 126B     		ldr	r2, [r2, #48]
 345 00ca 22F00302 		bic	r2, r2, #3
 346 00ce 42F00102 		orr	r2, r2, #1
 347 00d2 1A63     		str	r2, [r3, #48]
 164:board/system.c ****     for ( timeout = 0; !(PMC->PMC_SR & PMC_SR_MCKRDY) && (timeout++ < CLOCK_TIMEOUT) ; );
 348              		.loc 1 164 0
 349 00d4 4FF00003 		mov	r3, #0
 350 00d8 7B60     		str	r3, [r7, #4]
 351 00da 00BF     		nop
 352              	.L25:
 353              		.loc 1 164 0 is_stmt 0 discriminator 1
 354 00dc 4FF48063 		mov	r3, #1024
 355 00e0 C4F20E03 		movt	r3, 16398
 356 00e4 9B6E     		ldr	r3, [r3, #104]
 357 00e6 03F00803 		and	r3, r3, #8
 358 00ea 002B     		cmp	r3, #0
 359 00ec 0CD1     		bne	.L24
 360              		.loc 1 164 0 discriminator 2
 361 00ee 7B68     		ldr	r3, [r7, #4]
 362 00f0 B3F1FF3F 		cmp	r3, #-1
 363 00f4 0CBF     		ite	eq
 364 00f6 0023     		moveq	r3, #0
 365 00f8 0123     		movne	r3, #1
 366 00fa DBB2     		uxtb	r3, r3
 367 00fc 7A68     		ldr	r2, [r7, #4]
 368 00fe 02F10102 		add	r2, r2, #1
 369 0102 7A60     		str	r2, [r7, #4]
 370 0104 002B     		cmp	r3, #0
 371 0106 E9D1     		bne	.L25
 372              	.L24:
 165:board/system.c **** 
 166:board/system.c ****     /* Initialize PLLA */
 167:board/system.c ****     PMC->CKGR_PLLAR = BOARD_PLLAR;
 373              		.loc 1 167 0 is_stmt 1
 374 0108 4FF48063 		mov	r3, #1024
 375 010c C4F20E03 		movt	r3, 16398
 376 0110 40F20112 		movw	r2, #257
 377 0114 C2F20702 		movt	r2, 8199
 378 0118 9A62     		str	r2, [r3, #40]
 168:board/system.c ****     for (timeout = 0; !(PMC->PMC_SR & PMC_SR_LOCKA) && (timeout++ < CLOCK_TIMEOUT); );
 379              		.loc 1 168 0
 380 011a 4FF00003 		mov	r3, #0
 381 011e 7B60     		str	r3, [r7, #4]
 382 0120 00BF     		nop
 383              	.L27:
 384              		.loc 1 168 0 is_stmt 0 discriminator 1
 385 0122 4FF48063 		mov	r3, #1024
 386 0126 C4F20E03 		movt	r3, 16398
 387 012a 9B6E     		ldr	r3, [r3, #104]
 388 012c 03F00203 		and	r3, r3, #2
 389 0130 002B     		cmp	r3, #0
ARM GAS  /tmp/ccPeHd1h.s 			page 11


 390 0132 0CD1     		bne	.L26
 391              		.loc 1 168 0 discriminator 2
 392 0134 7B68     		ldr	r3, [r7, #4]
 393 0136 B3F1FF3F 		cmp	r3, #-1
 394 013a 0CBF     		ite	eq
 395 013c 0023     		moveq	r3, #0
 396 013e 0123     		movne	r3, #1
 397 0140 DBB2     		uxtb	r3, r3
 398 0142 7A68     		ldr	r2, [r7, #4]
 399 0144 02F10102 		add	r2, r2, #1
 400 0148 7A60     		str	r2, [r7, #4]
 401 014a 002B     		cmp	r3, #0
 402 014c E9D1     		bne	.L27
 403              	.L26:
 169:board/system.c **** 
 170:board/system.c ****     /* Switch to main clock */
 171:board/system.c ****     PMC->PMC_MCKR = (BOARD_MCKR & ~PMC_MCKR_CSS_Msk) | PMC_MCKR_CSS_MAIN_CLK;
 404              		.loc 1 171 0 is_stmt 1
 405 014e 4FF48063 		mov	r3, #1024
 406 0152 C4F20E03 		movt	r3, 16398
 407 0156 4FF01102 		mov	r2, #17
 408 015a 1A63     		str	r2, [r3, #48]
 172:board/system.c ****     for ( timeout = 0; !(PMC->PMC_SR & PMC_SR_MCKRDY) && (timeout++ < CLOCK_TIMEOUT) ; );
 409              		.loc 1 172 0
 410 015c 4FF00003 		mov	r3, #0
 411 0160 7B60     		str	r3, [r7, #4]
 412 0162 00BF     		nop
 413              	.L29:
 414              		.loc 1 172 0 is_stmt 0 discriminator 1
 415 0164 4FF48063 		mov	r3, #1024
 416 0168 C4F20E03 		movt	r3, 16398
 417 016c 9B6E     		ldr	r3, [r3, #104]
 418 016e 03F00803 		and	r3, r3, #8
 419 0172 002B     		cmp	r3, #0
 420 0174 0CD1     		bne	.L28
 421              		.loc 1 172 0 discriminator 2
 422 0176 7B68     		ldr	r3, [r7, #4]
 423 0178 B3F1FF3F 		cmp	r3, #-1
 424 017c 0CBF     		ite	eq
 425 017e 0023     		moveq	r3, #0
 426 0180 0123     		movne	r3, #1
 427 0182 DBB2     		uxtb	r3, r3
 428 0184 7A68     		ldr	r2, [r7, #4]
 429 0186 02F10102 		add	r2, r2, #1
 430 018a 7A60     		str	r2, [r7, #4]
 431 018c 002B     		cmp	r3, #0
 432 018e E9D1     		bne	.L29
 433              	.L28:
 173:board/system.c **** 
 174:board/system.c ****     PMC->PMC_MCKR = BOARD_MCKR ;
 434              		.loc 1 174 0 is_stmt 1
 435 0190 4FF48063 		mov	r3, #1024
 436 0194 C4F20E03 		movt	r3, 16398
 437 0198 4FF01202 		mov	r2, #18
 438 019c 1A63     		str	r2, [r3, #48]
 175:board/system.c ****     for ( timeout = 0; !(PMC->PMC_SR & PMC_SR_MCKRDY) && (timeout++ < CLOCK_TIMEOUT) ; );
 439              		.loc 1 175 0
ARM GAS  /tmp/ccPeHd1h.s 			page 12


 440 019e 4FF00003 		mov	r3, #0
 441 01a2 7B60     		str	r3, [r7, #4]
 442 01a4 00BF     		nop
 443              	.L31:
 444              		.loc 1 175 0 is_stmt 0 discriminator 1
 445 01a6 4FF48063 		mov	r3, #1024
 446 01aa C4F20E03 		movt	r3, 16398
 447 01ae 9B6E     		ldr	r3, [r3, #104]
 448 01b0 03F00803 		and	r3, r3, #8
 449 01b4 002B     		cmp	r3, #0
 450 01b6 0CD1     		bne	.L19
 451              		.loc 1 175 0 discriminator 2
 452 01b8 7B68     		ldr	r3, [r7, #4]
 453 01ba B3F1FF3F 		cmp	r3, #-1
 454 01be 0CBF     		ite	eq
 455 01c0 0023     		moveq	r3, #0
 456 01c2 0123     		movne	r3, #1
 457 01c4 DBB2     		uxtb	r3, r3
 458 01c6 7A68     		ldr	r2, [r7, #4]
 459 01c8 02F10102 		add	r2, r2, #1
 460 01cc 7A60     		str	r2, [r7, #4]
 461 01ce 002B     		cmp	r3, #0
 462 01d0 E9D1     		bne	.L31
 463              	.L19:
 176:board/system.c **** 
 177:board/system.c **** }
 464              		.loc 1 177 0 is_stmt 1
 465 01d2 07F10C07 		add	r7, r7, #12
 466 01d6 BD46     		mov	sp, r7
 467 01d8 80BC     		pop	{r7}
 468 01da 7047     		bx	lr
 469              		.cfi_endproc
 470              	.LFE36:
 471              		.size	SystemInit, .-SystemInit
 472              		.text
 473              	.Letext0:
 474              		.file 2 "/usr/local/Sourcery/bin/../lib/gcc/arm-none-eabi/4.6.1/../../../../arm-none-eabi/include/
 475              		.file 3 "../libchip/include/SAM3S.h"
 476              		.file 4 "../libchip/cmsis/core_cm3.h"
 477              		.file 5 "board/system.h"