ARM GAS  /tmp/cca3rJ37.s 			page 1


   1              		.syntax unified
   2              		.cpu cortex-m3
   3              		.fpu softvfp
   4              		.eabi_attribute 20, 1
   5              		.eabi_attribute 21, 1
   6              		.eabi_attribute 23, 3
   7              		.eabi_attribute 24, 1
   8              		.eabi_attribute 25, 1
   9              		.eabi_attribute 26, 1
  10              		.eabi_attribute 30, 6
  11              		.eabi_attribute 34, 1
  12              		.eabi_attribute 18, 4
  13              		.thumb
  14              		.file	"controller.c"
  15              		.text
  16              	.Ltext0:
  17              		.cfi_sections	.debug_frame
  18              		.section	.text.pid,"ax",%progbits
  19              		.align	2
  20              		.thumb
  21              		.thumb_func
  22              		.type	pid, %function
  23              	pid:
  24              	.LFB0:
  25              		.file 1 "controller.c"
   1:controller.c  **** #include <stdio.h>
   2:controller.c  **** #include <assert.h>
   3:controller.c  **** #include "controller.h"
   4:controller.c  **** 
   5:controller.c  **** /*
   6:controller.c  ****  * PID Equations:
   7:controller.c  ****  *
   8:controller.c  ****  * A:  u = Kp*(w-x) + Ki*T*Sum(w-x) + Kd/T * Dif(w-x)
   9:controller.c  ****  * B:  u = Kp*(w-x) + Ki*T*Sum(w-x) + Kd/T * Dif( -x) // More robust: D-term based on x only, i.e. 
  10:controller.c  ****  * C:  u = Kp*( -x) + Ki*T*Sum(w-x) + Kd/T * Dif( -x) // even more robust: P-term based on x too 
  11:controller.c  ****  *
  12:controller.c  ****  * with u: output, w: setpoint, x: process value, T = 1/freq: sampling time
  13:controller.c  ****  *
  14:controller.c  ****  * Type C is not suitable when I-term isn't active (Ki=0).
  15:controller.c  ****  *
  16:controller.c  ****  * Differentiating both sides gives a cumulative equation.
  17:controller.c  ****  * du = -K_dx + Ki*T*(w-x) - Kd/T*ddx          (Type C)
  18:controller.c  ****  *
  19:controller.c  ****  */
  20:controller.c  **** static void pid(struct ctrl *ct)
  21:controller.c  **** {
  26              		.loc 1 21 0
  27              		.cfi_startproc
  28              		@ args = 0, pretend = 0, frame = 24
  29              		@ frame_needed = 1, uses_anonymous_args = 0
  30              		@ link register save eliminated.
  31 0000 80B4     		push	{r7}
  32              	.LCFI0:
  33              		.cfi_def_cfa_offset 4
  34              		.cfi_offset 7, -4
  35 0002 87B0     		sub	sp, sp, #28
  36              	.LCFI1:
ARM GAS  /tmp/cca3rJ37.s 			page 2


  37              		.cfi_def_cfa_offset 32
  38 0004 00AF     		add	r7, sp, #0
  39              	.LCFI2:
  40              		.cfi_def_cfa_register 7
  41 0006 7860     		str	r0, [r7, #4]
  22:controller.c  **** 	int pterm, iterm, dterm;
  23:controller.c  **** 	int u = ct->output;
  42              		.loc 1 23 0
  43 0008 7B68     		ldr	r3, [r7, #4]
  44 000a DB8C     		ldrh	r3, [r3, #38]
  45 000c 1BB2     		sxth	r3, r3
  46 000e FB60     		str	r3, [r7, #12]
  24:controller.c  **** 
  25:controller.c  **** 	// Calculating type B when Ki=0, type C otherwise.
  26:controller.c  **** 	if (ct->Ki == 0) { 
  47              		.loc 1 26 0
  48 0010 7B68     		ldr	r3, [r7, #4]
  49 0012 DB89     		ldrh	r3, [r3, #14]
  50 0014 002B     		cmp	r3, #0
  51 0016 0AD1     		bne	.L2
  27:controller.c  **** 		iterm = 0;
  52              		.loc 1 27 0
  53 0018 4FF00003 		mov	r3, #0
  54 001c 3B61     		str	r3, [r7, #16]
  28:controller.c  **** 		pterm = ct->Kp * ct->_de; // otherwise nothing would regard setpoint change
  55              		.loc 1 28 0
  56 001e 7B68     		ldr	r3, [r7, #4]
  57 0020 9B89     		ldrh	r3, [r3, #12]
  58 0022 7A68     		ldr	r2, [r7, #4]
  59 0024 D269     		ldr	r2, [r2, #28]
  60 0026 02FB03F3 		mul	r3, r2, r3
  61 002a 7B61     		str	r3, [r7, #20]
  62 002c 16E0     		b	.L3
  63              	.L2:
  29:controller.c  **** 	}
  30:controller.c  **** 	else {
  31:controller.c  **** 		iterm = (ct->Ki * ct->_e) / SAMPLING_FREQ;
  64              		.loc 1 31 0
  65 002e 7B68     		ldr	r3, [r7, #4]
  66 0030 DB89     		ldrh	r3, [r3, #14]
  67 0032 7A68     		ldr	r2, [r7, #4]
  68 0034 5269     		ldr	r2, [r2, #20]
  69 0036 02FB03F3 		mul	r3, r2, r3
  70 003a 03F10302 		add	r2, r3, #3
  71 003e 002B     		cmp	r3, #0
  72 0040 B8BF     		it	lt
  73 0042 1346     		movlt	r3, r2
  74 0044 4FEAA303 		asr	r3, r3, #2
  75 0048 3B61     		str	r3, [r7, #16]
  32:controller.c  **** 		pterm = -1 * ct->Kp * ct->_dx;
  76              		.loc 1 32 0
  77 004a 7B68     		ldr	r3, [r7, #4]
  78 004c 9B89     		ldrh	r3, [r3, #12]
  79 004e C3F10003 		rsb	r3, r3, #0
  80 0052 7A68     		ldr	r2, [r7, #4]
  81 0054 9269     		ldr	r2, [r2, #24]
  82 0056 02FB03F3 		mul	r3, r2, r3
ARM GAS  /tmp/cca3rJ37.s 			page 3


  83 005a 7B61     		str	r3, [r7, #20]
  84              	.L3:
  33:controller.c  **** 	}
  34:controller.c  **** 	dterm = -1 * ct->Kd * ct->_ddx * SAMPLING_FREQ;
  85              		.loc 1 34 0
  86 005c 7B68     		ldr	r3, [r7, #4]
  87 005e 1B8A     		ldrh	r3, [r3, #16]
  88 0060 C3F10003 		rsb	r3, r3, #0
  89 0064 7A68     		ldr	r2, [r7, #4]
  90 0066 126A     		ldr	r2, [r2, #32]
  91 0068 02FB03F3 		mul	r3, r2, r3
  92 006c 4FEA8303 		lsl	r3, r3, #2
  93 0070 BB60     		str	r3, [r7, #8]
  35:controller.c  **** 
  36:controller.c  **** 	u += (pterm + iterm + dterm)/SCALING_FACTOR;
  94              		.loc 1 36 0
  95 0072 7A69     		ldr	r2, [r7, #20]
  96 0074 3B69     		ldr	r3, [r7, #16]
  97 0076 D218     		adds	r2, r2, r3
  98 0078 BB68     		ldr	r3, [r7, #8]
  99 007a D318     		adds	r3, r2, r3
 100 007c 03F17F02 		add	r2, r3, #127
 101 0080 002B     		cmp	r3, #0
 102 0082 B8BF     		it	lt
 103 0084 1346     		movlt	r3, r2
 104 0086 4FEAE313 		asr	r3, r3, #7
 105 008a FA68     		ldr	r2, [r7, #12]
 106 008c D318     		adds	r3, r2, r3
 107 008e FB60     		str	r3, [r7, #12]
  37:controller.c  **** 	ct->output = (short) LIMIT(u, -MAXOUT, MAXOUT);
 108              		.loc 1 37 0
 109 0090 FA68     		ldr	r2, [r7, #12]
 110 0092 6FF48053 		mvn	r3, #4096
 111 0096 9A42     		cmp	r2, r3
 112 0098 0BDB     		blt	.L4
 113              		.loc 1 37 0 is_stmt 0 discriminator 1
 114 009a FA68     		ldr	r2, [r7, #12]
 115 009c 40F6FF73 		movw	r3, #4095
 116 00a0 9A42     		cmp	r2, r3
 117 00a2 02DC     		bgt	.L5
 118              		.loc 1 37 0 discriminator 3
 119 00a4 FB68     		ldr	r3, [r7, #12]
 120 00a6 9BB2     		uxth	r3, r3
 121 00a8 01E0     		b	.L6
 122              	.L5:
 123              		.loc 1 37 0 discriminator 4
 124 00aa 40F6FF73 		movw	r3, #4095
 125              	.L6:
 126              		.loc 1 37 0 discriminator 5
 127 00ae 9BB2     		uxth	r3, r3
 128 00b0 01E0     		b	.L7
 129              	.L4:
 130              		.loc 1 37 0 discriminator 2
 131 00b2 4EF6FF73 		movw	r3, #61439
 132              	.L7:
 133              		.loc 1 37 0 discriminator 6
 134 00b6 7A68     		ldr	r2, [r7, #4]
ARM GAS  /tmp/cca3rJ37.s 			page 4


 135 00b8 D384     		strh	r3, [r2, #38]	@ movhi
  38:controller.c  **** }
 136              		.loc 1 38 0 is_stmt 1 discriminator 6
 137 00ba 07F11C07 		add	r7, r7, #28
 138 00be BD46     		mov	sp, r7
 139 00c0 80BC     		pop	{r7}
 140 00c2 7047     		bx	lr
 141              		.cfi_endproc
 142              	.LFE0:
 143              		.size	pid, .-pid
 144              		.section	.text.update,"ax",%progbits
 145              		.align	2
 146              		.thumb
 147              		.thumb_func
 148              		.type	update, %function
 149              	update:
 150              	.LFB1:
  39:controller.c  **** 
  40:controller.c  **** static void update(ctrlio_t pv, struct ctrl *ctrl)
  41:controller.c  **** {
 151              		.loc 1 41 0
 152              		.cfi_startproc
 153              		@ args = 0, pretend = 0, frame = 16
 154              		@ frame_needed = 1, uses_anonymous_args = 0
 155 0000 80B5     		push	{r7, lr}
 156              	.LCFI3:
 157              		.cfi_def_cfa_offset 8
 158              		.cfi_offset 14, -4
 159              		.cfi_offset 7, -8
 160 0002 84B0     		sub	sp, sp, #16
 161              	.LCFI4:
 162              		.cfi_def_cfa_offset 24
 163 0004 00AF     		add	r7, sp, #0
 164              	.LCFI5:
 165              		.cfi_def_cfa_register 7
 166 0006 0346     		mov	r3, r0
 167 0008 3960     		str	r1, [r7, #0]
 168 000a FB80     		strh	r3, [r7, #6]	@ movhi
  42:controller.c  **** 	int e, dx;
  43:controller.c  **** 	dx = pv - ctrl->_x;
 169              		.loc 1 43 0
 170 000c FA88     		ldrh	r2, [r7, #6]
 171 000e 3B68     		ldr	r3, [r7, #0]
 172 0010 9B8C     		ldrh	r3, [r3, #36]
 173 0012 D31A     		subs	r3, r2, r3
 174 0014 BB60     		str	r3, [r7, #8]
  44:controller.c  **** 
  45:controller.c  **** 	if (ctrl->mode == RAMP)
 175              		.loc 1 45 0
 176 0016 3B68     		ldr	r3, [r7, #0]
 177 0018 1B78     		ldrb	r3, [r3, #0]	@ zero_extendqisi2
 178 001a 022B     		cmp	r3, #2
 179 001c 0BD1     		bne	.L9
  46:controller.c  **** 		e = ctrl->rSlope - (dx * SAMPLING_FREQ);
 180              		.loc 1 46 0
 181 001e 3B68     		ldr	r3, [r7, #0]
 182 0020 9968     		ldr	r1, [r3, #8]
ARM GAS  /tmp/cca3rJ37.s 			page 5


 183 0022 BA68     		ldr	r2, [r7, #8]
 184 0024 1346     		mov	r3, r2
 185 0026 4FEA8373 		lsl	r3, r3, #30
 186 002a 9B1A     		subs	r3, r3, r2
 187 002c 4FEA8303 		lsl	r3, r3, #2
 188 0030 CB18     		adds	r3, r1, r3
 189 0032 FB60     		str	r3, [r7, #12]
 190 0034 05E0     		b	.L10
 191              	.L9:
  47:controller.c  **** 	else
  48:controller.c  **** 		e = ctrl->SP - pv;
 192              		.loc 1 48 0
 193 0036 3B68     		ldr	r3, [r7, #0]
 194 0038 5B88     		ldrh	r3, [r3, #2]
 195 003a 1A46     		mov	r2, r3
 196 003c FB88     		ldrh	r3, [r7, #6]
 197 003e D31A     		subs	r3, r2, r3
 198 0040 FB60     		str	r3, [r7, #12]
 199              	.L10:
  49:controller.c  **** 
  50:controller.c  **** 	ctrl->_ddx = dx - ctrl->_dx;
 200              		.loc 1 50 0
 201 0042 3B68     		ldr	r3, [r7, #0]
 202 0044 9B69     		ldr	r3, [r3, #24]
 203 0046 BA68     		ldr	r2, [r7, #8]
 204 0048 D21A     		subs	r2, r2, r3
 205 004a 3B68     		ldr	r3, [r7, #0]
 206 004c 1A62     		str	r2, [r3, #32]
  51:controller.c  **** 	ctrl->_de = e - ctrl->_e;
 207              		.loc 1 51 0
 208 004e 3B68     		ldr	r3, [r7, #0]
 209 0050 5B69     		ldr	r3, [r3, #20]
 210 0052 FA68     		ldr	r2, [r7, #12]
 211 0054 D21A     		subs	r2, r2, r3
 212 0056 3B68     		ldr	r3, [r7, #0]
 213 0058 DA61     		str	r2, [r3, #28]
  52:controller.c  **** 	ctrl->_dx = dx;
 214              		.loc 1 52 0
 215 005a 3B68     		ldr	r3, [r7, #0]
 216 005c BA68     		ldr	r2, [r7, #8]
 217 005e 9A61     		str	r2, [r3, #24]
  53:controller.c  **** 	ctrl->_e = e;
 218              		.loc 1 53 0
 219 0060 3B68     		ldr	r3, [r7, #0]
 220 0062 FA68     		ldr	r2, [r7, #12]
 221 0064 5A61     		str	r2, [r3, #20]
  54:controller.c  **** 	ctrl->_x = pv;
 222              		.loc 1 54 0
 223 0066 3B68     		ldr	r3, [r7, #0]
 224 0068 FA88     		ldrh	r2, [r7, #6]	@ movhi
 225 006a 9A84     		strh	r2, [r3, #36]	@ movhi
  55:controller.c  **** 
  56:controller.c  **** 	if (ctrl->tristate != 0 && ctrl->tristate->input != 0) 
 226              		.loc 1 56 0
 227 006c 3B68     		ldr	r3, [r7, #0]
 228 006e 9B6A     		ldr	r3, [r3, #40]
 229 0070 002B     		cmp	r3, #0
ARM GAS  /tmp/cca3rJ37.s 			page 6


 230 0072 09D0     		beq	.L8
 231              		.loc 1 56 0 is_stmt 0 discriminator 1
 232 0074 3B68     		ldr	r3, [r7, #0]
 233 0076 9B6A     		ldr	r3, [r3, #40]
 234 0078 1B68     		ldr	r3, [r3, #0]
 235 007a 002B     		cmp	r3, #0
 236 007c 04D0     		beq	.L8
  57:controller.c  **** 		tristate(ctrl->tristate);
 237              		.loc 1 57 0 is_stmt 1
 238 007e 3B68     		ldr	r3, [r7, #0]
 239 0080 9B6A     		ldr	r3, [r3, #40]
 240 0082 1846     		mov	r0, r3
 241 0084 FFF7FEFF 		bl	tristate
 242              	.L8:
  58:controller.c  **** }
 243              		.loc 1 58 0
 244 0088 07F11007 		add	r7, r7, #16
 245 008c BD46     		mov	sp, r7
 246 008e 80BD     		pop	{r7, pc}
 247              		.cfi_endproc
 248              	.LFE1:
 249              		.size	update, .-update
 250              		.section	.text.mode,"ax",%progbits
 251              		.align	2
 252              		.global	mode
 253              		.thumb
 254              		.thumb_func
 255              		.type	mode, %function
 256              	mode:
 257              	.LFB2:
  59:controller.c  **** 
  60:controller.c  **** // React on mode transition
  61:controller.c  **** void mode(uint8_t new, struct ctrl *ctrl)
  62:controller.c  **** {
 258              		.loc 1 62 0
 259              		.cfi_startproc
 260              		@ args = 0, pretend = 0, frame = 8
 261              		@ frame_needed = 1, uses_anonymous_args = 0
 262              		@ link register save eliminated.
 263 0000 80B4     		push	{r7}
 264              	.LCFI6:
 265              		.cfi_def_cfa_offset 4
 266              		.cfi_offset 7, -4
 267 0002 83B0     		sub	sp, sp, #12
 268              	.LCFI7:
 269              		.cfi_def_cfa_offset 16
 270 0004 00AF     		add	r7, sp, #0
 271              	.LCFI8:
 272              		.cfi_def_cfa_register 7
 273 0006 0346     		mov	r3, r0
 274 0008 3960     		str	r1, [r7, #0]
 275 000a FB71     		strb	r3, [r7, #7]
  63:controller.c  **** 	switch (new) {
 276              		.loc 1 63 0
 277 000c FB79     		ldrb	r3, [r7, #7]	@ zero_extendqisi2
 278 000e 012B     		cmp	r3, #1
 279 0010 4ED0     		beq	.L15
ARM GAS  /tmp/cca3rJ37.s 			page 7


 280 0012 022B     		cmp	r3, #2
 281 0014 32D0     		beq	.L16
 282 0016 002B     		cmp	r3, #0
 283 0018 4ED1     		bne	.L21
 284              	.L14:
  64:controller.c  **** 		case OFF:
  65:controller.c  **** 			ctrl->mode = new;
 285              		.loc 1 65 0
 286 001a 3B68     		ldr	r3, [r7, #0]
 287 001c FA79     		ldrb	r2, [r7, #7]
 288 001e 1A70     		strb	r2, [r3, #0]
  66:controller.c  **** 			ctrl->SP = 0;
 289              		.loc 1 66 0
 290 0020 3B68     		ldr	r3, [r7, #0]
 291 0022 4FF00002 		mov	r2, #0
 292 0026 5A80     		strh	r2, [r3, #2]	@ movhi
  67:controller.c  **** 			ctrl->rSP = 0;
 293              		.loc 1 67 0
 294 0028 3B68     		ldr	r3, [r7, #0]
 295 002a 4FF00002 		mov	r2, #0
 296 002e 9A80     		strh	r2, [r3, #4]	@ movhi
  68:controller.c  **** 			ctrl->rSlope = 0;
 297              		.loc 1 68 0
 298 0030 3B68     		ldr	r3, [r7, #0]
 299 0032 4FF00002 		mov	r2, #0
 300 0036 9A60     		str	r2, [r3, #8]
  69:controller.c  **** 			ctrl->output = 0;
 301              		.loc 1 69 0
 302 0038 3B68     		ldr	r3, [r7, #0]
 303 003a 4FF00002 		mov	r2, #0
 304 003e DA84     		strh	r2, [r3, #38]	@ movhi
  70:controller.c  **** 
  71:controller.c  **** 			ctrl->_e = 0;
 305              		.loc 1 71 0
 306 0040 3B68     		ldr	r3, [r7, #0]
 307 0042 4FF00002 		mov	r2, #0
 308 0046 5A61     		str	r2, [r3, #20]
  72:controller.c  **** 			ctrl->_x = 0;
 309              		.loc 1 72 0
 310 0048 3B68     		ldr	r3, [r7, #0]
 311 004a 4FF00002 		mov	r2, #0
 312 004e 9A84     		strh	r2, [r3, #36]	@ movhi
  73:controller.c  **** 			ctrl->_de = 0;
 313              		.loc 1 73 0
 314 0050 3B68     		ldr	r3, [r7, #0]
 315 0052 4FF00002 		mov	r2, #0
 316 0056 DA61     		str	r2, [r3, #28]
  74:controller.c  **** 			ctrl->_dx = 0;
 317              		.loc 1 74 0
 318 0058 3B68     		ldr	r3, [r7, #0]
 319 005a 4FF00002 		mov	r2, #0
 320 005e 9A61     		str	r2, [r3, #24]
  75:controller.c  **** 			ctrl->_ddx = 0;
 321              		.loc 1 75 0
 322 0060 3B68     		ldr	r3, [r7, #0]
 323 0062 4FF00002 		mov	r2, #0
 324 0066 1A62     		str	r2, [r3, #32]
ARM GAS  /tmp/cca3rJ37.s 			page 8


  76:controller.c  **** 
  77:controller.c  **** 			if (ctrl->tristate != 0)
 325              		.loc 1 77 0
 326 0068 3B68     		ldr	r3, [r7, #0]
 327 006a 9B6A     		ldr	r3, [r3, #40]
 328 006c 002B     		cmp	r3, #0
 329 006e 28D0     		beq	.L22
  78:controller.c  **** 				ctrl->tristate->output = 0;
 330              		.loc 1 78 0
 331 0070 3B68     		ldr	r3, [r7, #0]
 332 0072 9B6A     		ldr	r3, [r3, #40]
 333 0074 4FF00002 		mov	r2, #0
 334 0078 5A60     		str	r2, [r3, #4]
  79:controller.c  **** 			break;
 335              		.loc 1 79 0
 336 007a 22E0     		b	.L22
 337              	.L16:
  80:controller.c  **** 
  81:controller.c  **** 		case RAMP:
  82:controller.c  **** 			if (   (ctrl->_x > ctrl->rSP && ctrl->rSlope > 0) \
 338              		.loc 1 82 0
 339 007c 3B68     		ldr	r3, [r7, #0]
 340 007e 9A8C     		ldrh	r2, [r3, #36]
 341 0080 3B68     		ldr	r3, [r7, #0]
 342 0082 9B88     		ldrh	r3, [r3, #4]
 343 0084 9A42     		cmp	r2, r3
 344 0086 03D9     		bls	.L19
 345              		.loc 1 82 0 is_stmt 0 discriminator 1
 346 0088 3B68     		ldr	r3, [r7, #0]
 347 008a 9B68     		ldr	r3, [r3, #8]
 348 008c 002B     		cmp	r3, #0
 349 008e 09DC     		bgt	.L20
 350              	.L19:
  83:controller.c  **** 				|| (ctrl->_x < ctrl->rSP && ctrl->rSlope < 0))
 351              		.loc 1 83 0 is_stmt 1
 352 0090 3B68     		ldr	r3, [r7, #0]
 353 0092 9A8C     		ldrh	r2, [r3, #36]
 354 0094 3B68     		ldr	r3, [r7, #0]
 355 0096 9B88     		ldrh	r3, [r3, #4]
 356 0098 9A42     		cmp	r2, r3
 357 009a 09D2     		bcs	.L15
 358              		.loc 1 83 0 is_stmt 0 discriminator 1
 359 009c 3B68     		ldr	r3, [r7, #0]
 360 009e 9B68     		ldr	r3, [r3, #8]
 361 00a0 002B     		cmp	r3, #0
 362 00a2 05DA     		bge	.L15
 363              	.L20:
  84:controller.c  **** 				ctrl->rSlope = -ctrl->rSlope; // adjust direction
 364              		.loc 1 84 0 is_stmt 1
 365 00a4 3B68     		ldr	r3, [r7, #0]
 366 00a6 9B68     		ldr	r3, [r3, #8]
 367 00a8 C3F10002 		rsb	r2, r3, #0
 368 00ac 3B68     		ldr	r3, [r7, #0]
 369 00ae 9A60     		str	r2, [r3, #8]
 370              	.L15:
  85:controller.c  **** 		case NORMAL:
  86:controller.c  **** 			ctrl->mode = new;
ARM GAS  /tmp/cca3rJ37.s 			page 9


 371              		.loc 1 86 0
 372 00b0 3B68     		ldr	r3, [r7, #0]
 373 00b2 FA79     		ldrb	r2, [r7, #7]
 374 00b4 1A70     		strb	r2, [r3, #0]
  87:controller.c  **** 			break;
 375              		.loc 1 87 0
 376 00b6 05E0     		b	.L12
 377              	.L21:
  88:controller.c  **** 
  89:controller.c  **** 		default:
  90:controller.c  **** 			ctrl->mode = STOP;
 378              		.loc 1 90 0
 379 00b8 3B68     		ldr	r3, [r7, #0]
 380 00ba 4FF00302 		mov	r2, #3
 381 00be 1A70     		strb	r2, [r3, #0]
 382 00c0 00E0     		b	.L12
 383              	.L22:
  79:controller.c  **** 			break;
 384              		.loc 1 79 0
 385 00c2 00BF     		nop
 386              	.L12:
  91:controller.c  **** 	}
  92:controller.c  **** }
 387              		.loc 1 92 0
 388 00c4 07F10C07 		add	r7, r7, #12
 389 00c8 BD46     		mov	sp, r7
 390 00ca 80BC     		pop	{r7}
 391 00cc 7047     		bx	lr
 392              		.cfi_endproc
 393              	.LFE2:
 394              		.size	mode, .-mode
 395 00ce 00BF     		.section	.text.control,"ax",%progbits
 396              		.align	2
 397              		.global	control
 398              		.thumb
 399              		.thumb_func
 400              		.type	control, %function
 401              	control:
 402              	.LFB3:
  93:controller.c  **** 
  94:controller.c  **** // Periodically call
  95:controller.c  **** void control(ctrlio_t *pv, struct ctrl *loop, unsigned loops)
  96:controller.c  **** {
 403              		.loc 1 96 0
 404              		.cfi_startproc
 405              		@ args = 0, pretend = 0, frame = 16
 406              		@ frame_needed = 1, uses_anonymous_args = 0
 407 0000 80B5     		push	{r7, lr}
 408              	.LCFI9:
 409              		.cfi_def_cfa_offset 8
 410              		.cfi_offset 14, -4
 411              		.cfi_offset 7, -8
 412 0002 84B0     		sub	sp, sp, #16
 413              	.LCFI10:
 414              		.cfi_def_cfa_offset 24
 415 0004 00AF     		add	r7, sp, #0
 416              	.LCFI11:
ARM GAS  /tmp/cca3rJ37.s 			page 10


 417              		.cfi_def_cfa_register 7
 418 0006 F860     		str	r0, [r7, #12]
 419 0008 B960     		str	r1, [r7, #8]
 420 000a 7A60     		str	r2, [r7, #4]
  97:controller.c  **** 	while (loops) {
 421              		.loc 1 97 0
 422 000c 4FE0     		b	.L24
 423              	.L31:
  98:controller.c  **** 		if (loop->mode > OFF) {
 424              		.loc 1 98 0
 425 000e BB68     		ldr	r3, [r7, #8]
 426 0010 1B78     		ldrb	r3, [r3, #0]	@ zero_extendqisi2
 427 0012 002B     		cmp	r3, #0
 428 0014 36D0     		beq	.L25
  99:controller.c  **** 			update(*pv, loop);
 429              		.loc 1 99 0
 430 0016 FB68     		ldr	r3, [r7, #12]
 431 0018 1B88     		ldrh	r3, [r3, #0]
 432 001a 1846     		mov	r0, r3
 433 001c B968     		ldr	r1, [r7, #8]
 434 001e FFF7FEFF 		bl	update
 100:controller.c  **** 
 101:controller.c  **** 			if (loop->mode == NORMAL)
 435              		.loc 1 101 0
 436 0022 BB68     		ldr	r3, [r7, #8]
 437 0024 1B78     		ldrb	r3, [r3, #0]	@ zero_extendqisi2
 438 0026 012B     		cmp	r3, #1
 439 0028 03D1     		bne	.L26
 102:controller.c  **** 				pid(loop);
 440              		.loc 1 102 0
 441 002a B868     		ldr	r0, [r7, #8]
 442 002c FFF7FEFF 		bl	pid
 443 0030 31E0     		b	.L27
 444              	.L26:
 103:controller.c  **** 			else if (loop->mode == RAMP) {
 445              		.loc 1 103 0
 446 0032 BB68     		ldr	r3, [r7, #8]
 447 0034 1B78     		ldrb	r3, [r3, #0]	@ zero_extendqisi2
 448 0036 022B     		cmp	r3, #2
 449 0038 2DD1     		bne	.L27
 104:controller.c  **** 				pid(loop);
 450              		.loc 1 104 0
 451 003a B868     		ldr	r0, [r7, #8]
 452 003c FFF7FEFF 		bl	pid
 105:controller.c  **** 				if (   (loop->_x >= loop->rSP && loop->rSlope > 0) \
 453              		.loc 1 105 0
 454 0040 BB68     		ldr	r3, [r7, #8]
 455 0042 9A8C     		ldrh	r2, [r3, #36]
 456 0044 BB68     		ldr	r3, [r7, #8]
 457 0046 9B88     		ldrh	r3, [r3, #4]
 458 0048 9A42     		cmp	r2, r3
 459 004a 03D3     		bcc	.L28
 460              		.loc 1 105 0 is_stmt 0 discriminator 1
 461 004c BB68     		ldr	r3, [r7, #8]
 462 004e 9B68     		ldr	r3, [r3, #8]
 463 0050 002B     		cmp	r3, #0
 464 0052 0DDC     		bgt	.L29
ARM GAS  /tmp/cca3rJ37.s 			page 11


 465              	.L28:
 106:controller.c  **** 					|| (loop->_x <= loop->rSP && loop->rSlope < 0) \
 466              		.loc 1 106 0 is_stmt 1
 467 0054 BB68     		ldr	r3, [r7, #8]
 468 0056 9A8C     		ldrh	r2, [r3, #36]
 469 0058 BB68     		ldr	r3, [r7, #8]
 470 005a 9B88     		ldrh	r3, [r3, #4]
 471 005c 9A42     		cmp	r2, r3
 472 005e 03D8     		bhi	.L30
 473              		.loc 1 106 0 is_stmt 0 discriminator 1
 474 0060 BB68     		ldr	r3, [r7, #8]
 475 0062 9B68     		ldr	r3, [r3, #8]
 476 0064 002B     		cmp	r3, #0
 477 0066 03DB     		blt	.L29
 478              	.L30:
 107:controller.c  **** 					|| (loop->rSlope == 0)) {
 479              		.loc 1 107 0 is_stmt 1
 480 0068 BB68     		ldr	r3, [r7, #8]
 481 006a 9B68     		ldr	r3, [r3, #8]
 482 006c 002B     		cmp	r3, #0
 483 006e 12D1     		bne	.L27
 484              	.L29:
 108:controller.c  **** 					loop->SP = loop->rSP;
 485              		.loc 1 108 0
 486 0070 BB68     		ldr	r3, [r7, #8]
 487 0072 9A88     		ldrh	r2, [r3, #4]
 488 0074 BB68     		ldr	r3, [r7, #8]
 489 0076 5A80     		strh	r2, [r3, #2]	@ movhi
 109:controller.c  **** 					mode(NORMAL, loop);
 490              		.loc 1 109 0
 491 0078 4FF00100 		mov	r0, #1
 492 007c B968     		ldr	r1, [r7, #8]
 493 007e FFF7FEFF 		bl	mode
 494 0082 08E0     		b	.L27
 495              	.L25:
 110:controller.c  **** 				}
 111:controller.c  **** 			}
 112:controller.c  **** 		}
 113:controller.c  **** 		else if (loop->mode > STOP) {
 496              		.loc 1 113 0
 497 0084 BB68     		ldr	r3, [r7, #8]
 498 0086 1B78     		ldrb	r3, [r3, #0]	@ zero_extendqisi2
 499 0088 032B     		cmp	r3, #3
 500 008a 04D9     		bls	.L27
 114:controller.c  **** 			mode(STOP, loop);
 501              		.loc 1 114 0
 502 008c 4FF00300 		mov	r0, #3
 503 0090 B968     		ldr	r1, [r7, #8]
 504 0092 FFF7FEFF 		bl	mode
 505              	.L27:
 115:controller.c  **** 		}
 116:controller.c  **** 		loops--;
 506              		.loc 1 116 0
 507 0096 7B68     		ldr	r3, [r7, #4]
 508 0098 03F1FF33 		add	r3, r3, #-1
 509 009c 7B60     		str	r3, [r7, #4]
 117:controller.c  **** 		loop++;
ARM GAS  /tmp/cca3rJ37.s 			page 12


 510              		.loc 1 117 0
 511 009e BB68     		ldr	r3, [r7, #8]
 512 00a0 03F12C03 		add	r3, r3, #44
 513 00a4 BB60     		str	r3, [r7, #8]
 118:controller.c  **** 		pv++;
 514              		.loc 1 118 0
 515 00a6 FB68     		ldr	r3, [r7, #12]
 516 00a8 03F10203 		add	r3, r3, #2
 517 00ac FB60     		str	r3, [r7, #12]
 518              	.L24:
  97:controller.c  **** 	while (loops) {
 519              		.loc 1 97 0 discriminator 1
 520 00ae 7B68     		ldr	r3, [r7, #4]
 521 00b0 002B     		cmp	r3, #0
 522 00b2 ACD1     		bne	.L31
 119:controller.c  **** 	}
 120:controller.c  **** }
 523              		.loc 1 120 0
 524 00b4 07F11007 		add	r7, r7, #16
 525 00b8 BD46     		mov	sp, r7
 526 00ba 80BD     		pop	{r7, pc}
 527              		.cfi_endproc
 528              	.LFE3:
 529              		.size	control, .-control
 530              		.section	.rodata
 531              		.align	2
 532              	.LC0:
 533 0000 636F6E74 		.ascii	"controller.c\000"
 533      726F6C6C 
 533      65722E63 
 533      00
 534 000d 000000   		.align	2
 535              	.LC1:
 536 0010 7020213D 		.ascii	"p != 0\000"
 536      203000
 537 0017 00       		.align	2
 538              	.LC2:
 539 0018 702D3E69 		.ascii	"p->input != 0\000"
 539      6E707574 
 539      20213D20 
 539      3000
 540              		.section	.text.tristate,"ax",%progbits
 541              		.align	2
 542              		.global	tristate
 543              		.thumb
 544              		.thumb_func
 545              		.type	tristate, %function
 546              	tristate:
 547              	.LFB4:
 121:controller.c  **** 
 122:controller.c  **** /*
 123:controller.c  ****  * Call tris() with pointer to parameters.
 124:controller.c  ****  * (Useful in the way that parameter struct can
 125:controller.c  ****  * be part of the configuration).
 126:controller.c  ****  */
 127:controller.c  **** int tristate(struct trip *p)
 128:controller.c  **** {
ARM GAS  /tmp/cca3rJ37.s 			page 13


 548              		.loc 1 128 0
 549              		.cfi_startproc
 550              		@ args = 0, pretend = 0, frame = 8
 551              		@ frame_needed = 1, uses_anonymous_args = 0
 552 0000 80B5     		push	{r7, lr}
 553              	.LCFI12:
 554              		.cfi_def_cfa_offset 8
 555              		.cfi_offset 14, -4
 556              		.cfi_offset 7, -8
 557 0002 82B0     		sub	sp, sp, #8
 558              	.LCFI13:
 559              		.cfi_def_cfa_offset 16
 560 0004 00AF     		add	r7, sp, #0
 561              	.LCFI14:
 562              		.cfi_def_cfa_register 7
 563 0006 7860     		str	r0, [r7, #4]
 129:controller.c  **** 	assert(p != 0);
 564              		.loc 1 129 0
 565 0008 7B68     		ldr	r3, [r7, #4]
 566 000a 002B     		cmp	r3, #0
 567 000c 0FD1     		bne	.L33
 568              		.loc 1 129 0 is_stmt 0 discriminator 1
 569 000e 40F20000 		movw	r0, #:lower16:.LC0
 570 0012 C0F20000 		movt	r0, #:upper16:.LC0
 571 0016 4FF08101 		mov	r1, #129
 572 001a 40F20002 		movw	r2, #:lower16:__FUNCTION__.4948
 573 001e C0F20002 		movt	r2, #:upper16:__FUNCTION__.4948
 574 0022 40F20003 		movw	r3, #:lower16:.LC1
 575 0026 C0F20003 		movt	r3, #:upper16:.LC1
 576 002a FFF7FEFF 		bl	__assert_func
 577              	.L33:
 130:controller.c  **** 	assert(p->input != 0);
 578              		.loc 1 130 0 is_stmt 1
 579 002e 7B68     		ldr	r3, [r7, #4]
 580 0030 1B68     		ldr	r3, [r3, #0]
 581 0032 002B     		cmp	r3, #0
 582 0034 0FD1     		bne	.L34
 583              		.loc 1 130 0 is_stmt 0 discriminator 1
 584 0036 40F20000 		movw	r0, #:lower16:.LC0
 585 003a C0F20000 		movt	r0, #:upper16:.LC0
 586 003e 4FF08201 		mov	r1, #130
 587 0042 40F20002 		movw	r2, #:lower16:__FUNCTION__.4948
 588 0046 C0F20002 		movt	r2, #:upper16:__FUNCTION__.4948
 589 004a 40F20003 		movw	r3, #:lower16:.LC2
 590 004e C0F20003 		movt	r3, #:upper16:.LC2
 591 0052 FFF7FEFF 		bl	__assert_func
 592              	.L34:
 131:controller.c  **** 	return tris(*p->input, &p->output, p->on, p->off);
 593              		.loc 1 131 0 is_stmt 1
 594 0056 7B68     		ldr	r3, [r7, #4]
 595 0058 1B68     		ldr	r3, [r3, #0]
 596 005a 1868     		ldr	r0, [r3, #0]
 597 005c 7B68     		ldr	r3, [r7, #4]
 598 005e 03F10401 		add	r1, r3, #4
 599 0062 7B68     		ldr	r3, [r7, #4]
 600 0064 9A68     		ldr	r2, [r3, #8]
 601 0066 7B68     		ldr	r3, [r7, #4]
ARM GAS  /tmp/cca3rJ37.s 			page 14


 602 0068 DB68     		ldr	r3, [r3, #12]
 603 006a FFF7FEFF 		bl	tris
 604 006e 0346     		mov	r3, r0
 132:controller.c  **** }
 605              		.loc 1 132 0
 606 0070 1846     		mov	r0, r3
 607 0072 07F10807 		add	r7, r7, #8
 608 0076 BD46     		mov	sp, r7
 609 0078 80BD     		pop	{r7, pc}
 610              		.cfi_endproc
 611              	.LFE4:
 612              		.size	tristate, .-tristate
 613 007a 00BF     		.section	.text.tris,"ax",%progbits
 614              		.align	2
 615              		.global	tris
 616              		.thumb
 617              		.thumb_func
 618              		.type	tris, %function
 619              	tris:
 620              	.LFB5:
 133:controller.c  **** 
 134:controller.c  **** /* Get tristate output for a three-point controller
 135:controller.c  ****  * 
 136:controller.c  ****  * The result is returned and written to '*output'
 137:controller.c  ****  * which must hold the previous value and be initialized
 138:controller.c  ****  * with zero.
 139:controller.c  ****  */
 140:controller.c  **** int tris(int in, int *output, int on, int off)
 141:controller.c  **** {
 621              		.loc 1 141 0
 622              		.cfi_startproc
 623              		@ args = 0, pretend = 0, frame = 16
 624              		@ frame_needed = 1, uses_anonymous_args = 0
 625              		@ link register save eliminated.
 626 0000 80B4     		push	{r7}
 627              	.LCFI15:
 628              		.cfi_def_cfa_offset 4
 629              		.cfi_offset 7, -4
 630 0002 85B0     		sub	sp, sp, #20
 631              	.LCFI16:
 632              		.cfi_def_cfa_offset 24
 633 0004 00AF     		add	r7, sp, #0
 634              	.LCFI17:
 635              		.cfi_def_cfa_register 7
 636 0006 F860     		str	r0, [r7, #12]
 637 0008 B960     		str	r1, [r7, #8]
 638 000a 7A60     		str	r2, [r7, #4]
 639 000c 3B60     		str	r3, [r7, #0]
 142:controller.c  **** 	if (*output < -1 || *output > 1)
 640              		.loc 1 142 0
 641 000e BB68     		ldr	r3, [r7, #8]
 642 0010 1B68     		ldr	r3, [r3, #0]
 643 0012 B3F1FF3F 		cmp	r3, #-1
 644 0016 03DB     		blt	.L36
 645              		.loc 1 142 0 is_stmt 0 discriminator 1
 646 0018 BB68     		ldr	r3, [r7, #8]
 647 001a 1B68     		ldr	r3, [r3, #0]
ARM GAS  /tmp/cca3rJ37.s 			page 15


 648 001c 012B     		cmp	r3, #1
 649 001e 03DD     		ble	.L37
 650              	.L36:
 143:controller.c  **** 		*output = 0;
 651              		.loc 1 143 0 is_stmt 1
 652 0020 BB68     		ldr	r3, [r7, #8]
 653 0022 4FF00002 		mov	r2, #0
 654 0026 1A60     		str	r2, [r3, #0]
 655              	.L37:
 144:controller.c  **** 
 145:controller.c  **** 	if (*output < 0) {
 656              		.loc 1 145 0
 657 0028 BB68     		ldr	r3, [r7, #8]
 658 002a 1B68     		ldr	r3, [r3, #0]
 659 002c 002B     		cmp	r3, #0
 660 002e 0ADA     		bge	.L38
 146:controller.c  **** 		if (in >= -off) 
 661              		.loc 1 146 0
 662 0030 3B68     		ldr	r3, [r7, #0]
 663 0032 C3F10002 		rsb	r2, r3, #0
 664 0036 FB68     		ldr	r3, [r7, #12]
 665 0038 9A42     		cmp	r2, r3
 666 003a 24DC     		bgt	.L39
 147:controller.c  **** 			*output = 0;
 667              		.loc 1 147 0
 668 003c BB68     		ldr	r3, [r7, #8]
 669 003e 4FF00002 		mov	r2, #0
 670 0042 1A60     		str	r2, [r3, #0]
 671 0044 1FE0     		b	.L39
 672              	.L38:
 148:controller.c  **** 	}
 149:controller.c  **** 	else if (*output > 0) {
 673              		.loc 1 149 0
 674 0046 BB68     		ldr	r3, [r7, #8]
 675 0048 1B68     		ldr	r3, [r3, #0]
 676 004a 002B     		cmp	r3, #0
 677 004c 08DD     		ble	.L40
 150:controller.c  **** 		if (in <= off) 
 678              		.loc 1 150 0
 679 004e FA68     		ldr	r2, [r7, #12]
 680 0050 3B68     		ldr	r3, [r7, #0]
 681 0052 9A42     		cmp	r2, r3
 682 0054 17DC     		bgt	.L39
 151:controller.c  **** 			*output = 0;
 683              		.loc 1 151 0
 684 0056 BB68     		ldr	r3, [r7, #8]
 685 0058 4FF00002 		mov	r2, #0
 686 005c 1A60     		str	r2, [r3, #0]
 687 005e 12E0     		b	.L39
 688              	.L40:
 152:controller.c  **** 	}
 153:controller.c  **** 	else {
 154:controller.c  **** 		if (in > on) 
 689              		.loc 1 154 0
 690 0060 FA68     		ldr	r2, [r7, #12]
 691 0062 7B68     		ldr	r3, [r7, #4]
 692 0064 9A42     		cmp	r2, r3
ARM GAS  /tmp/cca3rJ37.s 			page 16


 693 0066 04DD     		ble	.L41
 155:controller.c  **** 			*output = 1;
 694              		.loc 1 155 0
 695 0068 BB68     		ldr	r3, [r7, #8]
 696 006a 4FF00102 		mov	r2, #1
 697 006e 1A60     		str	r2, [r3, #0]
 698 0070 09E0     		b	.L39
 699              	.L41:
 156:controller.c  **** 		else if (in < -on) 
 700              		.loc 1 156 0
 701 0072 7B68     		ldr	r3, [r7, #4]
 702 0074 C3F10002 		rsb	r2, r3, #0
 703 0078 FB68     		ldr	r3, [r7, #12]
 704 007a 9A42     		cmp	r2, r3
 705 007c 03DD     		ble	.L39
 157:controller.c  **** 			*output = -1;
 706              		.loc 1 157 0
 707 007e BB68     		ldr	r3, [r7, #8]
 708 0080 4FF0FF32 		mov	r2, #-1
 709 0084 1A60     		str	r2, [r3, #0]
 710              	.L39:
 158:controller.c  **** 	}
 159:controller.c  **** 	return *output;
 711              		.loc 1 159 0
 712 0086 BB68     		ldr	r3, [r7, #8]
 713 0088 1B68     		ldr	r3, [r3, #0]
 160:controller.c  **** }
 714              		.loc 1 160 0
 715 008a 1846     		mov	r0, r3
 716 008c 07F11407 		add	r7, r7, #20
 717 0090 BD46     		mov	sp, r7
 718 0092 80BC     		pop	{r7}
 719 0094 7047     		bx	lr
 720              		.cfi_endproc
 721              	.LFE5:
 722              		.size	tris, .-tris
 723 0096 00BF     		.section	.rodata
 724 0026 0000     		.align	2
 725              		.type	__FUNCTION__.4948, %object
 726              		.size	__FUNCTION__.4948, 9
 727              	__FUNCTION__.4948:
 728 0028 74726973 		.ascii	"tristate\000"
 728      74617465 
 728      00
 729 0031 000000   		.text
 730              	.Letext0:
 731              		.file 2 "/usr/local/Sourcery/bin/../lib/gcc/arm-none-eabi/4.6.1/../../../../arm-none-eabi/include/
 732              		.file 3 "controller.h"