ARM GAS  /tmp/ccHDvQwU.s 			page 1


   1              		.syntax unified
   2              		.cpu cortex-m3
   3              		.fpu softvfp
   4              		.eabi_attribute 20, 1
   5              		.eabi_attribute 21, 1
   6              		.eabi_attribute 23, 3
   7              		.eabi_attribute 24, 1
   8              		.eabi_attribute 25, 1
   9              		.eabi_attribute 26, 1
  10              		.eabi_attribute 30, 6
  11              		.eabi_attribute 34, 1
  12              		.eabi_attribute 18, 4
  13              		.thumb
  14              		.file	"led.c"
  15              		.text
  16              	.Ltext0:
  17              		.cfi_sections	.debug_frame
  18              		.section	.rodata
  19              		.align	2
  20              		.type	leds, %object
  21              		.size	leds, 24
  22              	leds:
  23 0000 00010000 		.word	256
  24 0004 000E0E40 		.word	1074662912
  25 0008 0B       		.byte	11
  26 0009 06       		.byte	6
  27 000a 00       		.byte	0
  28 000b 00       		.space	1
  29 000c 00000080 		.word	-2147483648
  30 0010 000E0E40 		.word	1074662912
  31 0014 0B       		.byte	11
  32 0015 06       		.byte	6
  33 0016 00       		.byte	0
  34 0017 00       		.space	1
  35              		.bss
  36              		.align	2
  37              	blinks:
  38 0000 00000000 		.space	8
  38      00000000 
  39              		.section	.text.blinkhandler,"ax",%progbits
  40              		.align	2
  41              		.global	blinkhandler
  42              		.thumb
  43              		.thumb_func
  44              		.type	blinkhandler, %function
  45              	blinkhandler:
  46              	.LFB35:
  47              		.file 1 "board/led.c"
   1:board/led.c   **** /*
   2:board/led.c   ****  * Blink LED routines.
   3:board/led.c   ****  *
   4:board/led.c   ****  */
   5:board/led.c   **** 
   6:board/led.c   **** #include <string.h>
   7:board/led.c   **** #include "board.h"
   8:board/led.c   **** 
   9:board/led.c   **** #define stoptimer()  TC_Stop(TC1, BLINK_TC)
ARM GAS  /tmp/ccHDvQwU.s 			page 2


  10:board/led.c   **** #define starttimer() TC_Start(TC1, BLINK_TC)
  11:board/led.c   **** 
  12:board/led.c   **** static const Pin leds[] = {PINS_LEDS};
  13:board/led.c   **** static volatile uint32_t blinks[LEDS_NUM];
  14:board/led.c   **** 
  15:board/led.c   **** /** To be called periodically **/
  16:board/led.c   **** void blinkhandler(uint32_t ms)
  17:board/led.c   **** {
  48              		.loc 1 17 0
  49              		.cfi_startproc
  50              		@ args = 0, pretend = 0, frame = 16
  51              		@ frame_needed = 1, uses_anonymous_args = 0
  52 0000 80B5     		push	{r7, lr}
  53              	.LCFI0:
  54              		.cfi_def_cfa_offset 8
  55              		.cfi_offset 14, -4
  56              		.cfi_offset 7, -8
  57 0002 84B0     		sub	sp, sp, #16
  58              	.LCFI1:
  59              		.cfi_def_cfa_offset 24
  60 0004 00AF     		add	r7, sp, #0
  61              	.LCFI2:
  62              		.cfi_def_cfa_register 7
  63 0006 7860     		str	r0, [r7, #4]
  18:board/led.c   **** 	if (ms % BLINK_TIME == 0) {
  64              		.loc 1 18 0
  65 0008 7A68     		ldr	r2, [r7, #4]
  66 000a 48F21F53 		movw	r3, #34079
  67 000e C5F2EB13 		movt	r3, 20971
  68 0012 A3FB0213 		umull	r1, r3, r3, r2
  69 0016 4FEA5313 		lsr	r3, r3, #5
  70 001a 4FF06401 		mov	r1, #100
  71 001e 01FB03F3 		mul	r3, r1, r3
  72 0022 D31A     		subs	r3, r2, r3
  73 0024 002B     		cmp	r3, #0
  74 0026 28D1     		bne	.L1
  75              	.LBB2:
  19:board/led.c   **** 
  20:board/led.c   **** 		uint32_t i;
  21:board/led.c   **** 
  22:board/led.c   **** 		for (i=0; i<LEDS_NUM; i++) {
  76              		.loc 1 22 0
  77 0028 4FF00003 		mov	r3, #0
  78 002c FB60     		str	r3, [r7, #12]
  79 002e 21E0     		b	.L3
  80              	.L5:
  23:board/led.c   **** 			if (blinks[i] > 0) {
  81              		.loc 1 23 0
  82 0030 40F20003 		movw	r3, #:lower16:blinks
  83 0034 C0F20003 		movt	r3, #:upper16:blinks
  84 0038 FA68     		ldr	r2, [r7, #12]
  85 003a 53F82230 		ldr	r3, [r3, r2, lsl #2]
  86 003e 002B     		cmp	r3, #0
  87 0040 14D0     		beq	.L4
  24:board/led.c   **** 				blinks[i]--; 
  88              		.loc 1 24 0
  89 0042 40F20003 		movw	r3, #:lower16:blinks
ARM GAS  /tmp/ccHDvQwU.s 			page 3


  90 0046 C0F20003 		movt	r3, #:upper16:blinks
  91 004a FA68     		ldr	r2, [r7, #12]
  92 004c 53F82230 		ldr	r3, [r3, r2, lsl #2]
  93 0050 03F1FF31 		add	r1, r3, #-1
  94 0054 40F20003 		movw	r3, #:lower16:blinks
  95 0058 C0F20003 		movt	r3, #:upper16:blinks
  96 005c FA68     		ldr	r2, [r7, #12]
  97 005e 43F82210 		str	r1, [r3, r2, lsl #2]
  25:board/led.c   **** 				LED_tgl(i);
  98              		.loc 1 25 0
  99 0062 FB68     		ldr	r3, [r7, #12]
 100 0064 DBB2     		uxtb	r3, r3
 101 0066 1846     		mov	r0, r3
 102 0068 FFF7FEFF 		bl	LED_tgl
 103              	.L4:
  22:board/led.c   **** 		for (i=0; i<LEDS_NUM; i++) {
 104              		.loc 1 22 0
 105 006c FB68     		ldr	r3, [r7, #12]
 106 006e 03F10103 		add	r3, r3, #1
 107 0072 FB60     		str	r3, [r7, #12]
 108              	.L3:
  22:board/led.c   **** 		for (i=0; i<LEDS_NUM; i++) {
 109              		.loc 1 22 0 is_stmt 0 discriminator 1
 110 0074 FB68     		ldr	r3, [r7, #12]
 111 0076 012B     		cmp	r3, #1
 112 0078 DAD9     		bls	.L5
 113              	.L1:
 114              	.LBE2:
  26:board/led.c   **** 			}
  27:board/led.c   **** 		}
  28:board/led.c   **** 	}
  29:board/led.c   **** }
 115              		.loc 1 29 0 is_stmt 1
 116 007a 07F11007 		add	r7, r7, #16
 117 007e BD46     		mov	sp, r7
 118 0080 80BD     		pop	{r7, pc}
 119              		.cfi_endproc
 120              	.LFE35:
 121              		.size	blinkhandler, .-blinkhandler
 122 0082 00BF     		.section	.text.LEDs_configure,"ax",%progbits
 123              		.align	2
 124              		.global	LEDs_configure
 125              		.thumb
 126              		.thumb_func
 127              		.type	LEDs_configure, %function
 128              	LEDs_configure:
 129              	.LFB36:
  30:board/led.c   **** 
  31:board/led.c   **** void LEDs_configure()
  32:board/led.c   **** {
 130              		.loc 1 32 0
 131              		.cfi_startproc
 132              		@ args = 0, pretend = 0, frame = 0
 133              		@ frame_needed = 1, uses_anonymous_args = 0
 134 0000 80B5     		push	{r7, lr}
 135              	.LCFI3:
 136              		.cfi_def_cfa_offset 8
ARM GAS  /tmp/ccHDvQwU.s 			page 4


 137              		.cfi_offset 14, -4
 138              		.cfi_offset 7, -8
 139 0002 00AF     		add	r7, sp, #0
 140              	.LCFI4:
 141              		.cfi_def_cfa_register 7
  33:board/led.c   **** 	PIO_Configure(leds, PIO_LISTSIZE(leds));
 142              		.loc 1 33 0
 143 0004 40F20000 		movw	r0, #:lower16:leds
 144 0008 C0F20000 		movt	r0, #:upper16:leds
 145 000c 4FF00201 		mov	r1, #2
 146 0010 FFF7FEFF 		bl	PIO_Configure
  34:board/led.c   **** }
 147              		.loc 1 34 0
 148 0014 80BD     		pop	{r7, pc}
 149              		.cfi_endproc
 150              	.LFE36:
 151              		.size	LEDs_configure, .-LEDs_configure
 152 0016 00BF     		.section	.rodata
 153              		.align	2
 154              	.LC0:
 155 0018 626F6172 		.ascii	"board/led.c\000"
 155      642F6C65 
 155      642E6300 
 156              		.align	2
 157              	.LC1:
 158 0024 6C656420 		.ascii	"led < LEDS_NUM\000"
 158      3C204C45 
 158      44535F4E 
 158      554D00
 159              		.section	.text.LED_tgl,"ax",%progbits
 160              		.align	2
 161              		.global	LED_tgl
 162              		.thumb
 163              		.thumb_func
 164              		.type	LED_tgl, %function
 165              	LED_tgl:
 166              	.LFB37:
  35:board/led.c   **** 
  36:board/led.c   **** void LED_tgl(uint8_t led)
  37:board/led.c   **** {
 167              		.loc 1 37 0
 168              		.cfi_startproc
 169              		@ args = 0, pretend = 0, frame = 16
 170              		@ frame_needed = 1, uses_anonymous_args = 0
 171 0000 80B5     		push	{r7, lr}
 172              	.LCFI5:
 173              		.cfi_def_cfa_offset 8
 174              		.cfi_offset 14, -4
 175              		.cfi_offset 7, -8
 176 0002 84B0     		sub	sp, sp, #16
 177              	.LCFI6:
 178              		.cfi_def_cfa_offset 24
 179 0004 00AF     		add	r7, sp, #0
 180              	.LCFI7:
 181              		.cfi_def_cfa_register 7
 182 0006 0346     		mov	r3, r0
 183 0008 FB71     		strb	r3, [r7, #7]
ARM GAS  /tmp/ccHDvQwU.s 			page 5


  38:board/led.c   **** 	uint32_t mask;
  39:board/led.c   **** 	Pio *pio;
  40:board/led.c   **** 
  41:board/led.c   **** 	assert(led < LEDS_NUM);
 184              		.loc 1 41 0
 185 000a FB79     		ldrb	r3, [r7, #7]	@ zero_extendqisi2
 186 000c 012B     		cmp	r3, #1
 187 000e 0FD9     		bls	.L8
 188              		.loc 1 41 0 is_stmt 0 discriminator 1
 189 0010 40F20000 		movw	r0, #:lower16:.LC0
 190 0014 C0F20000 		movt	r0, #:upper16:.LC0
 191 0018 4FF02901 		mov	r1, #41
 192 001c 40F20002 		movw	r2, #:lower16:__FUNCTION__.7525
 193 0020 C0F20002 		movt	r2, #:upper16:__FUNCTION__.7525
 194 0024 40F20003 		movw	r3, #:lower16:.LC1
 195 0028 C0F20003 		movt	r3, #:upper16:.LC1
 196 002c FFF7FEFF 		bl	__assert_func
 197              	.L8:
  42:board/led.c   **** 
  43:board/led.c   **** 	pio  = leds[led].pio;
 198              		.loc 1 43 0 is_stmt 1
 199 0030 F979     		ldrb	r1, [r7, #7]	@ zero_extendqisi2
 200 0032 40F20002 		movw	r2, #:lower16:leds
 201 0036 C0F20002 		movt	r2, #:upper16:leds
 202 003a 0B46     		mov	r3, r1
 203 003c 4FEA4303 		lsl	r3, r3, #1
 204 0040 5B18     		adds	r3, r3, r1
 205 0042 4FEA8303 		lsl	r3, r3, #2
 206 0046 D318     		adds	r3, r2, r3
 207 0048 03F10403 		add	r3, r3, #4
 208 004c 1B68     		ldr	r3, [r3, #0]
 209 004e FB60     		str	r3, [r7, #12]
  44:board/led.c   **** 	mask = leds[led].mask;
 210              		.loc 1 44 0
 211 0050 F979     		ldrb	r1, [r7, #7]	@ zero_extendqisi2
 212 0052 40F20002 		movw	r2, #:lower16:leds
 213 0056 C0F20002 		movt	r2, #:upper16:leds
 214 005a 0B46     		mov	r3, r1
 215 005c 4FEA4303 		lsl	r3, r3, #1
 216 0060 5B18     		adds	r3, r3, r1
 217 0062 4FEA8303 		lsl	r3, r3, #2
 218 0066 D318     		adds	r3, r2, r3
 219 0068 1B68     		ldr	r3, [r3, #0]
 220 006a BB60     		str	r3, [r7, #8]
  45:board/led.c   **** 
  46:board/led.c   **** 	if (pio->PIO_ODSR & mask)
 221              		.loc 1 46 0
 222 006c FB68     		ldr	r3, [r7, #12]
 223 006e 9A6B     		ldr	r2, [r3, #56]
 224 0070 BB68     		ldr	r3, [r7, #8]
 225 0072 1340     		ands	r3, r3, r2
 226 0074 002B     		cmp	r3, #0
 227 0076 03D0     		beq	.L9
  47:board/led.c   **** 		pio->PIO_CODR = mask;
 228              		.loc 1 47 0
 229 0078 FB68     		ldr	r3, [r7, #12]
 230 007a BA68     		ldr	r2, [r7, #8]
ARM GAS  /tmp/ccHDvQwU.s 			page 6


 231 007c 5A63     		str	r2, [r3, #52]
 232 007e 02E0     		b	.L7
 233              	.L9:
  48:board/led.c   **** 	else 
  49:board/led.c   **** 		pio->PIO_SODR = mask;
 234              		.loc 1 49 0
 235 0080 FB68     		ldr	r3, [r7, #12]
 236 0082 BA68     		ldr	r2, [r7, #8]
 237 0084 1A63     		str	r2, [r3, #48]
 238              	.L7:
  50:board/led.c   **** }
 239              		.loc 1 50 0
 240 0086 07F11007 		add	r7, r7, #16
 241 008a BD46     		mov	sp, r7
 242 008c 80BD     		pop	{r7, pc}
 243              		.cfi_endproc
 244              	.LFE37:
 245              		.size	LED_tgl, .-LED_tgl
 246 008e 00BF     		.section	.text.LED_set,"ax",%progbits
 247              		.align	2
 248              		.global	LED_set
 249              		.thumb
 250              		.thumb_func
 251              		.type	LED_set, %function
 252              	LED_set:
 253              	.LFB38:
  51:board/led.c   **** 
  52:board/led.c   **** void LED_set(uint8_t led)
  53:board/led.c   **** {
 254              		.loc 1 53 0
 255              		.cfi_startproc
 256              		@ args = 0, pretend = 0, frame = 16
 257              		@ frame_needed = 1, uses_anonymous_args = 0
 258 0000 80B5     		push	{r7, lr}
 259              	.LCFI8:
 260              		.cfi_def_cfa_offset 8
 261              		.cfi_offset 14, -4
 262              		.cfi_offset 7, -8
 263 0002 84B0     		sub	sp, sp, #16
 264              	.LCFI9:
 265              		.cfi_def_cfa_offset 24
 266 0004 00AF     		add	r7, sp, #0
 267              	.LCFI10:
 268              		.cfi_def_cfa_register 7
 269 0006 0346     		mov	r3, r0
 270 0008 FB71     		strb	r3, [r7, #7]
  54:board/led.c   **** 	Pio *pio;
  55:board/led.c   **** 	uint32_t mask;
  56:board/led.c   **** 
  57:board/led.c   **** 	assert(led < LEDS_NUM);
 271              		.loc 1 57 0
 272 000a FB79     		ldrb	r3, [r7, #7]	@ zero_extendqisi2
 273 000c 012B     		cmp	r3, #1
 274 000e 0FD9     		bls	.L12
 275              		.loc 1 57 0 is_stmt 0 discriminator 1
 276 0010 40F20000 		movw	r0, #:lower16:.LC0
 277 0014 C0F20000 		movt	r0, #:upper16:.LC0
ARM GAS  /tmp/ccHDvQwU.s 			page 7


 278 0018 4FF03901 		mov	r1, #57
 279 001c 40F20002 		movw	r2, #:lower16:__FUNCTION__.7531
 280 0020 C0F20002 		movt	r2, #:upper16:__FUNCTION__.7531
 281 0024 40F20003 		movw	r3, #:lower16:.LC1
 282 0028 C0F20003 		movt	r3, #:upper16:.LC1
 283 002c FFF7FEFF 		bl	__assert_func
 284              	.L12:
  58:board/led.c   **** 
  59:board/led.c   **** 	pio  = leds[led].pio;
 285              		.loc 1 59 0 is_stmt 1
 286 0030 F979     		ldrb	r1, [r7, #7]	@ zero_extendqisi2
 287 0032 40F20002 		movw	r2, #:lower16:leds
 288 0036 C0F20002 		movt	r2, #:upper16:leds
 289 003a 0B46     		mov	r3, r1
 290 003c 4FEA4303 		lsl	r3, r3, #1
 291 0040 5B18     		adds	r3, r3, r1
 292 0042 4FEA8303 		lsl	r3, r3, #2
 293 0046 D318     		adds	r3, r2, r3
 294 0048 03F10403 		add	r3, r3, #4
 295 004c 1B68     		ldr	r3, [r3, #0]
 296 004e FB60     		str	r3, [r7, #12]
  60:board/led.c   **** 	mask = leds[led].mask;
 297              		.loc 1 60 0
 298 0050 F979     		ldrb	r1, [r7, #7]	@ zero_extendqisi2
 299 0052 40F20002 		movw	r2, #:lower16:leds
 300 0056 C0F20002 		movt	r2, #:upper16:leds
 301 005a 0B46     		mov	r3, r1
 302 005c 4FEA4303 		lsl	r3, r3, #1
 303 0060 5B18     		adds	r3, r3, r1
 304 0062 4FEA8303 		lsl	r3, r3, #2
 305 0066 D318     		adds	r3, r2, r3
 306 0068 1B68     		ldr	r3, [r3, #0]
 307 006a BB60     		str	r3, [r7, #8]
  61:board/led.c   **** 	pio->PIO_SODR = mask;
 308              		.loc 1 61 0
 309 006c FB68     		ldr	r3, [r7, #12]
 310 006e BA68     		ldr	r2, [r7, #8]
 311 0070 1A63     		str	r2, [r3, #48]
  62:board/led.c   **** }
 312              		.loc 1 62 0
 313 0072 07F11007 		add	r7, r7, #16
 314 0076 BD46     		mov	sp, r7
 315 0078 80BD     		pop	{r7, pc}
 316              		.cfi_endproc
 317              	.LFE38:
 318              		.size	LED_set, .-LED_set
 319 007a 00BF     		.section	.text.LED_clr,"ax",%progbits
 320              		.align	2
 321              		.global	LED_clr
 322              		.thumb
 323              		.thumb_func
 324              		.type	LED_clr, %function
 325              	LED_clr:
 326              	.LFB39:
  63:board/led.c   **** 
  64:board/led.c   **** void LED_clr(uint8_t led)
  65:board/led.c   **** {
ARM GAS  /tmp/ccHDvQwU.s 			page 8


 327              		.loc 1 65 0
 328              		.cfi_startproc
 329              		@ args = 0, pretend = 0, frame = 16
 330              		@ frame_needed = 1, uses_anonymous_args = 0
 331 0000 80B5     		push	{r7, lr}
 332              	.LCFI11:
 333              		.cfi_def_cfa_offset 8
 334              		.cfi_offset 14, -4
 335              		.cfi_offset 7, -8
 336 0002 84B0     		sub	sp, sp, #16
 337              	.LCFI12:
 338              		.cfi_def_cfa_offset 24
 339 0004 00AF     		add	r7, sp, #0
 340              	.LCFI13:
 341              		.cfi_def_cfa_register 7
 342 0006 0346     		mov	r3, r0
 343 0008 FB71     		strb	r3, [r7, #7]
  66:board/led.c   **** 	Pio *pio;
  67:board/led.c   **** 	uint32_t mask;
  68:board/led.c   **** 
  69:board/led.c   **** 	assert(led < LEDS_NUM);
 344              		.loc 1 69 0
 345 000a FB79     		ldrb	r3, [r7, #7]	@ zero_extendqisi2
 346 000c 012B     		cmp	r3, #1
 347 000e 0FD9     		bls	.L14
 348              		.loc 1 69 0 is_stmt 0 discriminator 1
 349 0010 40F20000 		movw	r0, #:lower16:.LC0
 350 0014 C0F20000 		movt	r0, #:upper16:.LC0
 351 0018 4FF04501 		mov	r1, #69
 352 001c 40F20002 		movw	r2, #:lower16:__FUNCTION__.7537
 353 0020 C0F20002 		movt	r2, #:upper16:__FUNCTION__.7537
 354 0024 40F20003 		movw	r3, #:lower16:.LC1
 355 0028 C0F20003 		movt	r3, #:upper16:.LC1
 356 002c FFF7FEFF 		bl	__assert_func
 357              	.L14:
  70:board/led.c   **** 
  71:board/led.c   **** 	pio  = leds[led].pio;
 358              		.loc 1 71 0 is_stmt 1
 359 0030 F979     		ldrb	r1, [r7, #7]	@ zero_extendqisi2
 360 0032 40F20002 		movw	r2, #:lower16:leds
 361 0036 C0F20002 		movt	r2, #:upper16:leds
 362 003a 0B46     		mov	r3, r1
 363 003c 4FEA4303 		lsl	r3, r3, #1
 364 0040 5B18     		adds	r3, r3, r1
 365 0042 4FEA8303 		lsl	r3, r3, #2
 366 0046 D318     		adds	r3, r2, r3
 367 0048 03F10403 		add	r3, r3, #4
 368 004c 1B68     		ldr	r3, [r3, #0]
 369 004e FB60     		str	r3, [r7, #12]
  72:board/led.c   **** 	mask = leds[led].mask;
 370              		.loc 1 72 0
 371 0050 F979     		ldrb	r1, [r7, #7]	@ zero_extendqisi2
 372 0052 40F20002 		movw	r2, #:lower16:leds
 373 0056 C0F20002 		movt	r2, #:upper16:leds
 374 005a 0B46     		mov	r3, r1
 375 005c 4FEA4303 		lsl	r3, r3, #1
 376 0060 5B18     		adds	r3, r3, r1
ARM GAS  /tmp/ccHDvQwU.s 			page 9


 377 0062 4FEA8303 		lsl	r3, r3, #2
 378 0066 D318     		adds	r3, r2, r3
 379 0068 1B68     		ldr	r3, [r3, #0]
 380 006a BB60     		str	r3, [r7, #8]
  73:board/led.c   **** 	pio->PIO_CODR = mask;
 381              		.loc 1 73 0
 382 006c FB68     		ldr	r3, [r7, #12]
 383 006e BA68     		ldr	r2, [r7, #8]
 384 0070 5A63     		str	r2, [r3, #52]
  74:board/led.c   **** }
 385              		.loc 1 74 0
 386 0072 07F11007 		add	r7, r7, #16
 387 0076 BD46     		mov	sp, r7
 388 0078 80BD     		pop	{r7, pc}
 389              		.cfi_endproc
 390              	.LFE39:
 391              		.size	LED_clr, .-LED_clr
 392 007a 00BF     		.section	.text.LED_get,"ax",%progbits
 393              		.align	2
 394              		.global	LED_get
 395              		.thumb
 396              		.thumb_func
 397              		.type	LED_get, %function
 398              	LED_get:
 399              	.LFB40:
  75:board/led.c   **** 
  76:board/led.c   **** uint8_t LED_get(uint8_t led)
  77:board/led.c   **** {
 400              		.loc 1 77 0
 401              		.cfi_startproc
 402              		@ args = 0, pretend = 0, frame = 16
 403              		@ frame_needed = 1, uses_anonymous_args = 0
 404 0000 80B5     		push	{r7, lr}
 405              	.LCFI14:
 406              		.cfi_def_cfa_offset 8
 407              		.cfi_offset 14, -4
 408              		.cfi_offset 7, -8
 409 0002 84B0     		sub	sp, sp, #16
 410              	.LCFI15:
 411              		.cfi_def_cfa_offset 24
 412 0004 00AF     		add	r7, sp, #0
 413              	.LCFI16:
 414              		.cfi_def_cfa_register 7
 415 0006 0346     		mov	r3, r0
 416 0008 FB71     		strb	r3, [r7, #7]
  78:board/led.c   **** 	Pio *pio;
  79:board/led.c   **** 	uint32_t mask;
  80:board/led.c   **** 
  81:board/led.c   **** 	assert(led < LEDS_NUM);
 417              		.loc 1 81 0
 418 000a FB79     		ldrb	r3, [r7, #7]	@ zero_extendqisi2
 419 000c 012B     		cmp	r3, #1
 420 000e 0FD9     		bls	.L16
 421              		.loc 1 81 0 is_stmt 0 discriminator 1
 422 0010 40F20000 		movw	r0, #:lower16:.LC0
 423 0014 C0F20000 		movt	r0, #:upper16:.LC0
 424 0018 4FF05101 		mov	r1, #81
ARM GAS  /tmp/ccHDvQwU.s 			page 10


 425 001c 40F20002 		movw	r2, #:lower16:__FUNCTION__.7543
 426 0020 C0F20002 		movt	r2, #:upper16:__FUNCTION__.7543
 427 0024 40F20003 		movw	r3, #:lower16:.LC1
 428 0028 C0F20003 		movt	r3, #:upper16:.LC1
 429 002c FFF7FEFF 		bl	__assert_func
 430              	.L16:
  82:board/led.c   **** 
  83:board/led.c   **** 	pio  = leds[led].pio;
 431              		.loc 1 83 0 is_stmt 1
 432 0030 F979     		ldrb	r1, [r7, #7]	@ zero_extendqisi2
 433 0032 40F20002 		movw	r2, #:lower16:leds
 434 0036 C0F20002 		movt	r2, #:upper16:leds
 435 003a 0B46     		mov	r3, r1
 436 003c 4FEA4303 		lsl	r3, r3, #1
 437 0040 5B18     		adds	r3, r3, r1
 438 0042 4FEA8303 		lsl	r3, r3, #2
 439 0046 D318     		adds	r3, r2, r3
 440 0048 03F10403 		add	r3, r3, #4
 441 004c 1B68     		ldr	r3, [r3, #0]
 442 004e FB60     		str	r3, [r7, #12]
  84:board/led.c   **** 	mask = leds[led].mask;
 443              		.loc 1 84 0
 444 0050 F979     		ldrb	r1, [r7, #7]	@ zero_extendqisi2
 445 0052 40F20002 		movw	r2, #:lower16:leds
 446 0056 C0F20002 		movt	r2, #:upper16:leds
 447 005a 0B46     		mov	r3, r1
 448 005c 4FEA4303 		lsl	r3, r3, #1
 449 0060 5B18     		adds	r3, r3, r1
 450 0062 4FEA8303 		lsl	r3, r3, #2
 451 0066 D318     		adds	r3, r2, r3
 452 0068 1B68     		ldr	r3, [r3, #0]
 453 006a BB60     		str	r3, [r7, #8]
  85:board/led.c   **** 	return (uint8_t) (pio->PIO_ODSR & mask);
 454              		.loc 1 85 0
 455 006c FB68     		ldr	r3, [r7, #12]
 456 006e 9B6B     		ldr	r3, [r3, #56]
 457 0070 DAB2     		uxtb	r2, r3
 458 0072 BB68     		ldr	r3, [r7, #8]
 459 0074 DBB2     		uxtb	r3, r3
 460 0076 1340     		ands	r3, r3, r2
 461 0078 DBB2     		uxtb	r3, r3
  86:board/led.c   **** }
 462              		.loc 1 86 0
 463 007a 1846     		mov	r0, r3
 464 007c 07F11007 		add	r7, r7, #16
 465 0080 BD46     		mov	sp, r7
 466 0082 80BD     		pop	{r7, pc}
 467              		.cfi_endproc
 468              	.LFE40:
 469              		.size	LED_get, .-LED_get
 470              		.section	.text.LED_blink,"ax",%progbits
 471              		.align	2
 472              		.global	LED_blink
 473              		.thumb
 474              		.thumb_func
 475              		.type	LED_blink, %function
 476              	LED_blink:
ARM GAS  /tmp/ccHDvQwU.s 			page 11


 477              	.LFB41:
  87:board/led.c   **** 
  88:board/led.c   **** /*
  89:board/led.c   ****  * Flash LED 'num' times (non-blocking).
  90:board/led.c   ****  */
  91:board/led.c   **** void LED_blink(uint8_t led, uint32_t num)
  92:board/led.c   **** {
 478              		.loc 1 92 0
 479              		.cfi_startproc
 480              		@ args = 0, pretend = 0, frame = 8
 481              		@ frame_needed = 1, uses_anonymous_args = 0
 482              		@ link register save eliminated.
 483 0000 80B4     		push	{r7}
 484              	.LCFI17:
 485              		.cfi_def_cfa_offset 4
 486              		.cfi_offset 7, -4
 487 0002 83B0     		sub	sp, sp, #12
 488              	.LCFI18:
 489              		.cfi_def_cfa_offset 16
 490 0004 00AF     		add	r7, sp, #0
 491              	.LCFI19:
 492              		.cfi_def_cfa_register 7
 493 0006 0346     		mov	r3, r0
 494 0008 3960     		str	r1, [r7, #0]
 495 000a FB71     		strb	r3, [r7, #7]
  93:board/led.c   **** 	blinks[led] += 2*num;
 496              		.loc 1 93 0
 497 000c FA79     		ldrb	r2, [r7, #7]	@ zero_extendqisi2
 498 000e F979     		ldrb	r1, [r7, #7]	@ zero_extendqisi2
 499 0010 40F20003 		movw	r3, #:lower16:blinks
 500 0014 C0F20003 		movt	r3, #:upper16:blinks
 501 0018 53F82110 		ldr	r1, [r3, r1, lsl #2]
 502 001c 3B68     		ldr	r3, [r7, #0]
 503 001e 4FEA4303 		lsl	r3, r3, #1
 504 0022 C918     		adds	r1, r1, r3
 505 0024 40F20003 		movw	r3, #:lower16:blinks
 506 0028 C0F20003 		movt	r3, #:upper16:blinks
 507 002c 43F82210 		str	r1, [r3, r2, lsl #2]
  94:board/led.c   **** }
 508              		.loc 1 94 0
 509 0030 07F10C07 		add	r7, r7, #12
 510 0034 BD46     		mov	sp, r7
 511 0036 80BC     		pop	{r7}
 512 0038 7047     		bx	lr
 513              		.cfi_endproc
 514              	.LFE41:
 515              		.size	LED_blink, .-LED_blink
 516 003a 00BF     		.section	.text.LED_blinkwait,"ax",%progbits
 517              		.align	2
 518              		.global	LED_blinkwait
 519              		.thumb
 520              		.thumb_func
 521              		.type	LED_blinkwait, %function
 522              	LED_blinkwait:
 523              	.LFB42:
  95:board/led.c   **** 
  96:board/led.c   **** /*
ARM GAS  /tmp/ccHDvQwU.s 			page 12


  97:board/led.c   ****  * Flash LED 'num' times (blocking).
  98:board/led.c   ****  */
  99:board/led.c   **** void LED_blinkwait(uint8_t led, uint32_t num)
 100:board/led.c   **** {
 524              		.loc 1 100 0
 525              		.cfi_startproc
 526              		@ args = 0, pretend = 0, frame = 8
 527              		@ frame_needed = 1, uses_anonymous_args = 0
 528 0000 80B5     		push	{r7, lr}
 529              	.LCFI20:
 530              		.cfi_def_cfa_offset 8
 531              		.cfi_offset 14, -4
 532              		.cfi_offset 7, -8
 533 0002 82B0     		sub	sp, sp, #8
 534              	.LCFI21:
 535              		.cfi_def_cfa_offset 16
 536 0004 00AF     		add	r7, sp, #0
 537              	.LCFI22:
 538              		.cfi_def_cfa_register 7
 539 0006 0346     		mov	r3, r0
 540 0008 3960     		str	r1, [r7, #0]
 541 000a FB71     		strb	r3, [r7, #7]
 101:board/led.c   **** 	LED_blink(led, num);
 542              		.loc 1 101 0
 543 000c FB79     		ldrb	r3, [r7, #7]	@ zero_extendqisi2
 544 000e 1846     		mov	r0, r3
 545 0010 3968     		ldr	r1, [r7, #0]
 546 0012 FFF7FEFF 		bl	LED_blink
 102:board/led.c   **** 	while(LED_blinking(led));
 547              		.loc 1 102 0
 548 0016 00BF     		nop
 549              	.L19:
 550              		.loc 1 102 0 is_stmt 0 discriminator 1
 551 0018 FB79     		ldrb	r3, [r7, #7]	@ zero_extendqisi2
 552 001a 1846     		mov	r0, r3
 553 001c FFF7FEFF 		bl	LED_blinking
 554 0020 0346     		mov	r3, r0
 555 0022 002B     		cmp	r3, #0
 556 0024 F8D1     		bne	.L19
 103:board/led.c   **** }
 557              		.loc 1 103 0 is_stmt 1
 558 0026 07F10807 		add	r7, r7, #8
 559 002a BD46     		mov	sp, r7
 560 002c 80BD     		pop	{r7, pc}
 561              		.cfi_endproc
 562              	.LFE42:
 563              		.size	LED_blinkwait, .-LED_blinkwait
 564 002e 00BF     		.section	.text.LED_blinkstop,"ax",%progbits
 565              		.align	2
 566              		.global	LED_blinkstop
 567              		.thumb
 568              		.thumb_func
 569              		.type	LED_blinkstop, %function
 570              	LED_blinkstop:
 571              	.LFB43:
 104:board/led.c   **** 
 105:board/led.c   **** /*
ARM GAS  /tmp/ccHDvQwU.s 			page 13


 106:board/led.c   ****  * Stop flashing.
 107:board/led.c   ****  */
 108:board/led.c   **** void LED_blinkstop(uint8_t led)
 109:board/led.c   **** {
 572              		.loc 1 109 0
 573              		.cfi_startproc
 574              		@ args = 0, pretend = 0, frame = 8
 575              		@ frame_needed = 1, uses_anonymous_args = 0
 576              		@ link register save eliminated.
 577 0000 80B4     		push	{r7}
 578              	.LCFI23:
 579              		.cfi_def_cfa_offset 4
 580              		.cfi_offset 7, -4
 581 0002 83B0     		sub	sp, sp, #12
 582              	.LCFI24:
 583              		.cfi_def_cfa_offset 16
 584 0004 00AF     		add	r7, sp, #0
 585              	.LCFI25:
 586              		.cfi_def_cfa_register 7
 587 0006 0346     		mov	r3, r0
 588 0008 FB71     		strb	r3, [r7, #7]
 110:board/led.c   **** 	blinks[led] = 0;
 589              		.loc 1 110 0
 590 000a FA79     		ldrb	r2, [r7, #7]	@ zero_extendqisi2
 591 000c 40F20003 		movw	r3, #:lower16:blinks
 592 0010 C0F20003 		movt	r3, #:upper16:blinks
 593 0014 4FF00001 		mov	r1, #0
 594 0018 43F82210 		str	r1, [r3, r2, lsl #2]
 111:board/led.c   **** }
 595              		.loc 1 111 0
 596 001c 07F10C07 		add	r7, r7, #12
 597 0020 BD46     		mov	sp, r7
 598 0022 80BC     		pop	{r7}
 599 0024 7047     		bx	lr
 600              		.cfi_endproc
 601              	.LFE43:
 602              		.size	LED_blinkstop, .-LED_blinkstop
 603 0026 00BF     		.section	.text.LED_blinking,"ax",%progbits
 604              		.align	2
 605              		.global	LED_blinking
 606              		.thumb
 607              		.thumb_func
 608              		.type	LED_blinking, %function
 609              	LED_blinking:
 610              	.LFB44:
 112:board/led.c   **** 
 113:board/led.c   **** /*
 114:board/led.c   ****  * Check if LED is flashing
 115:board/led.c   ****  */
 116:board/led.c   **** uint8_t LED_blinking(uint8_t led)
 117:board/led.c   **** {
 611              		.loc 1 117 0
 612              		.cfi_startproc
 613              		@ args = 0, pretend = 0, frame = 8
 614              		@ frame_needed = 1, uses_anonymous_args = 0
 615              		@ link register save eliminated.
 616 0000 80B4     		push	{r7}
ARM GAS  /tmp/ccHDvQwU.s 			page 14


 617              	.LCFI26:
 618              		.cfi_def_cfa_offset 4
 619              		.cfi_offset 7, -4
 620 0002 83B0     		sub	sp, sp, #12
 621              	.LCFI27:
 622              		.cfi_def_cfa_offset 16
 623 0004 00AF     		add	r7, sp, #0
 624              	.LCFI28:
 625              		.cfi_def_cfa_register 7
 626 0006 0346     		mov	r3, r0
 627 0008 FB71     		strb	r3, [r7, #7]
 118:board/led.c   **** 	return (uint8_t) blinks[led];
 628              		.loc 1 118 0
 629 000a FA79     		ldrb	r2, [r7, #7]	@ zero_extendqisi2
 630 000c 40F20003 		movw	r3, #:lower16:blinks
 631 0010 C0F20003 		movt	r3, #:upper16:blinks
 632 0014 53F82230 		ldr	r3, [r3, r2, lsl #2]
 633 0018 DBB2     		uxtb	r3, r3
 119:board/led.c   **** }
 634              		.loc 1 119 0
 635 001a 1846     		mov	r0, r3
 636 001c 07F10C07 		add	r7, r7, #12
 637 0020 BD46     		mov	sp, r7
 638 0022 80BC     		pop	{r7}
 639 0024 7047     		bx	lr
 640              		.cfi_endproc
 641              	.LFE44:
 642              		.size	LED_blinking, .-LED_blinking
 643 0026 00BF     		.section	.rodata
 644 0033 00       		.align	2
 645              		.type	__FUNCTION__.7543, %object
 646              		.size	__FUNCTION__.7543, 8
 647              	__FUNCTION__.7543:
 648 0034 4C45445F 		.ascii	"LED_get\000"
 648      67657400 
 649              		.align	2
 650              		.type	__FUNCTION__.7537, %object
 651              		.size	__FUNCTION__.7537, 8
 652              	__FUNCTION__.7537:
 653 003c 4C45445F 		.ascii	"LED_clr\000"
 653      636C7200 
 654              		.align	2
 655              		.type	__FUNCTION__.7531, %object
 656              		.size	__FUNCTION__.7531, 8
 657              	__FUNCTION__.7531:
 658 0044 4C45445F 		.ascii	"LED_set\000"
 658      73657400 
 659              		.align	2
 660              		.type	__FUNCTION__.7525, %object
 661              		.size	__FUNCTION__.7525, 8
 662              	__FUNCTION__.7525:
 663 004c 4C45445F 		.ascii	"LED_tgl\000"
 663      74676C00 
 664              		.text
 665              	.Letext0:
 666              		.file 2 "/usr/local/Sourcery/bin/../lib/gcc/arm-none-eabi/4.6.1/../../../../arm-none-eabi/include/
 667              		.file 3 "libchip/include/SAM3S.h"
ARM GAS  /tmp/ccHDvQwU.s 			page 15


 668              		.file 4 "libchip/include/pio.h"
 669              		.file 5 "libchip/cmsis/core_cm3.h"