ARM GAS  /tmp/ccHDvQwU.s 			page 1


   1              		.syntax unified
   2              		.cpu cortex-m3
   3              		.fpu softvfp
   4              		.eabi_attribute 20, 1
   5              		.eabi_attribute 21, 1
   6              		.eabi_attribute 23, 3
   7              		.eabi_attribute 24, 1
   8              		.eabi_attribute 25, 1
   9              		.eabi_attribute 26, 1
  10              		.eabi_attribute 30, 6
  11              		.eabi_attribute 34, 1
  12              		.eabi_attribute 18, 4
  13              		.thumb
  14              		.file	"led.c"
  15              		.text
  16              	.Ltext0:
  17              		.cfi_sections	.debug_frame
  18              		.section	.rodata
  19              		.align	2
  20              		.type	leds, %object
  21              		.size	leds, 24
  22              	leds:
  23 0000 00010000 		.word	256
  24 0004 000E0E40 		.word	1074662912
  25 0008 0B       		.byte	11
  26 0009 06       		.byte	6
  27 000a 00       		.byte	0
  28 000b 00       		.space	1
  29 000c 00000080 		.word	-2147483648
  30 0010 000E0E40 		.word	1074662912
  31 0014 0B       		.byte	11
  32 0015 06       		.byte	6
  33 0016 00       		.byte	0
  34 0017 00       		.space	1
  35              		.bss
  36              		.align	2
  37              	blinks:
  38 0000 00000000 		.space	8
  38      00000000 
  39              		.section	.text.blinkhandler,"ax",%progbits
  40              		.align	2
  41              		.global	blinkhandler
  42              		.thumb
  43              		.thumb_func
  44              		.type	blinkhandler, %function
  45              	blinkhandler:
  46              	.LFB35:
  47              		.file 1 "board/led.c"
   1:board/led.c   **** /*
   2:board/led.c   ****  * Blink LED routines.
   3:board/led.c   ****  *
   4:board/led.c   ****  */
   5:board/led.c   **** 
   6:board/led.c   **** #include <string.h>
   7:board/led.c   **** #include "board.h"
   8:board/led.c   **** 
   9:board/led.c   **** #define stoptimer()  TC_Stop(TC1, BLINK_TC)
ARM GAS  /tmp/ccHDvQwU.s 			page 2


  10:board/led.c   **** #define starttimer() TC_Start(TC1, BLINK_TC)
  11:board/led.c   **** 
  12:board/led.c   **** static const Pin leds[] = {PINS_LEDS};
  13:board/led.c   **** static volatile uint32_t blinks[LEDS_NUM];
  14:board/led.c   **** 
  15:board/led.c   **** /** To be called periodically **/
  16:board/led.c   **** void blinkhandler(uint32_t ms)
  17:board/led.c   **** {
  48              		.loc 1 17 0
  49              		.cfi_startproc
  50              		@ args = 0, pretend = 0, frame = 16
  51              		@ frame_needed = 1, uses_anonymous_args = 0
  52 0000 80B5     		push	{r7, lr}
  53              	.LCFI0:
  54              		.cfi_def_cfa_offset 8
  55              		.cfi_offset 14, -4
  56              		.cfi_offset 7, -8
  57 0002 84B0     		sub	sp, sp, #16
  58              	.LCFI1:
  59              		.cfi_def_cfa_offset 24
  60 0004 00AF     		add	r7, sp, #0
  61              	.LCFI2:
  62              		.cfi_def_cfa_register 7
  63 0006 7860     		str	r0, [r7, #4]
  18:board/led.c   **** 	if (ms % BLINK_TIME == 0) {
  64              		.loc 1 18 0
  65 0008 7A68     		ldr	r2, [r7, #4]
  66 000a 48F21F53 		movw	r3, #34079
  67 000e C5F2EB13 		movt	r3, 20971
  68 0012 A3FB0213 		umull	r1, r3, r3, r2
  69 0016 4FEA5313 		lsr	r3, r3, #5
  70 001a 4FF06401 		mov	r1, #100
  71 001e 01FB03F3 		mul	r3, r1, r3
  72 0022 D31A     		subs	r3, r2, r3
  73 0024 002B     		cmp	r3, #0
  74 0026 28D1     		bne	.L1
  75              	.LBB2:
  19:board/led.c   **** 
  20:board/led.c   **** 		uint32_t i;
  21:board/led.c   **** 
  22:board/led.c   **** 		for (i=0; i<LEDS_NUM; i++) {
  76              		.loc 1 22 0
  77 0028 4FF00003 		mov	r3, #0
  78 002c FB60     		str	r3, [r7, #12]
  79 002e 21E0     		b	.L3
  80              	.L5:
  23:board/led.c   **** 			if (blinks[i] > 0) {
  81              		.loc 1 23 0
  82 0030 40F20003 		movw	r3, #:lower16:blinks
  83 0034 C0F20003 		movt	r3, #:upper16:blinks
  84 0038 FA68     		ldr	r2, [r7, #12]
  85 003a 53F82230 		ldr	r3, [r3, r2, lsl #2]
  86 003e 002B     		cmp	r3, #0
  87 0040 14D0     		beq	.L4
  24:board/led.c   **** 				blinks[i]--; 
  88              		.loc 1 24 0
  89 0042 40F20003 		movw	r3, #:lower16:blinks
ARM GAS  /tmp/ccHDvQwU.s 			page 3


  90 0046 C0F20003 		movt	r3, #:upper16:blinks
  91 004a FA68     		ldr	r2, [r7, #12]
  92 004c 53F82230 		ldr	r3, [r3, r2, lsl #2]
  93 0050 03F1FF31 		add	r1, r3, #-1
  94 0054 40F20003 		movw	r3, #:lower16:blinks
  95 0058 C0F20003 		movt	r3, #:upper16:blinks
  96 005c FA68     		ldr	r2, [r7, #12]
  97 005e 43F82210 		str	r1, [r3, r2, lsl #2]
  25:board/led.c   **** 				LED_tgl(i);
  98              		.loc 1 25 0
  99 0062 FB68     		ldr	r3, [r7, #12]
 100 0064 DBB2     		uxtb	r3, r3
 101 0066 1846     		mov	r0, r3
 102 0068 FFF7FEFF 		bl	LED_tgl
 103              	.L4:
  22:board/led.c   **** 		for (i=0; i<LEDS_NUM; i++) {
 104              		.loc 1 22 0
 105 006c FB68     		ldr	r3, [r7, #12]
 106 006e 03F10103 		add	r3, r3, #1
 107 0072 FB60     		str	r3, [r7, #12]
 108              	.L3:
  22:board/led.c   **** 		for (i=0; i<LEDS_NUM; i++) {
 109              		.loc 1 22 0 is_stmt 0 discriminator 1
 110 0074 FB68     		ldr	r3, [r7, #12]
 111 0076 012B     		cmp	r3, #1
 112 0078 DAD9     		bls	.L5
 113              	.L1:
 114              	.LBE2:
  26:board/led.c   **** 			}
  27:board/led.c   **** 		}
  28:board/led.c   **** 	}
  29:board/led.c   **** }
 115              		.loc 1 29 0 is_stmt 1
 116 007a 07F11007 		add	r7, r7, #16
 117 007e BD46     		mov	sp, r7
 118 0080 80BD     		pop	{r7, pc}
 119              		.cfi_endproc
 120              	.LFE35:
 121              		.size	blinkhandler, .-blinkhandler
 122 0082 00BF     		.section	.text.LEDs_configure,"ax",%progbits
 123              		.align	2
 124              		.global	LEDs_configure
 125              		.thumb
 126              		.thumb_func
 127              		.type	LEDs_configure, %function
 128              	LEDs_configure:
 129              	.LFB36:
  30:board/led.c   **** 
  31:board/led.c   **** void LEDs_configure()
  32:board/led.c   **** {
 130              		.loc 1 32 0
 131              		.cfi_startproc
 132              		@ args = 0, pretend = 0, frame = 0
 133              		@ frame_needed = 1, uses_anonymous_args = 0
 134 0000 80B5     		push	{r7, lr}
 135              	.LCFI3:
 136              		.cfi_def_cfa_offset 8
ARM GAS  /tmp/ccHDvQwU.s 			page 4


 137              		.cfi_offset 14, -4
 138              		.cfi_offset 7, -8
 139 0002 00AF     		add	r7, sp, #0
 140              	.LCFI4:
 141              		.cfi_def_cfa_register 7
  33:board/led.c   **** 	PIO_Configure(leds, PIO_LISTSIZE(leds));
 142              		.loc 1 33 0
 143 0004 40F20000 		movw	r0, #:lower16:leds
 144 0008 C0F20000 		movt	r0, #:upper16:leds
 145 000c 4FF00201 		mov	r1, #2
 146 0010 FFF7FEFF 		bl	PIO_Configure
  34:board/led.c   **** }
 147              		.loc 1 34 0
 148 0014 80BD     		pop	{r7, pc}
 149              		.cfi_endproc
 150              	.LFE36:
 151              		.size	LEDs_configure, .-LEDs_configure
 152 0016 00BF     		.section	.rodata
 153              		.align	2
 154              	.LC0:
 155 0018 626F6172 		.ascii	"board/led.c\000"
 155      642F6C65 
 155      642E6300 
 156              		.align	2
 157              	.LC1:
 158 0024 6C656420 		.ascii	"led < LEDS_NUM\000"
 158      3C204C45 
 158      44535F4E 
 158      554D00
 159              		.section	.text.LED_tgl,"ax",%progbits
 160              		.align	2
 161              		.global	LED_tgl
 162              		.thumb
 163              		.thumb_func
 164              		.type	LED_tgl, %function
 165              	LED_tgl:
 166              	.LFB37:
  35:board/led.c   **** 
  36:board/led.c   **** void LED_tgl(uint8_t led)
  37:board/led.c   **** {
 167              		.loc 1 37 0
 168              		.cfi_startproc
 169              		@ args = 0, pretend = 0, frame = 16
 170              		@ frame_needed = 1, uses_anonymous_args = 0
 171 0000 80B5     		push	{r7, lr}
 172              	.LCFI5:
 173              		.cfi_def_cfa_offset 8
 174              		.cfi_offset 14, -4
 175              		.cfi_offset 7, -8
 176 0002 84B0     		sub	sp, sp, #16
 177              	.LCFI6:
 178              		.cfi_def_cfa_offset 24
 179 0004 00AF     		add	r7, sp, #0
 180              	.LCFI7:
 181              		.cfi_def_cfa_register 7
 182 0006 0346     		mov	r3, r0
 183 0008 FB71     		strb	r3, [r7, #7]
ARM GAS  /tmp/ccHDvQwU.s 			page 5


  38:board/led.c   **** 	uint32_t mask;
  39:board/led.c   **** 	Pio *pio;
  40:board/led.c   **** 
  41:board/led.c   **** 	assert(led < LEDS_NUM);
 184              		.loc 1 41 0
 185 000a FB79     		ldrb	r3, [r7, #7]	@ zero_extendqisi2
 186 000c 012B     		cmp	r3, #1
 187 000e 0FD9     		bls	.L8
 188              		.loc 1 41 0 is_stmt 0 discriminator 1
 189 0010 40F20000 		movw	r0, #:lower16:.LC0
 190 0014 C0F20000 		movt	r0, #:upper16:.LC0
 191 0018 4FF02901 		mov	r1, #41
 192 001c 40F20002 		movw	r2, #:lower16:__FUNCTION__.7525
 193 0020 C0F20002 		movt	r2, #:upper16:__FUNCTION__.7525
 194 0024 40F20003 		movw	r3, #:lower16:.LC1
 195 0028 C0F20003 		movt	r3, #:upper16:.LC1
 196 002c FFF7FEFF 		bl	__assert_func
 197              	.L8:
  42:board/led.c   **** 
  43:board/led.c   **** 	pio  = leds[led].pio;
 198              		.loc 1 43 0 is_stmt 1
 199 0030 F979     		ldrb	r1, [r7, #7]	@ zero_extendqisi2
 200 0032 40F20002 		movw	r2, #:lower16:leds
 201 0036 C0F20002 		movt	r2, #:upper16:leds
 202 003a 0B46     		mov	r3, r1
 203 003c 4FEA4303 		lsl	r3, r3, #1
 204 0040 5B18     		adds	r3, r3, r1
 205 0042 4FEA8303 		lsl	r3, r3, #2
 206 0046 D318     		adds	r3, r2, r3
 207 0048 03F10403 		add	r3, r3, #4
 208 004c 1B68     		ldr	r3, [r3, #0]
 209 004e FB60     		str	r3, [r7, #12]
  44:board/led.c   **** 	mask = leds[led].mask;
 210              		.loc 1 44 0
 211 0050 F979     		ldrb	r1, [r7, #7]	@ zero_extendqisi2
 212 0052 40F20002 		movw	r2, #:lower16:leds
 213 0056 C0F20002 		movt	r2, #:upper16:leds
 214 005a 0B46     		mov	r3, r1
 215 005c 4FEA4303 		lsl	r3, r3, #1
 216 0060 5B18     		adds	r3, r3, r1
 217 0062 4FEA8303 		lsl	r3, r3, #2
 218 0066 D318     		adds	r3, r2, r3
 219 0068 1B68     		ldr	r3, [r3, #0]
 220 006a BB60     		str	r3, [r7, #8]
  45:board/led.c   **** 
  46:board/led.c   **** 	if (pio->PIO_ODSR & mask)
 221              		.loc 1 46 0
 222 006c FB68     		ldr	r3, [r7, #12]
 223 006e 9A6B     		ldr	r2, [r3, #56]
 224 0070 BB68     		ldr	r3, [r7, #8]
 225 0072 1340     		ands	r3, r3, r2
 226 0074 002B     		cmp	r3, #0
 227 0076 03D0     		beq	.L9
  47:board/led.c   **** 		pio->PIO_CODR = mask;
 228              		.loc 1 47 0
 229 0078 FB68     		ldr	r3, [r7, #12]
 230 007a BA68     		ldr	r2, [r7, #8]
ARM GAS  /tmp/ccHDvQwU.s 			page 6


 231 007c 5A63     		str	r2, [r3, #52]
 232 007e 02E0     		b	.L7
 233              	.L9:
  48:board/led.c   **** 	else 
  49:board/led.c   **** 		pio->PIO_SODR = mask;
 234              		.loc 1 49 0
 235 0080 FB68     		ldr	r3, [r7, #12]
 236 0082 BA68     		ldr	r2, [r7, #8]
 237 0084 1A63     		str	r2, [r3, #48]
 238              	.L7:
  50:board/led.c   **** }
 239              		.loc 1 50 0
 240 0086 07F11007 		add	r7, r7, #16
 241 008a BD46     		mov	sp, r7
 242 008c 80BD     		pop	{r7, pc}
 243              		.cfi_endproc
 244              	.LFE37:
 245              		.size	LED_tgl, .-LED_tgl
 246 008e 00BF     		.section	.text.LED_set,"ax",%progbits
 247              		.align	2
 248              		.global	LED_set
 249              		.thumb
 250              		.thumb_func
 251              		.type	LED_set, %function
 252              	LED_set:
 253              	.LFB38:
  51:board/led.c   **** 
  52:board/led.c   **** void LED_set(uint8_t led)
  53:board/led.c   **** {
 254              		.loc 1 53 0
 255              		.cfi_startproc
 256              		@ args = 0, pretend = 0, frame = 16
 257              		@ frame_needed = 1, uses_anonymous_args = 0
 258 0000 80B5     		push	{r7, lr}
 259              	.LCFI8:
 260              		.cfi_def_cfa_offset 8
 261              		.cfi_offset 14, -4
 262              		.cfi_offset 7, -8
 263 0002 84B0     		sub	sp, sp, #16
 264              	.LCFI9:
 265              		.cfi_def_cfa_offset 24
 266 0004 00AF     		add	r7, sp, #0
 267              	.LCFI10:
 268              		.cfi_def_cfa_register 7
 269 0006 0346     		mov	r3, r0
 270 0008 FB71     		strb	r3, [r7, #7]
  54:board/led.c   **** 	Pio *pio;
  55:board/led.c   **** 	uint32_t mask;
  56:board/led.c   **** 
  57:board/led.c   **** 	assert(led < LEDS_NUM);
 271              		.loc 1 57 0
 272 000a FB79     		ldrb	r3, [r7, #7]	@ zero_extendqisi2
 273 000c 012B     		cmp	r3, #1
 274 000e 0FD9     		bls	.L12
 275              		.loc 1 57 0 is_stmt 0 discriminator 1
 276 0010 40F20000 		movw	r0, #:lower16:.LC0
 277 0014 C0F20000 		movt	r0, #:upper16:.LC0
ARM GAS  /tmp/ccHDvQwU.s 			page 7


 278 0018 4FF03901 		mov	r1, #57
 279 001c 40F20002 		movw	r2, #:lower16:__FUNCTION__.7531
 280 0020 C0F20002 		movt	r2, #:upper16:__FUNCTION__.7531
 281 0024 40F20003 		movw	r3, #:lower16:.LC1
 282 0028 C0F20003 		movt	r3, #:upper16:.LC1
 283 002c FFF7FEFF 		bl	__assert_func
 284              	.L12:
  58:board/led.c   **** 
  59:board/led.c   **** 	pio  = leds[led].pio;
 285              		.loc 1 59 0 is_stmt 1
 286 0030 F979     		ldrb	r1, [r7, #7]	@ zero_extendqisi2
 287 0032 40F20002 		movw	r2, #:lower16:leds
 288 0036 C0F20002 		movt	r2, #:upper16:leds
 289 003a 0B46     		mov	r3, r1
 290 003c 4FEA4303 		lsl	r3, r3, #1
 291 0040 5B18     		adds	r3, r3, r1
 292 0042 4FEA8303 		lsl	r3, r3, #2
 293 0046 D318     		adds	r3, r2, r3
 294 0048 03F10403 		add	r3, r3, #4
 295 004c 1B68     		ldr	r3, [r3, #0]
 296 004e FB60     		str	r3, [r7, #12]
  60:board/led.c   **** 	mask = leds[led].mask;
 297              		.loc 1 60 0
 298 0050 F979     		ldrb	r1, [r7, #7]	@ zero_extendqisi2
 299 0052 40F20002 		movw	r2, #:lower16:leds
 300 0056 C0F20002 		movt	r2, #:upper16:leds
 301 005a 0B46     		mov	r3, r1
 302 005c 4FEA4303 		lsl	r3, r3, #1
 303 0060 5B18     		adds	r3, r3, r1
 304 0062 4FEA8303 		lsl	r3, r3, #2
 305 0066 D318     		adds	r3, r2, r3
 306 0068 1B68     		ldr	r3, [r3, #0]
 307 006a BB60     		str	r3, [r7, #8]
  61:board/led.c   **** 	pio->PIO_SODR = mask;
 308              		.loc 1 61 0
 309 006c FB68     		ldr	r3, [r7, #12]
 310 006e BA68     		ldr	r2, [r7, #8]
 311 0070 1A63     		str	r2, [r3, #48]
  62:board/led.c   **** }
 312              		.loc 1 62 0
 313 0072 07F11007 		add	r7, r7, #16
 314 0076 BD46     		mov	sp, r7
 315 0078 80BD     		pop	{r7, pc}
 316              		.cfi_endproc
 317              	.LFE38:
 318              		.size	LED_set, .-LED_set
 319 007a 00BF     		.section	.text.LED_clr,"ax",%progbits
 320              		.align	2
 321              		.global	LED_clr
 322              		.thumb
 323              		.thumb_func
 324              		.type	LED_clr, %function
 325              	LED_clr:
 326              	.LFB39:
  63:board/led.c   **** 
  64:board/led.c   **** void LED_clr(uint8_t led)
  65:board/led.c   **** {
ARM GAS  /tmp/ccHDvQwU.s 			page 8


 327              		.loc 1 65 0
 328              		.cfi_startproc
 329              		@ args = 0, pretend = 0, frame = 16
 330              		@ frame_needed = 1, uses_anonymous_args = 0
 331 0000 80B5     		push	{r7, lr}
 332              	.LCFI11:
 333              		.cfi_def_cfa_offset 8
 334              		.cfi_offset 14, -4
 335              		.cfi_offset 7, -8
 336 0002 84B0     		sub	sp, sp, #16
 337              	.LCFI12:
 338              		.cfi_def_cfa_offset 24
 339 0004 00AF     		add	r7, sp, #0
 340              	.LCFI13:
 341              		.cfi_def_cfa_register 7
 342 0006 0346     		mov	r3, r0
 343 0008 FB71     		strb	r3, [r7, #7]
  66:board/led.c   **** 	Pio *pio;
  67:board/led.c   **** 	uint32_t mask;
  68:board/led.c   **** 
  69:board/led.c   **** 	assert(led < LEDS_NUM);
 344              		.loc 1 69 0
 345 000a FB79     		ldrb	r3, [r7, #7]	@ zero_extendqisi2
 346 000c 012B     		cmp	r3, #1
 347 000e 0FD9     		bls	.L14
 348              		.loc 1 69 0 is_stmt 0 discriminator 1
 349 0010 40F20000 		movw	r0, #:lower16:.LC0
 350 0014 C0F20000 		movt	r0, #:upper16:.LC0
 351 0018 4FF04501 		mov	r1, #69
 352 001c 40F20002 		movw	r2, #:lower16:__FUNCTION__.7537
 353 0020 C0F20002 		movt	r2, #:upper16:__FUNCTION__.7537
 354 0024 40F20003 		movw	r3, #:lower16:.LC1
 355 0028 C0F20003 		movt	r3, #:upper16:.LC1
 356 002c FFF7FEFF 		bl	__assert_func
 357              	.L14:
  70:board/led.c   **** 
  71:board/led.c   **** 	pio  = leds[led].pio;
 358              		.loc 1 71 0 is_stmt 1
 359 0030 F979     		ldrb	r1, [r7, #7]	@ zero_extendqisi2
 360 0032 40F20002 		movw	r2, #:lower16:leds
 361 0036 C0F20002 		movt	r2, #:upper16:leds
 362 003a 0B46     		mov	r3, r1
 363 003c 4FEA4303 		lsl	r3, r3, #1
 364 0040 5B18     		adds	r3, r3, r1
 365 0042 4FEA8303 		lsl	r3, r3, #2
 366 0046 D318     		adds	r3, r2, r3
 367 0048 03F10403 		add	r3, r3, #4
 368 004c 1B68     		ldr	r3, [r3, #0]
 369 004e FB60     		str	r3, [r7, #12]
  72:board/led.c   **** 	mask = leds[led].mask;
 370              		.loc 1 72 0
 371 0050 F979     		ldrb	r1, [r7, #7]	@ zero_extendqisi2
 372 0052 40F20002 		movw	r2, #:lower16:leds
 373 0056 C0F20002 		movt	r2, #:upper16:leds
 374 005a 0B46     		mov	r3, r1
 375 005c 4FEA4303 		lsl	r3, r3, #1
 376 0060 5B18     		adds	r3, r3, r1
ARM GAS  /tmp/ccHDvQwU.s 			page 9


 377 0062 4FEA8303 		lsl	r3, r3, #2
 378 0066 D318     		adds	r3, r2, r3
 379 0068 1B68     		ldr	r3, [r3, #0]
 380 006a BB60     		str	r3, [r7, #8]
  73:board/led.c   **** 	pio->PIO_CODR = mask;
 381              		.loc 1 73 0
 382 006c FB68     		ldr	r3, [r7, #12]
 383 006e BA68     		ldr	r2, [r7, #8]
 384 0070 5A63     		str	r2, [r3, #52]
  74:board/led.c   **** }
 385              		.loc 1 74 0
 386 0072 07F11007 		add	r7, r7, #16
 387 0076 BD46     		mov	sp, r7
 388 0078 80BD     		pop	{r7, pc}
 389              		.cfi_endproc
 390              	.LFE39:
 391              		.size	LED_clr, .-LED_clr
 392 007a 00BF     		.section	.text.LED_get,"ax",%progbits
 393              		.align	2
 394              		.global	LED_get
 395              		.thumb
 396              		.thumb_func
 397              		.type	LED_get, %function
 398              	LED_get:
 399              	.LFB40:
  75:board/led.c   **** 
  76:board/led.c   **** uint8_t LED_get(uint8_t led)
  77:board/led.c   **** {
 400              		.loc 1 77 0
 401              		.cfi_startproc
 402              		@ args = 0, pretend = 0, frame = 16
 403              		@ frame_needed = 1, uses_anonymous_args = 0
 404 0000 80B5     		push	{r7, lr}
 405              	.LCFI14:
 406              		.cfi_def_cfa_offset 8
 407              		.cfi_offset 14, -4
 408              		.cfi_offset 7, -8
 409 0002 84B0     		sub	sp, sp, #16
 410              	.LCFI15:
 411              		.cfi_def_cfa_offset 24
 412 0004 00AF     		add	r7, sp, #0
 413              	.LCFI16:
 414              		.cfi_def_cfa_register 7
 415 0006 0346     		mov	r3, r0
 416 0008 FB71     		strb	r3, [r7, #7]
  78:board/led.c   **** 	Pio *pio;
  79:board/led.c   **** 	uint32_t mask;
  80:board/led.c   **** 
  81:board/led.c   **** 	assert(led < LEDS_NUM);
 417              		.loc 1 81 0
 418 000a FB79     		ldrb	r3, [r7, #7]	@ zero_extendqisi2
 419 000c 012B     		cmp	r3, #1
 420 000e 0FD9     		bls	.L16
 421              		.loc 1 81 0 is_stmt 0 discriminator 1
 422 0010 40F20000 		movw	r0, #:lower16:.LC0
 423 0014 C0F20000 		movt	r0, #:upper16:.LC0
 424 0018 4FF05101 		mov	r1, #81
ARM GAS  /tmp/ccHDvQwU.s 			page 10


 425 001c 40F20002 		movw	r2, #:lower16:__FUNCTION__.7543
 426 0020 C0F20002 		movt	r2, #:upper16:__FUNCTION__.7543
 427 0024 40F20003 		movw	r3, #:lower16:.LC1
 428 0028 C0F20003 		movt	r3, #:upper16:.LC1
 429 002c FFF7FEFF 		bl	__assert_func
 430              	.L16:
  82:board/led.c   **** 
  83:board/led.c   **** 	pio  = leds[led].pio;
 431              		.loc 1 83 0 is_stmt 1
 432 0030 F979     		ldrb	r1, [r7, #7]	@ zero_extendqisi2
 433 0032 40F20002 		movw	r2, #:lower16:leds
 434 0036 C0F20002 		movt	r2, #:upper16:leds
 435 003a 0B46     		mov	r3, r1
 436 003c 4FEA4303 		lsl	r3, r3, #1
 437 0040 5B18     		adds	r3, r3, r1
 438 0042 4FEA8303 		lsl	r3, r3, #2
 439 0046 D318     		adds	r3, r2, r3
 440 0048 03F10403 		add	r3, r3, #4
 441 004c 1B68     		ldr	r3, [r3, #0]
 442 004e FB60     		str	r3, [r7, #12]
  84:board/led.c   **** 	mask = leds[led].mask;
 443              		.loc 1 84 0
 444 0050 F979     		ldrb	r1, [r7, #7]	@ zero_extendqisi2
 445 0052 40F20002 		movw	r2, #:lower16:leds
 446 0056 C0F20002 		movt	r2, #:upper16:leds
 447 005a 0B46     		mov	r3, r1
 448 005c 4FEA4303 		lsl	r3, r3, #1
 449 0060 5B18     		adds	r3, r3, r1
 450 0062 4FEA8303 		lsl	r3, r3, #2
 451 0066 D318     		adds	r3, r2, r3
 452 0068 1B68     		ldr	r3, [r3, #0]
 453 006a BB60     		str	r3, [r7, #8]
  85:board/led.c   **** 	return (uint8_t) (pio->PIO_ODSR & mask);
 454              		.loc 1 85 0
 455 006c FB68     		ldr	r3, [r7, #12]
 456 006e 9B6B     		ldr	r3, [r3, #56]
 457 0070 DAB2     		uxtb	r2, r3
 458 0072 BB68     		ldr	r3, [r7, #8]
 459 0074 DBB2     		uxtb	r3, r3
 460 0076 1340     		ands	r3, r3, r2
 461 0078 DBB2     		uxtb	r3, r3
  86:board/led.c   **** }
 462              		.loc 1 86 0
 463 007a 1846     		mov	r0, r3
 464 007c 07F11007 		add	r7, r7, #16
 465 0080 BD46     		mov	sp, r7
 466 0082 80BD     		pop	{r7, pc}
 467              		.cfi_endproc
 468              	.LFE40:
 469              		.size	LED_get, .-LED_get
 470              		.section	.text.LED_blink,"ax",%progbits
 471              		.align	2
 472              		.global	LED_blink
 473              		.thumb
 474              		.thumb_func
 475              		.type	LED_blink, %function
 476              	LED_blink:
ARM GAS  /tmp/ccHDvQwU.s 			page 11


 477              	.LFB41:
  87:board/led.c   **** 
  88:board/led.c   **** /*
  89:board/led.c   ****  * Flash LED 'num' times (non-blocking).
  90:board/led.c   ****  */
  91:board/led.c   **** void LED_blink(uint8_t led, uint32_t num)
  92:board/led.c   **** {
 478              		.loc 1 92 0
 479              		.cfi_startproc
 480              		@ args = 0, pretend = 0, frame = 8
 481              		@ frame_needed = 1, uses_anonymous_args = 0
 482              		@ link register save eliminated.
 483 0000 80B4     		push	{r7}
 484              	.LCFI17:
 485              		.cfi_def_cfa_offset 4
 486              		.cfi_offset 7, -4
 487 0002 83B0     		sub	sp, sp, #12
 488              	.LCFI18:
 489              		.cfi_def_cfa_offset 16
 490 0004 00AF     		add	r7, sp, #0
 491              	.LCFI19:
 492              		.cfi_def_cfa_register 7
 493 0006 0346     		mov	r3, r0
 494 0008 3960     		str	r1, [r7, #0]
 495 000a FB71     		strb	r3, [r7, #7]
  93:board/led.c   **** 	blinks[led] += 2*num;
 496              		.loc 1 93 0
 497 000c FA79     		ldrb	r2, [r7, #7]	@ zero_extendqisi2
 498 000e F979     		ldrb	r1, [r7, #7]	@ zero_extendqisi2
 499 0010 40F20003 		movw	r3, #:lower16:blinks
 500 0014 C0F20003 		movt	r3, #:upper16:blinks
 501 0018 53F82110 		ldr	r1, [r3, r1, lsl #2]
 502 001c 3B68     		ldr	r3, [r7, #0]
 503 001e 4FEA4303 		lsl	r3, r3, #1
 504 0022 C918     		adds	r1, r1, r3
 505 0024 40F20003 		movw	r3, #:lower16:blinks
 506 0028 C0F20003 		movt	r3, #:upper16:blinks
 507 002c 43F82210 		str	r1, [r3, r2, lsl #2]
  94:board/led.c   **** }
 508              		.loc 1 94 0
 509 0030 07F10C07 		add	r7, r7, #12
 510 0034 BD46     		mov	sp, r7
 511 0036 80BC     		pop	{r7}
 512 0038 7047     		bx	lr
 513              		.cfi_endproc
 514              	.LFE41:
 515              		.size	LED_blink, .-LED_blink
 516 003a 00BF     		.section	.text.LED_blinkwait,"ax",%progbits
 517              		.align	2
 518              		.global	LED_blinkwait
 519              		.thumb
 520              		.thumb_func
 521              		.type	LED_blinkwait, %function
 522              	LED_blinkwait:
 523              	.LFB42:
  95:board/led.c   **** 
  96:board/led.c   **** /*
ARM GAS  /tmp/ccHDvQwU.s 			page 12


  97:board/led.c   ****  * Flash LED 'num' times (blocking).
  98:board/led.c   ****  */
  99:board/led.c   **** void LED_blinkwait(uint8_t led, uint32_t num)
 100:board/led.c   **** {
 524              		.loc 1 100 0
 525              		.cfi_startproc
 526              		@ args = 0, pretend = 0, frame = 8
 527              		@ frame_needed = 1, uses_anonymous_args = 0
 528 0000 80B5     		push	{r7, lr}
 529              	.LCFI20:
 530              		.cfi_def_cfa_offset 8
 531              		.cfi_offset 14, -4
 532              		.cfi_offset 7, -8
 533 0002 82B0     		sub	sp, sp, #8
 534              	.LCFI21:
 535              		.cfi_def_cfa_offset 16
 536 0004 00AF     		add	r7, sp, #0
 537              	.LCFI22:
 538              		.cfi_def_cfa_register 7
 539 0006 0346     		mov	r3, r0
 540 0008 3960     		str	r1, [r7, #0]
 541 000a FB71     		strb	r3, [r7, #7]
 101:board/led.c   **** 	LED_blink(led, num);
 542              		.loc 1 101 0
 543 000c FB79     		ldrb	r3, [r7, #7]	@ zero_extendqisi2
 544 000e 1846     		mov	r0, r3
 545 0010 3968     		ldr	r1, [r7, #0]
 546 0012 FFF7FEFF 		bl	LED_blink
 102:board/led.c   **** 	while(LED_blinking(led));
 547              		.loc 1 102 0
 548 0016 00BF     		nop
 549              	.L19:
 550              		.loc 1 102 0 is_stmt 0 discriminator 1
 551 0018 FB79     		ldrb	r3, [r7, #7]	@ zero_extendqisi2
 552 001a 1846     		mov	r0, r3
 553 001c FFF7FEFF 		bl	LED_blinking
 554 0020 0346     		mov	r3, r0
 555 0022 002B     		cmp	r3, #0
 556 0024 F8D1     		bne	.L19
 103:board/led.c   **** }
 557              		.loc 1 103 0 is_stmt 1
 558 0026 07F10807 		add	r7, r7, #8
 559 002a BD46     		mov	sp, r7
 560 002c 80BD     		pop	{r7, pc}
 561              		.cfi_endproc
 562              	.LFE42:
 563              		.size	LED_blinkwait, .-LED_blinkwait
 564 002e 00BF     		.section	.text.LED_blinkstop,"ax",%progbits
 565              		.align	2
 566              		.global	LED_blinkstop
 567              		.thumb
 568              		.thumb_func
 569              		.type	LED_blinkstop, %function
 570              	LED_blinkstop:
 571              	.LFB43:
 104:board/led.c   **** 
 105:board/led.c   **** /*
ARM GAS  /tmp/ccHDvQwU.s 			page 13


 106:board/led.c   ****  * Stop flashing.
 107:board/led.c   ****  */
 108:board/led.c   **** void LED_blinkstop(uint8_t led)
 109:board/led.c   **** {
 572              		.loc 1 109 0
 573              		.cfi_startproc
 574              		@ args = 0, pretend = 0, frame = 8
 575              		@ frame_needed = 1, uses_anonymous_args = 0
 576              		@ link register save eliminated.
 577 0000 80B4     		push	{r7}
 578              	.LCFI23:
 579              		.cfi_def_cfa_offset 4
 580              		.cfi_offset 7, -4
 581 0002 83B0     		sub	sp, sp, #12
 582              	.LCFI24:
 583              		.cfi_def_cfa_offset 16
 584 0004 00AF     		add	r7, sp, #0
 585              	.LCFI25:
 586              		.cfi_def_cfa_register 7
 587 0006 0346     		mov	r3, r0
 588 0008 FB71     		strb	r3, [r7, #7]
 110:board/led.c   **** 	blinks[led] = 0;
 589              		.loc 1 110 0
 590 000a FA79     		ldrb	r2, [r7, #7]	@ zero_extendqisi2
 591 000c 40F20003 		movw	r3, #:lower16:blinks
 592 0010 C0F20003 		movt	r3, #:upper16:blinks
 593 0014 4FF00001 		mov	r1, #0
 594 0018 43F82210 		str	r1, [r3, r2, lsl #2]
 111:board/led.c   **** }
 595              		.loc 1 111 0
 596 001c 07F10C07 		add	r7, r7, #12
 597 0020 BD46     		mov	sp, r7
 598 0022 80BC     		pop	{r7}
 599 0024 7047     		bx	lr
 600              		.cfi_endproc
 601              	.LFE43:
 602              		.size	LED_blinkstop, .-LED_blinkstop
 603 0026 00BF     		.section	.text.LED_blinking,"ax",%progbits
 604              		.align	2
 605              		.global	LED_blinking
 606              		.thumb
 607              		.thumb_func
 608              		.type	LED_blinking, %function
 609              	LED_blinking:
 610              	.LFB44:
 112:board/led.c   **** 
 113:board/led.c   **** /*
 114:board/led.c   ****  * Check if LED is flashing
 115:board/led.c   ****  */
 116:board/led.c   **** uint8_t LED_blinking(uint8_t led)
 117:board/led.c   **** {
 611              		.loc 1 117 0
 612              		.cfi_startproc
 613              		@ args = 0, pretend = 0, frame = 8
 614              		@ frame_needed = 1, uses_anonymous_args = 0
 615              		@ link register save eliminated.
 616 0000 80B4     		push	{r7}
ARM GAS  /tmp/ccHDvQwU.s 			page 14


 617              	.LCFI26:
 618              		.cfi_def_cfa_offset 4
 619              		.cfi_offset 7, -4
 620 0002 83B0     		sub	sp, sp, #12
 621              	.LCFI27:
 622              		.cfi_def_cfa_offset 16
 623 0004 00AF     		add	r7, sp, #0
 624              	.LCFI28:
 625              		.cfi_def_cfa_register 7
 626 0006 0346     		mov	r3, r0
 627 0008 FB71     		strb	r3, [r7, #7]
 118:board/led.c   **** 	return (uint8_t) blinks[led];
 628              		.loc 1 118 0
 629 000a FA79     		ldrb	r2, [r7, #7]	@ zero_extendqisi2
 630 000c 40F20003 		movw	r3, #:lower16:blinks
 631 0010 C0F20003 		movt	r3, #:upper16:blinks
 632 0014 53F82230 		ldr	r3, [r3, r2, lsl #2]
 633 0018 DBB2     		uxtb	r3, r3
 119:board/led.c   **** }
 634              		.loc 1 119 0
 635 001a 1846     		mov	r0, r3
 636 001c 07F10C07 		add	r7, r7, #12
 637 0020 BD46     		mov	sp, r7
 638 0022 80BC     		pop	{r7}
 639 0024 7047     		bx	lr
 640              		.cfi_endproc
 641              	.LFE44:
 642              		.size	LED_blinking, .-LED_blinking
 643 0026 00BF     		.section	.rodata
 644 0033 00       		.align	2
 645              		.type	__FUNCTION__.7543, %object
 646              		.size	__FUNCTION__.7543, 8
 647              	__FUNCTION__.7543:
 648 0034 4C45445F 		.ascii	"LED_get\000"
 648      67657400 
 649              		.align	2
 650              		.type	__FUNCTION__.7537, %object
 651              		.size	__FUNCTION__.7537, 8
 652              	__FUNCTION__.7537:
 653 003c 4C45445F 		.ascii	"LED_clr\000"
 653      636C7200 
 654              		.align	2
 655              		.type	__FUNCTION__.7531, %object
 656              		.size	__FUNCTION__.7531, 8
 657              	__FUNCTION__.7531:
 658 0044 4C45445F 		.ascii	"LED_set\000"
 658      73657400 
 659              		.align	2
 660              		.type	__FUNCTION__.7525, %object
 661              		.size	__FUNCTION__.7525, 8
 662              	__FUNCTION__.7525:
 663 004c 4C45445F 		.ascii	"LED_tgl\000"
 663      74676C00 
 664              		.text
 665              	.Letext0:
 666              		.file 2 "/usr/local/Sourcery/bin/../lib/gcc/arm-none-eabi/4.6.1/../../../../arm-none-eabi/include/
 667              		.file 3 "libchip/include/SAM3S.h"
ARM GAS  /tmp/ccHDvQwU.s 			page 15


 668              		.file 4 "libchip/include/pio.h"
 669              		.file 5 "libchip/cmsis/core_cm3.h"
 670              		.section	.debug_info,"",%progbits
 671              	.Ldebug_info0:
 672 0000 2B090000 		.4byte	0x92b
 673 0004 0200     		.2byte	0x2
 674 0006 00000000 		.4byte	.Ldebug_abbrev0
 675 000a 04       		.byte	0x4
 676 000b 01       		.uleb128 0x1
 677 000c 00030000 		.4byte	.LASF104
 678 0010 01       		.byte	0x1
 679 0011 1A020000 		.4byte	.LASF105
 680 0015 C7020000 		.4byte	.LASF106
 681 0019 00000000 		.4byte	0
 682 001d 00000000 		.4byte	0
 683 0021 00000000 		.4byte	.Ldebug_ranges0+0
 684 0025 00000000 		.4byte	.Ldebug_line0
 685 0029 02       		.uleb128 0x2
 686 002a 01       		.byte	0x1
 687 002b 06       		.byte	0x6
 688 002c 30020000 		.4byte	.LASF0
 689 0030 02       		.uleb128 0x2
 690 0031 01       		.byte	0x1
 691 0032 08       		.byte	0x8
 692 0033 FD010000 		.4byte	.LASF1
 693 0037 02       		.uleb128 0x2
 694 0038 02       		.byte	0x2
 695 0039 05       		.byte	0x5
 696 003a 4F000000 		.4byte	.LASF2
 697 003e 02       		.uleb128 0x2
 698 003f 02       		.byte	0x2
 699 0040 07       		.byte	0x7
 700 0041 46030000 		.4byte	.LASF3
 701 0045 03       		.uleb128 0x3
 702 0046 04       		.byte	0x4
 703 0047 05       		.byte	0x5
 704 0048 696E7400 		.ascii	"int\000"
 705 004c 02       		.uleb128 0x2
 706 004d 04       		.byte	0x4
 707 004e 07       		.byte	0x7
 708 004f 5E020000 		.4byte	.LASF4
 709 0053 02       		.uleb128 0x2
 710 0054 08       		.byte	0x8
 711 0055 05       		.byte	0x5
 712 0056 7C000000 		.4byte	.LASF5
 713 005a 02       		.uleb128 0x2
 714 005b 08       		.byte	0x8
 715 005c 07       		.byte	0x7
 716 005d 3C010000 		.4byte	.LASF6
 717 0061 02       		.uleb128 0x2
 718 0062 04       		.byte	0x4
 719 0063 05       		.byte	0x5
 720 0064 73010000 		.4byte	.LASF7
 721 0068 02       		.uleb128 0x2
 722 0069 04       		.byte	0x4
 723 006a 07       		.byte	0x7
 724 006b 62030000 		.4byte	.LASF8
ARM GAS  /tmp/ccHDvQwU.s 			page 16


 725 006f 02       		.uleb128 0x2
 726 0070 01       		.byte	0x1
 727 0071 08       		.byte	0x8
 728 0072 C2020000 		.4byte	.LASF9
 729 0076 04       		.uleb128 0x4
 730 0077 6F000000 		.4byte	0x6f
 731 007b 86000000 		.4byte	0x86
 732 007f 05       		.uleb128 0x5
 733 0080 4C000000 		.4byte	0x4c
 734 0084 07       		.byte	0x7
 735 0085 00       		.byte	0
 736 0086 06       		.uleb128 0x6
 737 0087 E1000000 		.4byte	.LASF10
 738 008b 02       		.byte	0x2
 739 008c 2A       		.byte	0x2a
 740 008d 30000000 		.4byte	0x30
 741 0091 06       		.uleb128 0x6
 742 0092 09000000 		.4byte	.LASF11
 743 0096 02       		.byte	0x2
 744 0097 50       		.byte	0x50
 745 0098 68000000 		.4byte	0x68
 746 009c 04       		.uleb128 0x4
 747 009d 91000000 		.4byte	0x91
 748 00a1 AC000000 		.4byte	0xac
 749 00a5 05       		.uleb128 0x5
 750 00a6 4C000000 		.4byte	0x4c
 751 00aa 01       		.byte	0x1
 752 00ab 00       		.byte	0
 753 00ac 07       		.uleb128 0x7
 754 00ad 68000000 		.4byte	0x68
 755 00b1 08       		.uleb128 0x8
 756 00b2 AC000000 		.4byte	0xac
 757 00b6 04       		.uleb128 0x4
 758 00b7 68000000 		.4byte	0x68
 759 00bb C6000000 		.4byte	0xc6
 760 00bf 05       		.uleb128 0x5
 761 00c0 4C000000 		.4byte	0x4c
 762 00c4 12       		.byte	0x12
 763 00c5 00       		.byte	0
 764 00c6 04       		.uleb128 0x4
 765 00c7 68000000 		.4byte	0x68
 766 00cb D6000000 		.4byte	0xd6
 767 00cf 05       		.uleb128 0x5
 768 00d0 4C000000 		.4byte	0x4c
 769 00d4 00       		.byte	0
 770 00d5 00       		.byte	0
 771 00d6 04       		.uleb128 0x4
 772 00d7 68000000 		.4byte	0x68
 773 00db E6000000 		.4byte	0xe6
 774 00df 05       		.uleb128 0x5
 775 00e0 4C000000 		.4byte	0x4c
 776 00e4 01       		.byte	0x1
 777 00e5 00       		.byte	0
 778 00e6 04       		.uleb128 0x4
 779 00e7 68000000 		.4byte	0x68
 780 00eb F6000000 		.4byte	0xf6
 781 00ef 05       		.uleb128 0x5
ARM GAS  /tmp/ccHDvQwU.s 			page 17


 782 00f0 4C000000 		.4byte	0x4c
 783 00f4 04       		.byte	0x4
 784 00f5 00       		.byte	0
 785 00f6 09       		.uleb128 0x9
 786 00f7 9001     		.2byte	0x190
 787 00f9 03       		.byte	0x3
 788 00fa E006     		.2byte	0x6e0
 789 00fc A3050000 		.4byte	0x5a3
 790 0100 0A       		.uleb128 0xa
 791 0101 DD030000 		.4byte	.LASF12
 792 0105 03       		.byte	0x3
 793 0106 E106     		.2byte	0x6e1
 794 0108 AC000000 		.4byte	0xac
 795 010c 02       		.byte	0x2
 796 010d 23       		.byte	0x23
 797 010e 00       		.uleb128 0
 798 010f 0A       		.uleb128 0xa
 799 0110 45040000 		.4byte	.LASF13
 800 0114 03       		.byte	0x3
 801 0115 E206     		.2byte	0x6e2
 802 0117 AC000000 		.4byte	0xac
 803 011b 02       		.byte	0x2
 804 011c 23       		.byte	0x23
 805 011d 04       		.uleb128 0x4
 806 011e 0A       		.uleb128 0xa
 807 011f 4D040000 		.4byte	.LASF14
 808 0123 03       		.byte	0x3
 809 0124 E306     		.2byte	0x6e3
 810 0126 B1000000 		.4byte	0xb1
 811 012a 02       		.byte	0x2
 812 012b 23       		.byte	0x23
 813 012c 08       		.uleb128 0x8
 814 012d 0A       		.uleb128 0xa
 815 012e CD000000 		.4byte	.LASF15
 816 0132 03       		.byte	0x3
 817 0133 E406     		.2byte	0x6e4
 818 0135 A3050000 		.4byte	0x5a3
 819 0139 02       		.byte	0x2
 820 013a 23       		.byte	0x23
 821 013b 0C       		.uleb128 0xc
 822 013c 0A       		.uleb128 0xa
 823 013d 0B040000 		.4byte	.LASF16
 824 0141 03       		.byte	0x3
 825 0142 E506     		.2byte	0x6e5
 826 0144 AC000000 		.4byte	0xac
 827 0148 02       		.byte	0x2
 828 0149 23       		.byte	0x23
 829 014a 10       		.uleb128 0x10
 830 014b 0A       		.uleb128 0xa
 831 014c 3F000000 		.4byte	.LASF17
 832 0150 03       		.byte	0x3
 833 0151 E606     		.2byte	0x6e6
 834 0153 AC000000 		.4byte	0xac
 835 0157 02       		.byte	0x2
 836 0158 23       		.byte	0x23
 837 0159 14       		.uleb128 0x14
 838 015a 0A       		.uleb128 0xa
ARM GAS  /tmp/ccHDvQwU.s 			page 18


 839 015b 47000000 		.4byte	.LASF18
 840 015f 03       		.byte	0x3
 841 0160 E706     		.2byte	0x6e7
 842 0162 B1000000 		.4byte	0xb1
 843 0166 02       		.byte	0x2
 844 0167 23       		.byte	0x23
 845 0168 18       		.uleb128 0x18
 846 0169 0A       		.uleb128 0xa
 847 016a D7000000 		.4byte	.LASF19
 848 016e 03       		.byte	0x3
 849 016f E806     		.2byte	0x6e8
 850 0171 A8050000 		.4byte	0x5a8
 851 0175 02       		.byte	0x2
 852 0176 23       		.byte	0x23
 853 0177 1C       		.uleb128 0x1c
 854 0178 0A       		.uleb128 0xa
 855 0179 CA030000 		.4byte	.LASF20
 856 017d 03       		.byte	0x3
 857 017e E906     		.2byte	0x6e9
 858 0180 AC000000 		.4byte	0xac
 859 0184 02       		.byte	0x2
 860 0185 23       		.byte	0x23
 861 0186 20       		.uleb128 0x20
 862 0187 0A       		.uleb128 0xa
 863 0188 53010000 		.4byte	.LASF21
 864 018c 03       		.byte	0x3
 865 018d EA06     		.2byte	0x6ea
 866 018f AC000000 		.4byte	0xac
 867 0193 02       		.byte	0x2
 868 0194 23       		.byte	0x23
 869 0195 24       		.uleb128 0x24
 870 0196 0A       		.uleb128 0xa
 871 0197 5C010000 		.4byte	.LASF22
 872 019b 03       		.byte	0x3
 873 019c EB06     		.2byte	0x6eb
 874 019e B1000000 		.4byte	0xb1
 875 01a2 02       		.byte	0x2
 876 01a3 23       		.byte	0x23
 877 01a4 28       		.uleb128 0x28
 878 01a5 0A       		.uleb128 0xa
 879 01a6 74030000 		.4byte	.LASF23
 880 01aa 03       		.byte	0x3
 881 01ab EC06     		.2byte	0x6ec
 882 01ad AD050000 		.4byte	0x5ad
 883 01b1 02       		.byte	0x2
 884 01b2 23       		.byte	0x23
 885 01b3 2C       		.uleb128 0x2c
 886 01b4 0A       		.uleb128 0xa
 887 01b5 F9030000 		.4byte	.LASF24
 888 01b9 03       		.byte	0x3
 889 01ba ED06     		.2byte	0x6ed
 890 01bc AC000000 		.4byte	0xac
 891 01c0 02       		.byte	0x2
 892 01c1 23       		.byte	0x23
 893 01c2 30       		.uleb128 0x30
 894 01c3 0A       		.uleb128 0xa
 895 01c4 59030000 		.4byte	.LASF25
ARM GAS  /tmp/ccHDvQwU.s 			page 19


 896 01c8 03       		.byte	0x3
 897 01c9 EE06     		.2byte	0x6ee
 898 01cb AC000000 		.4byte	0xac
 899 01cf 02       		.byte	0x2
 900 01d0 23       		.byte	0x23
 901 01d1 34       		.uleb128 0x34
 902 01d2 0A       		.uleb128 0xa
 903 01d3 69000000 		.4byte	.LASF26
 904 01d7 03       		.byte	0x3
 905 01d8 EF06     		.2byte	0x6ef
 906 01da AC000000 		.4byte	0xac
 907 01de 02       		.byte	0x2
 908 01df 23       		.byte	0x23
 909 01e0 38       		.uleb128 0x38
 910 01e1 0A       		.uleb128 0xa
 911 01e2 7C010000 		.4byte	.LASF27
 912 01e6 03       		.byte	0x3
 913 01e7 F006     		.2byte	0x6f0
 914 01e9 B1000000 		.4byte	0xb1
 915 01ed 02       		.byte	0x2
 916 01ee 23       		.byte	0x23
 917 01ef 3C       		.uleb128 0x3c
 918 01f0 0A       		.uleb128 0xa
 919 01f1 25000000 		.4byte	.LASF28
 920 01f5 03       		.byte	0x3
 921 01f6 F106     		.2byte	0x6f1
 922 01f8 AC000000 		.4byte	0xac
 923 01fc 02       		.byte	0x2
 924 01fd 23       		.byte	0x23
 925 01fe 40       		.uleb128 0x40
 926 01ff 0A       		.uleb128 0xa
 927 0200 88030000 		.4byte	.LASF29
 928 0204 03       		.byte	0x3
 929 0205 F206     		.2byte	0x6f2
 930 0207 AC000000 		.4byte	0xac
 931 020b 02       		.byte	0x2
 932 020c 23       		.byte	0x23
 933 020d 44       		.uleb128 0x44
 934 020e 0A       		.uleb128 0xa
 935 020f 9F000000 		.4byte	.LASF30
 936 0213 03       		.byte	0x3
 937 0214 F306     		.2byte	0x6f3
 938 0216 B1000000 		.4byte	0xb1
 939 021a 02       		.byte	0x2
 940 021b 23       		.byte	0x23
 941 021c 48       		.uleb128 0x48
 942 021d 0A       		.uleb128 0xa
 943 021e 90030000 		.4byte	.LASF31
 944 0222 03       		.byte	0x3
 945 0223 F406     		.2byte	0x6f4
 946 0225 B1000000 		.4byte	0xb1
 947 0229 02       		.byte	0x2
 948 022a 23       		.byte	0x23
 949 022b 4C       		.uleb128 0x4c
 950 022c 0A       		.uleb128 0xa
 951 022d F0030000 		.4byte	.LASF32
 952 0231 03       		.byte	0x3
ARM GAS  /tmp/ccHDvQwU.s 			page 20


 953 0232 F506     		.2byte	0x6f5
 954 0234 AC000000 		.4byte	0xac
 955 0238 02       		.byte	0x2
 956 0239 23       		.byte	0x23
 957 023a 50       		.uleb128 0x50
 958 023b 0A       		.uleb128 0xa
 959 023c A7020000 		.4byte	.LASF33
 960 0240 03       		.byte	0x3
 961 0241 F606     		.2byte	0x6f6
 962 0243 AC000000 		.4byte	0xac
 963 0247 02       		.byte	0x2
 964 0248 23       		.byte	0x23
 965 0249 54       		.uleb128 0x54
 966 024a 0A       		.uleb128 0xa
 967 024b B0020000 		.4byte	.LASF34
 968 024f 03       		.byte	0x3
 969 0250 F706     		.2byte	0x6f7
 970 0252 B1000000 		.4byte	0xb1
 971 0256 02       		.byte	0x2
 972 0257 23       		.byte	0x23
 973 0258 58       		.uleb128 0x58
 974 0259 0A       		.uleb128 0xa
 975 025a 7E030000 		.4byte	.LASF35
 976 025e 03       		.byte	0x3
 977 025f F806     		.2byte	0x6f8
 978 0261 B2050000 		.4byte	0x5b2
 979 0265 02       		.byte	0x2
 980 0266 23       		.byte	0x23
 981 0267 5C       		.uleb128 0x5c
 982 0268 0A       		.uleb128 0xa
 983 0269 9A010000 		.4byte	.LASF36
 984 026d 03       		.byte	0x3
 985 026e F906     		.2byte	0x6f9
 986 0270 AC000000 		.4byte	0xac
 987 0274 02       		.byte	0x2
 988 0275 23       		.byte	0x23
 989 0276 60       		.uleb128 0x60
 990 0277 0A       		.uleb128 0xa
 991 0278 14030000 		.4byte	.LASF37
 992 027c 03       		.byte	0x3
 993 027d FA06     		.2byte	0x6fa
 994 027f AC000000 		.4byte	0xac
 995 0283 02       		.byte	0x2
 996 0284 23       		.byte	0x23
 997 0285 64       		.uleb128 0x64
 998 0286 0A       		.uleb128 0xa
 999 0287 A3010000 		.4byte	.LASF38
 1000 028b 03       		.byte	0x3
 1001 028c FB06     		.2byte	0x6fb
 1002 028e B1000000 		.4byte	0xb1
 1003 0292 02       		.byte	0x2
 1004 0293 23       		.byte	0x23
 1005 0294 68       		.uleb128 0x68
 1006 0295 0A       		.uleb128 0xa
 1007 0296 D3030000 		.4byte	.LASF39
 1008 029a 03       		.byte	0x3
 1009 029b FC06     		.2byte	0x6fc
ARM GAS  /tmp/ccHDvQwU.s 			page 21


 1010 029d B7050000 		.4byte	0x5b7
 1011 02a1 02       		.byte	0x2
 1012 02a2 23       		.byte	0x23
 1013 02a3 6C       		.uleb128 0x6c
 1014 02a4 0A       		.uleb128 0xa
 1015 02a5 E5030000 		.4byte	.LASF40
 1016 02a9 03       		.byte	0x3
 1017 02aa FD06     		.2byte	0x6fd
 1018 02ac BC050000 		.4byte	0x5bc
 1019 02b0 02       		.byte	0x2
 1020 02b1 23       		.byte	0x23
 1021 02b2 70       		.uleb128 0x70
 1022 02b3 0A       		.uleb128 0xa
 1023 02b4 98030000 		.4byte	.LASF41
 1024 02b8 03       		.byte	0x3
 1025 02b9 FE06     		.2byte	0x6fe
 1026 02bb C1050000 		.4byte	0x5c1
 1027 02bf 02       		.byte	0x2
 1028 02c0 23       		.byte	0x23
 1029 02c1 78       		.uleb128 0x78
 1030 02c2 0A       		.uleb128 0xa
 1031 02c3 C3010000 		.4byte	.LASF42
 1032 02c7 03       		.byte	0x3
 1033 02c8 FF06     		.2byte	0x6ff
 1034 02ca AC000000 		.4byte	0xac
 1035 02ce 03       		.byte	0x3
 1036 02cf 23       		.byte	0x23
 1037 02d0 8001     		.uleb128 0x80
 1038 02d2 0A       		.uleb128 0xa
 1039 02d3 3B030000 		.4byte	.LASF43
 1040 02d7 03       		.byte	0x3
 1041 02d8 0007     		.2byte	0x700
 1042 02da AC000000 		.4byte	0xac
 1043 02de 03       		.byte	0x3
 1044 02df 23       		.byte	0x23
 1045 02e0 8401     		.uleb128 0x84
 1046 02e2 0A       		.uleb128 0xa
 1047 02e3 CE010000 		.4byte	.LASF44
 1048 02e7 03       		.byte	0x3
 1049 02e8 0107     		.2byte	0x701
 1050 02ea B1000000 		.4byte	0xb1
 1051 02ee 03       		.byte	0x3
 1052 02ef 23       		.byte	0x23
 1053 02f0 8801     		.uleb128 0x88
 1054 02f2 0A       		.uleb128 0xa
 1055 02f3 24010000 		.4byte	.LASF45
 1056 02f7 03       		.byte	0x3
 1057 02f8 0207     		.2byte	0x702
 1058 02fa AC000000 		.4byte	0xac
 1059 02fe 03       		.byte	0x3
 1060 02ff 23       		.byte	0x23
 1061 0300 8C01     		.uleb128 0x8c
 1062 0302 0A       		.uleb128 0xa
 1063 0303 A7000000 		.4byte	.LASF46
 1064 0307 03       		.byte	0x3
 1065 0308 0307     		.2byte	0x703
 1066 030a AC000000 		.4byte	0xac
ARM GAS  /tmp/ccHDvQwU.s 			page 22


 1067 030e 03       		.byte	0x3
 1068 030f 23       		.byte	0x23
 1069 0310 9001     		.uleb128 0x90
 1070 0312 0A       		.uleb128 0xa
 1071 0313 B9010000 		.4byte	.LASF47
 1072 0317 03       		.byte	0x3
 1073 0318 0407     		.2byte	0x704
 1074 031a AC000000 		.4byte	0xac
 1075 031e 03       		.byte	0x3
 1076 031f 23       		.byte	0x23
 1077 0320 9401     		.uleb128 0x94
 1078 0322 0A       		.uleb128 0xa
 1079 0323 B1000000 		.4byte	.LASF48
 1080 0327 03       		.byte	0x3
 1081 0328 0507     		.2byte	0x705
 1082 032a B1000000 		.4byte	0xb1
 1083 032e 03       		.byte	0x3
 1084 032f 23       		.byte	0x23
 1085 0330 9801     		.uleb128 0x98
 1086 0332 0A       		.uleb128 0xa
 1087 0333 03010000 		.4byte	.LASF49
 1088 0337 03       		.byte	0x3
 1089 0338 0607     		.2byte	0x706
 1090 033a C6050000 		.4byte	0x5c6
 1091 033e 03       		.byte	0x3
 1092 033f 23       		.byte	0x23
 1093 0340 9C01     		.uleb128 0x9c
 1094 0342 0A       		.uleb128 0xa
 1095 0343 BB000000 		.4byte	.LASF50
 1096 0347 03       		.byte	0x3
 1097 0348 0707     		.2byte	0x707
 1098 034a AC000000 		.4byte	0xac
 1099 034e 03       		.byte	0x3
 1100 034f 23       		.byte	0x23
 1101 0350 A001     		.uleb128 0xa0
 1102 0352 0A       		.uleb128 0xa
 1103 0353 20040000 		.4byte	.LASF51
 1104 0357 03       		.byte	0x3
 1105 0358 0807     		.2byte	0x708
 1106 035a AC000000 		.4byte	0xac
 1107 035e 03       		.byte	0x3
 1108 035f 23       		.byte	0x23
 1109 0360 A401     		.uleb128 0xa4
 1110 0362 0A       		.uleb128 0xa
 1111 0363 29040000 		.4byte	.LASF52
 1112 0367 03       		.byte	0x3
 1113 0368 0907     		.2byte	0x709
 1114 036a B1000000 		.4byte	0xb1
 1115 036e 03       		.byte	0x3
 1116 036f 23       		.byte	0x23
 1117 0370 A801     		.uleb128 0xa8
 1118 0372 0A       		.uleb128 0xa
 1119 0373 A2030000 		.4byte	.LASF53
 1120 0377 03       		.byte	0x3
 1121 0378 0A07     		.2byte	0x70a
 1122 037a CB050000 		.4byte	0x5cb
 1123 037e 03       		.byte	0x3
ARM GAS  /tmp/ccHDvQwU.s 			page 23


 1124 037f 23       		.byte	0x23
 1125 0380 AC01     		.uleb128 0xac
 1126 0382 0A       		.uleb128 0xa
 1127 0383 32040000 		.4byte	.LASF54
 1128 0387 03       		.byte	0x3
 1129 0388 0B07     		.2byte	0x70b
 1130 038a AC000000 		.4byte	0xac
 1131 038e 03       		.byte	0x3
 1132 038f 23       		.byte	0x23
 1133 0390 B001     		.uleb128 0xb0
 1134 0392 0A       		.uleb128 0xa
 1135 0393 35000000 		.4byte	.LASF55
 1136 0397 03       		.byte	0x3
 1137 0398 0C07     		.2byte	0x70c
 1138 039a AC000000 		.4byte	0xac
 1139 039e 03       		.byte	0x3
 1140 039f 23       		.byte	0x23
 1141 03a0 B401     		.uleb128 0xb4
 1142 03a2 0A       		.uleb128 0xa
 1143 03a3 EA010000 		.4byte	.LASF56
 1144 03a7 03       		.byte	0x3
 1145 03a8 0D07     		.2byte	0x70d
 1146 03aa B1000000 		.4byte	0xb1
 1147 03ae 03       		.byte	0x3
 1148 03af 23       		.byte	0x23
 1149 03b0 B801     		.uleb128 0xb8
 1150 03b2 0A       		.uleb128 0xa
 1151 03b3 0D010000 		.4byte	.LASF57
 1152 03b7 03       		.byte	0x3
 1153 03b8 0E07     		.2byte	0x70e
 1154 03ba D0050000 		.4byte	0x5d0
 1155 03be 03       		.byte	0x3
 1156 03bf 23       		.byte	0x23
 1157 03c0 BC01     		.uleb128 0xbc
 1158 03c2 0A       		.uleb128 0xa
 1159 03c3 E9000000 		.4byte	.LASF58
 1160 03c7 03       		.byte	0x3
 1161 03c8 0F07     		.2byte	0x70f
 1162 03ca AC000000 		.4byte	0xac
 1163 03ce 03       		.byte	0x3
 1164 03cf 23       		.byte	0x23
 1165 03d0 C001     		.uleb128 0xc0
 1166 03d2 0A       		.uleb128 0xa
 1167 03d3 1D030000 		.4byte	.LASF59
 1168 03d7 03       		.byte	0x3
 1169 03d8 1007     		.2byte	0x710
 1170 03da AC000000 		.4byte	0xac
 1171 03de 03       		.byte	0x3
 1172 03df 23       		.byte	0x23
 1173 03e0 C401     		.uleb128 0xc4
 1174 03e2 0A       		.uleb128 0xa
 1175 03e3 B9020000 		.4byte	.LASF60
 1176 03e7 03       		.byte	0x3
 1177 03e8 1107     		.2byte	0x711
 1178 03ea B1000000 		.4byte	0xb1
 1179 03ee 03       		.byte	0x3
 1180 03ef 23       		.byte	0x23
ARM GAS  /tmp/ccHDvQwU.s 			page 24


 1181 03f0 C801     		.uleb128 0xc8
 1182 03f2 0A       		.uleb128 0xa
 1183 03f3 7B020000 		.4byte	.LASF61
 1184 03f7 03       		.byte	0x3
 1185 03f8 1207     		.2byte	0x712
 1186 03fa D5050000 		.4byte	0x5d5
 1187 03fe 03       		.byte	0x3
 1188 03ff 23       		.byte	0x23
 1189 0400 CC01     		.uleb128 0xcc
 1190 0402 0A       		.uleb128 0xa
 1191 0403 59000000 		.4byte	.LASF62
 1192 0407 03       		.byte	0x3
 1193 0408 1307     		.2byte	0x713
 1194 040a AC000000 		.4byte	0xac
 1195 040e 03       		.byte	0x3
 1196 040f 23       		.byte	0x23
 1197 0410 D001     		.uleb128 0xd0
 1198 0412 0A       		.uleb128 0xa
 1199 0413 8A000000 		.4byte	.LASF63
 1200 0417 03       		.byte	0x3
 1201 0418 1407     		.2byte	0x714
 1202 041a AC000000 		.4byte	0xac
 1203 041e 03       		.byte	0x3
 1204 041f 23       		.byte	0x23
 1205 0420 D401     		.uleb128 0xd4
 1206 0422 0A       		.uleb128 0xa
 1207 0423 B6030000 		.4byte	.LASF64
 1208 0427 03       		.byte	0x3
 1209 0428 1507     		.2byte	0x715
 1210 042a B1000000 		.4byte	0xb1
 1211 042e 03       		.byte	0x3
 1212 042f 23       		.byte	0x23
 1213 0430 D801     		.uleb128 0xd8
 1214 0432 0A       		.uleb128 0xa
 1215 0433 86020000 		.4byte	.LASF65
 1216 0437 03       		.byte	0x3
 1217 0438 1607     		.2byte	0x716
 1218 043a DA050000 		.4byte	0x5da
 1219 043e 03       		.byte	0x3
 1220 043f 23       		.byte	0x23
 1221 0440 DC01     		.uleb128 0xdc
 1222 0442 0A       		.uleb128 0xa
 1223 0443 45020000 		.4byte	.LASF66
 1224 0447 03       		.byte	0x3
 1225 0448 1707     		.2byte	0x717
 1226 044a B1000000 		.4byte	0xb1
 1227 044e 03       		.byte	0x3
 1228 044f 23       		.byte	0x23
 1229 0450 E001     		.uleb128 0xe0
 1230 0452 0A       		.uleb128 0xa
 1231 0453 C4000000 		.4byte	.LASF67
 1232 0457 03       		.byte	0x3
 1233 0458 1807     		.2byte	0x718
 1234 045a AC000000 		.4byte	0xac
 1235 045e 03       		.byte	0x3
 1236 045f 23       		.byte	0x23
 1237 0460 E401     		.uleb128 0xe4
ARM GAS  /tmp/ccHDvQwU.s 			page 25


 1238 0462 0A       		.uleb128 0xa
 1239 0463 C1030000 		.4byte	.LASF68
 1240 0467 03       		.byte	0x3
 1241 0468 1907     		.2byte	0x719
 1242 046a B1000000 		.4byte	0xb1
 1243 046e 03       		.byte	0x3
 1244 046f 23       		.byte	0x23
 1245 0470 E801     		.uleb128 0xe8
 1246 0472 0A       		.uleb128 0xa
 1247 0473 91020000 		.4byte	.LASF69
 1248 0477 03       		.byte	0x3
 1249 0478 1A07     		.2byte	0x71a
 1250 047a DF050000 		.4byte	0x5df
 1251 047e 03       		.byte	0x3
 1252 047f 23       		.byte	0x23
 1253 0480 EC01     		.uleb128 0xec
 1254 0482 0A       		.uleb128 0xa
 1255 0483 12000000 		.4byte	.LASF70
 1256 0487 03       		.byte	0x3
 1257 0488 1B07     		.2byte	0x71b
 1258 048a AC000000 		.4byte	0xac
 1259 048e 03       		.byte	0x3
 1260 048f 23       		.byte	0x23
 1261 0490 8002     		.uleb128 0x100
 1262 0492 0A       		.uleb128 0xa
 1263 0493 9C020000 		.4byte	.LASF71
 1264 0497 03       		.byte	0x3
 1265 0498 1C07     		.2byte	0x71c
 1266 049a E4050000 		.4byte	0x5e4
 1267 049e 03       		.byte	0x3
 1268 049f 23       		.byte	0x23
 1269 04a0 8402     		.uleb128 0x104
 1270 04a2 0A       		.uleb128 0xa
 1271 04a3 02040000 		.4byte	.LASF72
 1272 04a7 03       		.byte	0x3
 1273 04a8 1D07     		.2byte	0x71d
 1274 04aa AC000000 		.4byte	0xac
 1275 04ae 03       		.byte	0x3
 1276 04af 23       		.byte	0x23
 1277 04b0 D002     		.uleb128 0x150
 1278 04b2 0A       		.uleb128 0xa
 1279 04b3 10020000 		.4byte	.LASF73
 1280 04b7 03       		.byte	0x3
 1281 04b8 1E07     		.2byte	0x71e
 1282 04ba AC000000 		.4byte	0xac
 1283 04be 03       		.byte	0x3
 1284 04bf 23       		.byte	0x23
 1285 04c0 D402     		.uleb128 0x154
 1286 04c2 0A       		.uleb128 0xa
 1287 04c3 F1000000 		.4byte	.LASF74
 1288 04c7 03       		.byte	0x3
 1289 04c8 1F07     		.2byte	0x71f
 1290 04ca AC000000 		.4byte	0xac
 1291 04ce 03       		.byte	0x3
 1292 04cf 23       		.byte	0x23
 1293 04d0 D802     		.uleb128 0x158
 1294 04d2 0A       		.uleb128 0xa
ARM GAS  /tmp/ccHDvQwU.s 			page 26


 1295 04d3 26020000 		.4byte	.LASF75
 1296 04d7 03       		.byte	0x3
 1297 04d8 2007     		.2byte	0x720
 1298 04da B1000000 		.4byte	0xb1
 1299 04de 03       		.byte	0x3
 1300 04df 23       		.byte	0x23
 1301 04e0 DC02     		.uleb128 0x15c
 1302 04e2 0A       		.uleb128 0xa
 1303 04e3 72000000 		.4byte	.LASF76
 1304 04e7 03       		.byte	0x3
 1305 04e8 2107     		.2byte	0x721
 1306 04ea B1000000 		.4byte	0xb1
 1307 04ee 03       		.byte	0x3
 1308 04ef 23       		.byte	0x23
 1309 04f0 E002     		.uleb128 0x160
 1310 04f2 0A       		.uleb128 0xa
 1311 04f3 F6020000 		.4byte	.LASF77
 1312 04f7 03       		.byte	0x3
 1313 04f8 2207     		.2byte	0x722
 1314 04fa B1000000 		.4byte	0xb1
 1315 04fe 03       		.byte	0x3
 1316 04ff 23       		.byte	0x23
 1317 0500 E402     		.uleb128 0x164
 1318 0502 0A       		.uleb128 0xa
 1319 0503 6B020000 		.4byte	.LASF78
 1320 0507 03       		.byte	0x3
 1321 0508 2307     		.2byte	0x723
 1322 050a AC000000 		.4byte	0xac
 1323 050e 03       		.byte	0x3
 1324 050f 23       		.byte	0x23
 1325 0510 E802     		.uleb128 0x168
 1326 0512 0A       		.uleb128 0xa
 1327 0513 D9010000 		.4byte	.LASF79
 1328 0517 03       		.byte	0x3
 1329 0518 2407     		.2byte	0x724
 1330 051a AC000000 		.4byte	0xac
 1331 051e 03       		.byte	0x3
 1332 051f 23       		.byte	0x23
 1333 0520 EC02     		.uleb128 0x16c
 1334 0522 0A       		.uleb128 0xa
 1335 0523 25030000 		.4byte	.LASF80
 1336 0527 03       		.byte	0x3
 1337 0528 2507     		.2byte	0x725
 1338 052a AC000000 		.4byte	0xac
 1339 052e 03       		.byte	0x3
 1340 052f 23       		.byte	0x23
 1341 0530 F002     		.uleb128 0x170
 1342 0532 0A       		.uleb128 0xa
 1343 0533 92010000 		.4byte	.LASF81
 1344 0537 03       		.byte	0x3
 1345 0538 2607     		.2byte	0x726
 1346 053a AC000000 		.4byte	0xac
 1347 053e 03       		.byte	0x3
 1348 053f 23       		.byte	0x23
 1349 0540 F402     		.uleb128 0x174
 1350 0542 0A       		.uleb128 0xa
 1351 0543 3C040000 		.4byte	.LASF82
ARM GAS  /tmp/ccHDvQwU.s 			page 27


 1352 0547 03       		.byte	0x3
 1353 0548 2707     		.2byte	0x727
 1354 054a AC000000 		.4byte	0xac
 1355 054e 03       		.byte	0x3
 1356 054f 23       		.byte	0x23
 1357 0550 F802     		.uleb128 0x178
 1358 0552 0A       		.uleb128 0xa
 1359 0553 F4010000 		.4byte	.LASF83
 1360 0557 03       		.byte	0x3
 1361 0558 2807     		.2byte	0x728
 1362 055a AC000000 		.4byte	0xac
 1363 055e 03       		.byte	0x3
 1364 055f 23       		.byte	0x23
 1365 0560 FC02     		.uleb128 0x17c
 1366 0562 0A       		.uleb128 0xa
 1367 0563 E1010000 		.4byte	.LASF84
 1368 0567 03       		.byte	0x3
 1369 0568 2907     		.2byte	0x729
 1370 056a AC000000 		.4byte	0xac
 1371 056e 03       		.byte	0x3
 1372 056f 23       		.byte	0x23
 1373 0570 8003     		.uleb128 0x180
 1374 0572 0A       		.uleb128 0xa
 1375 0573 00000000 		.4byte	.LASF85
 1376 0577 03       		.byte	0x3
 1377 0578 2A07     		.2byte	0x72a
 1378 057a AC000000 		.4byte	0xac
 1379 057e 03       		.byte	0x3
 1380 057f 23       		.byte	0x23
 1381 0580 8403     		.uleb128 0x184
 1382 0582 0A       		.uleb128 0xa
 1383 0583 3C020000 		.4byte	.LASF86
 1384 0587 03       		.byte	0x3
 1385 0588 2B07     		.2byte	0x72b
 1386 058a AC000000 		.4byte	0xac
 1387 058e 03       		.byte	0x3
 1388 058f 23       		.byte	0x23
 1389 0590 8803     		.uleb128 0x188
 1390 0592 0A       		.uleb128 0xa
 1391 0593 55020000 		.4byte	.LASF87
 1392 0597 03       		.byte	0x3
 1393 0598 2C07     		.2byte	0x72c
 1394 059a B1000000 		.4byte	0xb1
 1395 059e 03       		.byte	0x3
 1396 059f 23       		.byte	0x23
 1397 05a0 8C03     		.uleb128 0x18c
 1398 05a2 00       		.byte	0
 1399 05a3 07       		.uleb128 0x7
 1400 05a4 C6000000 		.4byte	0xc6
 1401 05a8 07       		.uleb128 0x7
 1402 05a9 C6000000 		.4byte	0xc6
 1403 05ad 07       		.uleb128 0x7
 1404 05ae C6000000 		.4byte	0xc6
 1405 05b2 07       		.uleb128 0x7
 1406 05b3 C6000000 		.4byte	0xc6
 1407 05b7 07       		.uleb128 0x7
 1408 05b8 C6000000 		.4byte	0xc6
ARM GAS  /tmp/ccHDvQwU.s 			page 28


 1409 05bc 07       		.uleb128 0x7
 1410 05bd D6000000 		.4byte	0xd6
 1411 05c1 07       		.uleb128 0x7
 1412 05c2 D6000000 		.4byte	0xd6
 1413 05c6 07       		.uleb128 0x7
 1414 05c7 C6000000 		.4byte	0xc6
 1415 05cb 07       		.uleb128 0x7
 1416 05cc C6000000 		.4byte	0xc6
 1417 05d0 07       		.uleb128 0x7
 1418 05d1 C6000000 		.4byte	0xc6
 1419 05d5 07       		.uleb128 0x7
 1420 05d6 C6000000 		.4byte	0xc6
 1421 05da 07       		.uleb128 0x7
 1422 05db C6000000 		.4byte	0xc6
 1423 05df 07       		.uleb128 0x7
 1424 05e0 E6000000 		.4byte	0xe6
 1425 05e4 07       		.uleb128 0x7
 1426 05e5 B6000000 		.4byte	0xb6
 1427 05e9 0B       		.uleb128 0xb
 1428 05ea 50696F00 		.ascii	"Pio\000"
 1429 05ee 03       		.byte	0x3
 1430 05ef 2D07     		.2byte	0x72d
 1431 05f1 F6000000 		.4byte	0xf6
 1432 05f5 0C       		.uleb128 0xc
 1433 05f6 0B020000 		.4byte	.LASF107
 1434 05fa 0C       		.byte	0xc
 1435 05fb 04       		.byte	0x4
 1436 05fc A7       		.byte	0xa7
 1437 05fd 47060000 		.4byte	0x647
 1438 0601 0D       		.uleb128 0xd
 1439 0602 55040000 		.4byte	.LASF88
 1440 0606 04       		.byte	0x4
 1441 0607 AA       		.byte	0xaa
 1442 0608 91000000 		.4byte	0x91
 1443 060c 02       		.byte	0x2
 1444 060d 23       		.byte	0x23
 1445 060e 00       		.uleb128 0
 1446 060f 0E       		.uleb128 0xe
 1447 0610 70696F00 		.ascii	"pio\000"
 1448 0614 04       		.byte	0x4
 1449 0615 AC       		.byte	0xac
 1450 0616 47060000 		.4byte	0x647
 1451 061a 02       		.byte	0x2
 1452 061b 23       		.byte	0x23
 1453 061c 04       		.uleb128 0x4
 1454 061d 0E       		.uleb128 0xe
 1455 061e 696400   		.ascii	"id\000"
 1456 0621 04       		.byte	0x4
 1457 0622 AE       		.byte	0xae
 1458 0623 86000000 		.4byte	0x86
 1459 0627 02       		.byte	0x2
 1460 0628 23       		.byte	0x23
 1461 0629 08       		.uleb128 0x8
 1462 062a 0D       		.uleb128 0xd
 1463 062b 50020000 		.4byte	.LASF89
 1464 062f 04       		.byte	0x4
 1465 0630 B0       		.byte	0xb0
ARM GAS  /tmp/ccHDvQwU.s 			page 29


 1466 0631 86000000 		.4byte	0x86
 1467 0635 02       		.byte	0x2
 1468 0636 23       		.byte	0x23
 1469 0637 09       		.uleb128 0x9
 1470 0638 0D       		.uleb128 0xd
 1471 0639 95000000 		.4byte	.LASF90
 1472 063d 04       		.byte	0x4
 1473 063e B2       		.byte	0xb2
 1474 063f 86000000 		.4byte	0x86
 1475 0643 02       		.byte	0x2
 1476 0644 23       		.byte	0x23
 1477 0645 0A       		.uleb128 0xa
 1478 0646 00       		.byte	0
 1479 0647 0F       		.uleb128 0xf
 1480 0648 04       		.byte	0x4
 1481 0649 E9050000 		.4byte	0x5e9
 1482 064d 10       		.uleb128 0x10
 1483 064e 50696E00 		.ascii	"Pin\000"
 1484 0652 04       		.byte	0x4
 1485 0653 B3       		.byte	0xb3
 1486 0654 F5050000 		.4byte	0x5f5
 1487 0658 11       		.uleb128 0x11
 1488 0659 01       		.byte	0x1
 1489 065a 17010000 		.4byte	.LASF91
 1490 065e 01       		.byte	0x1
 1491 065f 10       		.byte	0x10
 1492 0660 01       		.byte	0x1
 1493 0661 00000000 		.4byte	.LFB35
 1494 0665 82000000 		.4byte	.LFE35
 1495 0669 00000000 		.4byte	.LLST0
 1496 066d 95060000 		.4byte	0x695
 1497 0671 12       		.uleb128 0x12
 1498 0672 6D7300   		.ascii	"ms\000"
 1499 0675 01       		.byte	0x1
 1500 0676 10       		.byte	0x10
 1501 0677 91000000 		.4byte	0x91
 1502 067b 02       		.byte	0x2
 1503 067c 91       		.byte	0x91
 1504 067d 6C       		.sleb128 -20
 1505 067e 13       		.uleb128 0x13
 1506 067f 28000000 		.4byte	.LBB2
 1507 0683 7A000000 		.4byte	.LBE2
 1508 0687 14       		.uleb128 0x14
 1509 0688 6900     		.ascii	"i\000"
 1510 068a 01       		.byte	0x1
 1511 068b 14       		.byte	0x14
 1512 068c 91000000 		.4byte	0x91
 1513 0690 02       		.byte	0x2
 1514 0691 91       		.byte	0x91
 1515 0692 74       		.sleb128 -12
 1516 0693 00       		.byte	0
 1517 0694 00       		.byte	0
 1518 0695 15       		.uleb128 0x15
 1519 0696 01       		.byte	0x1
 1520 0697 2D010000 		.4byte	.LASF108
 1521 069b 01       		.byte	0x1
 1522 069c 1F       		.byte	0x1f
ARM GAS  /tmp/ccHDvQwU.s 			page 30


 1523 069d 00000000 		.4byte	.LFB36
 1524 06a1 16000000 		.4byte	.LFE36
 1525 06a5 38000000 		.4byte	.LLST1
 1526 06a9 11       		.uleb128 0x11
 1527 06aa 01       		.byte	0x1
 1528 06ab 0C030000 		.4byte	.LASF92
 1529 06af 01       		.byte	0x1
 1530 06b0 24       		.byte	0x24
 1531 06b1 01       		.byte	0x1
 1532 06b2 00000000 		.4byte	.LFB37
 1533 06b6 8E000000 		.4byte	.LFE37
 1534 06ba 64000000 		.4byte	.LLST2
 1535 06be FD060000 		.4byte	0x6fd
 1536 06c2 12       		.uleb128 0x12
 1537 06c3 6C656400 		.ascii	"led\000"
 1538 06c7 01       		.byte	0x1
 1539 06c8 24       		.byte	0x24
 1540 06c9 86000000 		.4byte	0x86
 1541 06cd 02       		.byte	0x2
 1542 06ce 91       		.byte	0x91
 1543 06cf 6F       		.sleb128 -17
 1544 06d0 16       		.uleb128 0x16
 1545 06d1 55040000 		.4byte	.LASF88
 1546 06d5 01       		.byte	0x1
 1547 06d6 26       		.byte	0x26
 1548 06d7 91000000 		.4byte	0x91
 1549 06db 02       		.byte	0x2
 1550 06dc 91       		.byte	0x91
 1551 06dd 70       		.sleb128 -16
 1552 06de 14       		.uleb128 0x14
 1553 06df 70696F00 		.ascii	"pio\000"
 1554 06e3 01       		.byte	0x1
 1555 06e4 27       		.byte	0x27
 1556 06e5 47060000 		.4byte	0x647
 1557 06e9 02       		.byte	0x2
 1558 06ea 91       		.byte	0x91
 1559 06eb 74       		.sleb128 -12
 1560 06ec 17       		.uleb128 0x17
 1561 06ed 85010000 		.4byte	.LASF94
 1562 06f1 FD060000 		.4byte	0x6fd
 1563 06f5 01       		.byte	0x1
 1564 06f6 05       		.byte	0x5
 1565 06f7 03       		.byte	0x3
 1566 06f8 4C000000 		.4byte	__FUNCTION__.7525
 1567 06fc 00       		.byte	0
 1568 06fd 08       		.uleb128 0x8
 1569 06fe 76000000 		.4byte	0x76
 1570 0702 11       		.uleb128 0x11
 1571 0703 01       		.byte	0x1
 1572 0704 2D000000 		.4byte	.LASF93
 1573 0708 01       		.byte	0x1
 1574 0709 34       		.byte	0x34
 1575 070a 01       		.byte	0x1
 1576 070b 00000000 		.4byte	.LFB38
 1577 070f 7A000000 		.4byte	.LFE38
 1578 0713 9C000000 		.4byte	.LLST3
 1579 0717 56070000 		.4byte	0x756
ARM GAS  /tmp/ccHDvQwU.s 			page 31


 1580 071b 12       		.uleb128 0x12
 1581 071c 6C656400 		.ascii	"led\000"
 1582 0720 01       		.byte	0x1
 1583 0721 34       		.byte	0x34
 1584 0722 86000000 		.4byte	0x86
 1585 0726 02       		.byte	0x2
 1586 0727 91       		.byte	0x91
 1587 0728 6F       		.sleb128 -17
 1588 0729 14       		.uleb128 0x14
 1589 072a 70696F00 		.ascii	"pio\000"
 1590 072e 01       		.byte	0x1
 1591 072f 36       		.byte	0x36
 1592 0730 47060000 		.4byte	0x647
 1593 0734 02       		.byte	0x2
 1594 0735 91       		.byte	0x91
 1595 0736 74       		.sleb128 -12
 1596 0737 16       		.uleb128 0x16
 1597 0738 55040000 		.4byte	.LASF88
 1598 073c 01       		.byte	0x1
 1599 073d 37       		.byte	0x37
 1600 073e 91000000 		.4byte	0x91
 1601 0742 02       		.byte	0x2
 1602 0743 91       		.byte	0x91
 1603 0744 70       		.sleb128 -16
 1604 0745 17       		.uleb128 0x17
 1605 0746 85010000 		.4byte	.LASF94
 1606 074a 56070000 		.4byte	0x756
 1607 074e 01       		.byte	0x1
 1608 074f 05       		.byte	0x5
 1609 0750 03       		.byte	0x3
 1610 0751 44000000 		.4byte	__FUNCTION__.7531
 1611 0755 00       		.byte	0
 1612 0756 08       		.uleb128 0x8
 1613 0757 76000000 		.4byte	0x76
 1614 075b 11       		.uleb128 0x11
 1615 075c 01       		.byte	0x1
 1616 075d 73020000 		.4byte	.LASF95
 1617 0761 01       		.byte	0x1
 1618 0762 40       		.byte	0x40
 1619 0763 01       		.byte	0x1
 1620 0764 00000000 		.4byte	.LFB39
 1621 0768 7A000000 		.4byte	.LFE39
 1622 076c D4000000 		.4byte	.LLST4
 1623 0770 AF070000 		.4byte	0x7af
 1624 0774 12       		.uleb128 0x12
 1625 0775 6C656400 		.ascii	"led\000"
 1626 0779 01       		.byte	0x1
 1627 077a 40       		.byte	0x40
 1628 077b 86000000 		.4byte	0x86
 1629 077f 02       		.byte	0x2
 1630 0780 91       		.byte	0x91
 1631 0781 6F       		.sleb128 -17
 1632 0782 14       		.uleb128 0x14
 1633 0783 70696F00 		.ascii	"pio\000"
 1634 0787 01       		.byte	0x1
 1635 0788 42       		.byte	0x42
 1636 0789 47060000 		.4byte	0x647
ARM GAS  /tmp/ccHDvQwU.s 			page 32


 1637 078d 02       		.byte	0x2
 1638 078e 91       		.byte	0x91
 1639 078f 74       		.sleb128 -12
 1640 0790 16       		.uleb128 0x16
 1641 0791 55040000 		.4byte	.LASF88
 1642 0795 01       		.byte	0x1
 1643 0796 43       		.byte	0x43
 1644 0797 91000000 		.4byte	0x91
 1645 079b 02       		.byte	0x2
 1646 079c 91       		.byte	0x91
 1647 079d 70       		.sleb128 -16
 1648 079e 17       		.uleb128 0x17
 1649 079f 85010000 		.4byte	.LASF94
 1650 07a3 AF070000 		.4byte	0x7af
 1651 07a7 01       		.byte	0x1
 1652 07a8 05       		.byte	0x5
 1653 07a9 03       		.byte	0x3
 1654 07aa 3C000000 		.4byte	__FUNCTION__.7537
 1655 07ae 00       		.byte	0
 1656 07af 08       		.uleb128 0x8
 1657 07b0 76000000 		.4byte	0x76
 1658 07b4 18       		.uleb128 0x18
 1659 07b5 01       		.byte	0x1
 1660 07b6 FB000000 		.4byte	.LASF99
 1661 07ba 01       		.byte	0x1
 1662 07bb 4C       		.byte	0x4c
 1663 07bc 01       		.byte	0x1
 1664 07bd 86000000 		.4byte	0x86
 1665 07c1 00000000 		.4byte	.LFB40
 1666 07c5 84000000 		.4byte	.LFE40
 1667 07c9 0C010000 		.4byte	.LLST5
 1668 07cd 0C080000 		.4byte	0x80c
 1669 07d1 12       		.uleb128 0x12
 1670 07d2 6C656400 		.ascii	"led\000"
 1671 07d6 01       		.byte	0x1
 1672 07d7 4C       		.byte	0x4c
 1673 07d8 86000000 		.4byte	0x86
 1674 07dc 02       		.byte	0x2
 1675 07dd 91       		.byte	0x91
 1676 07de 6F       		.sleb128 -17
 1677 07df 14       		.uleb128 0x14
 1678 07e0 70696F00 		.ascii	"pio\000"
 1679 07e4 01       		.byte	0x1
 1680 07e5 4E       		.byte	0x4e
 1681 07e6 47060000 		.4byte	0x647
 1682 07ea 02       		.byte	0x2
 1683 07eb 91       		.byte	0x91
 1684 07ec 74       		.sleb128 -12
 1685 07ed 16       		.uleb128 0x16
 1686 07ee 55040000 		.4byte	.LASF88
 1687 07f2 01       		.byte	0x1
 1688 07f3 4F       		.byte	0x4f
 1689 07f4 91000000 		.4byte	0x91
 1690 07f8 02       		.byte	0x2
 1691 07f9 91       		.byte	0x91
 1692 07fa 70       		.sleb128 -16
 1693 07fb 17       		.uleb128 0x17
ARM GAS  /tmp/ccHDvQwU.s 			page 33


 1694 07fc 85010000 		.4byte	.LASF94
 1695 0800 0C080000 		.4byte	0x80c
 1696 0804 01       		.byte	0x1
 1697 0805 05       		.byte	0x5
 1698 0806 03       		.byte	0x3
 1699 0807 34000000 		.4byte	__FUNCTION__.7543
 1700 080b 00       		.byte	0
 1701 080c 08       		.uleb128 0x8
 1702 080d 76000000 		.4byte	0x76
 1703 0811 11       		.uleb128 0x11
 1704 0812 01       		.byte	0x1
 1705 0813 AC030000 		.4byte	.LASF96
 1706 0817 01       		.byte	0x1
 1707 0818 5B       		.byte	0x5b
 1708 0819 01       		.byte	0x1
 1709 081a 00000000 		.4byte	.LFB41
 1710 081e 3A000000 		.4byte	.LFE41
 1711 0822 44010000 		.4byte	.LLST6
 1712 0826 47080000 		.4byte	0x847
 1713 082a 12       		.uleb128 0x12
 1714 082b 6C656400 		.ascii	"led\000"
 1715 082f 01       		.byte	0x1
 1716 0830 5B       		.byte	0x5b
 1717 0831 86000000 		.4byte	0x86
 1718 0835 02       		.byte	0x2
 1719 0836 91       		.byte	0x91
 1720 0837 77       		.sleb128 -9
 1721 0838 12       		.uleb128 0x12
 1722 0839 6E756D00 		.ascii	"num\000"
 1723 083d 01       		.byte	0x1
 1724 083e 5B       		.byte	0x5b
 1725 083f 91000000 		.4byte	0x91
 1726 0843 02       		.byte	0x2
 1727 0844 91       		.byte	0x91
 1728 0845 70       		.sleb128 -16
 1729 0846 00       		.byte	0
 1730 0847 11       		.uleb128 0x11
 1731 0848 01       		.byte	0x1
 1732 0849 65010000 		.4byte	.LASF97
 1733 084d 01       		.byte	0x1
 1734 084e 63       		.byte	0x63
 1735 084f 01       		.byte	0x1
 1736 0850 00000000 		.4byte	.LFB42
 1737 0854 2E000000 		.4byte	.LFE42
 1738 0858 7C010000 		.4byte	.LLST7
 1739 085c 7D080000 		.4byte	0x87d
 1740 0860 12       		.uleb128 0x12
 1741 0861 6C656400 		.ascii	"led\000"
 1742 0865 01       		.byte	0x1
 1743 0866 63       		.byte	0x63
 1744 0867 86000000 		.4byte	0x86
 1745 086b 02       		.byte	0x2
 1746 086c 91       		.byte	0x91
 1747 086d 77       		.sleb128 -9
 1748 086e 12       		.uleb128 0x12
 1749 086f 6E756D00 		.ascii	"num\000"
 1750 0873 01       		.byte	0x1
ARM GAS  /tmp/ccHDvQwU.s 			page 34


 1751 0874 63       		.byte	0x63
 1752 0875 91000000 		.4byte	0x91
 1753 0879 02       		.byte	0x2
 1754 087a 91       		.byte	0x91
 1755 087b 70       		.sleb128 -16
 1756 087c 00       		.byte	0
 1757 087d 11       		.uleb128 0x11
 1758 087e 01       		.byte	0x1
 1759 087f 2D030000 		.4byte	.LASF98
 1760 0883 01       		.byte	0x1
 1761 0884 6C       		.byte	0x6c
 1762 0885 01       		.byte	0x1
 1763 0886 00000000 		.4byte	.LFB43
 1764 088a 26000000 		.4byte	.LFE43
 1765 088e B4010000 		.4byte	.LLST8
 1766 0892 A5080000 		.4byte	0x8a5
 1767 0896 12       		.uleb128 0x12
 1768 0897 6C656400 		.ascii	"led\000"
 1769 089b 01       		.byte	0x1
 1770 089c 6C       		.byte	0x6c
 1771 089d 86000000 		.4byte	0x86
 1772 08a1 02       		.byte	0x2
 1773 08a2 91       		.byte	0x91
 1774 08a3 77       		.sleb128 -9
 1775 08a4 00       		.byte	0
 1776 08a5 18       		.uleb128 0x18
 1777 08a6 01       		.byte	0x1
 1778 08a7 AC010000 		.4byte	.LASF100
 1779 08ab 01       		.byte	0x1
 1780 08ac 74       		.byte	0x74
 1781 08ad 01       		.byte	0x1
 1782 08ae 86000000 		.4byte	0x86
 1783 08b2 00000000 		.4byte	.LFB44
 1784 08b6 26000000 		.4byte	.LFE44
 1785 08ba EC010000 		.4byte	.LLST9
 1786 08be D1080000 		.4byte	0x8d1
 1787 08c2 12       		.uleb128 0x12
 1788 08c3 6C656400 		.ascii	"led\000"
 1789 08c7 01       		.byte	0x1
 1790 08c8 74       		.byte	0x74
 1791 08c9 86000000 		.4byte	0x86
 1792 08cd 02       		.byte	0x2
 1793 08ce 91       		.byte	0x91
 1794 08cf 77       		.sleb128 -9
 1795 08d0 00       		.byte	0
 1796 08d1 19       		.uleb128 0x19
 1797 08d2 13040000 		.4byte	.LASF103
 1798 08d6 05       		.byte	0x5
 1799 08d7 CE06     		.2byte	0x6ce
 1800 08d9 DF080000 		.4byte	0x8df
 1801 08dd 01       		.byte	0x1
 1802 08de 01       		.byte	0x1
 1803 08df 07       		.uleb128 0x7
 1804 08e0 45000000 		.4byte	0x45
 1805 08e4 04       		.uleb128 0x4
 1806 08e5 4D060000 		.4byte	0x64d
 1807 08e9 F4080000 		.4byte	0x8f4
ARM GAS  /tmp/ccHDvQwU.s 			page 35


 1808 08ed 05       		.uleb128 0x5
 1809 08ee 4C000000 		.4byte	0x4c
 1810 08f2 01       		.byte	0x1
 1811 08f3 00       		.byte	0
 1812 08f4 16       		.uleb128 0x16
 1813 08f5 64000000 		.4byte	.LASF101
 1814 08f9 01       		.byte	0x1
 1815 08fa 0C       		.byte	0xc
 1816 08fb 05090000 		.4byte	0x905
 1817 08ff 05       		.byte	0x5
 1818 0900 03       		.byte	0x3
 1819 0901 00000000 		.4byte	leds
 1820 0905 08       		.uleb128 0x8
 1821 0906 E4080000 		.4byte	0x8e4
 1822 090a 16       		.uleb128 0x16
 1823 090b 1E000000 		.4byte	.LASF102
 1824 090f 01       		.byte	0x1
 1825 0910 0D       		.byte	0xd
 1826 0911 1B090000 		.4byte	0x91b
 1827 0915 05       		.byte	0x5
 1828 0916 03       		.byte	0x3
 1829 0917 00000000 		.4byte	blinks
 1830 091b 07       		.uleb128 0x7
 1831 091c 9C000000 		.4byte	0x9c
 1832 0920 19       		.uleb128 0x19
 1833 0921 13040000 		.4byte	.LASF103
 1834 0925 05       		.byte	0x5
 1835 0926 CE06     		.2byte	0x6ce
 1836 0928 DF080000 		.4byte	0x8df
 1837 092c 01       		.byte	0x1
 1838 092d 01       		.byte	0x1
 1839 092e 00       		.byte	0
 1840              		.section	.debug_abbrev,"",%progbits
 1841              	.Ldebug_abbrev0:
 1842 0000 01       		.uleb128 0x1
 1843 0001 11       		.uleb128 0x11
 1844 0002 01       		.byte	0x1
 1845 0003 25       		.uleb128 0x25
 1846 0004 0E       		.uleb128 0xe
 1847 0005 13       		.uleb128 0x13
 1848 0006 0B       		.uleb128 0xb
 1849 0007 03       		.uleb128 0x3
 1850 0008 0E       		.uleb128 0xe
 1851 0009 1B       		.uleb128 0x1b
 1852 000a 0E       		.uleb128 0xe
 1853 000b 11       		.uleb128 0x11
 1854 000c 01       		.uleb128 0x1
 1855 000d 52       		.uleb128 0x52
 1856 000e 01       		.uleb128 0x1
 1857 000f 55       		.uleb128 0x55
 1858 0010 06       		.uleb128 0x6
 1859 0011 10       		.uleb128 0x10
 1860 0012 06       		.uleb128 0x6
 1861 0013 00       		.byte	0
 1862 0014 00       		.byte	0
 1863 0015 02       		.uleb128 0x2
 1864 0016 24       		.uleb128 0x24
ARM GAS  /tmp/ccHDvQwU.s 			page 36


 1865 0017 00       		.byte	0
 1866 0018 0B       		.uleb128 0xb
 1867 0019 0B       		.uleb128 0xb
 1868 001a 3E       		.uleb128 0x3e
 1869 001b 0B       		.uleb128 0xb
 1870 001c 03       		.uleb128 0x3
 1871 001d 0E       		.uleb128 0xe
 1872 001e 00       		.byte	0
 1873 001f 00       		.byte	0
 1874 0020 03       		.uleb128 0x3
 1875 0021 24       		.uleb128 0x24
 1876 0022 00       		.byte	0
 1877 0023 0B       		.uleb128 0xb
 1878 0024 0B       		.uleb128 0xb
 1879 0025 3E       		.uleb128 0x3e
 1880 0026 0B       		.uleb128 0xb
 1881 0027 03       		.uleb128 0x3
 1882 0028 08       		.uleb128 0x8
 1883 0029 00       		.byte	0
 1884 002a 00       		.byte	0
 1885 002b 04       		.uleb128 0x4
 1886 002c 01       		.uleb128 0x1
 1887 002d 01       		.byte	0x1
 1888 002e 49       		.uleb128 0x49
 1889 002f 13       		.uleb128 0x13
 1890 0030 01       		.uleb128 0x1
 1891 0031 13       		.uleb128 0x13
 1892 0032 00       		.byte	0
 1893 0033 00       		.byte	0
 1894 0034 05       		.uleb128 0x5
 1895 0035 21       		.uleb128 0x21
 1896 0036 00       		.byte	0
 1897 0037 49       		.uleb128 0x49
 1898 0038 13       		.uleb128 0x13
 1899 0039 2F       		.uleb128 0x2f
 1900 003a 0B       		.uleb128 0xb
 1901 003b 00       		.byte	0
 1902 003c 00       		.byte	0
 1903 003d 06       		.uleb128 0x6
 1904 003e 16       		.uleb128 0x16
 1905 003f 00       		.byte	0
 1906 0040 03       		.uleb128 0x3
 1907 0041 0E       		.uleb128 0xe
 1908 0042 3A       		.uleb128 0x3a
 1909 0043 0B       		.uleb128 0xb
 1910 0044 3B       		.uleb128 0x3b
 1911 0045 0B       		.uleb128 0xb
 1912 0046 49       		.uleb128 0x49
 1913 0047 13       		.uleb128 0x13
 1914 0048 00       		.byte	0
 1915 0049 00       		.byte	0
 1916 004a 07       		.uleb128 0x7
 1917 004b 35       		.uleb128 0x35
 1918 004c 00       		.byte	0
 1919 004d 49       		.uleb128 0x49
 1920 004e 13       		.uleb128 0x13
 1921 004f 00       		.byte	0
ARM GAS  /tmp/ccHDvQwU.s 			page 37


 1922 0050 00       		.byte	0
 1923 0051 08       		.uleb128 0x8
 1924 0052 26       		.uleb128 0x26
 1925 0053 00       		.byte	0
 1926 0054 49       		.uleb128 0x49
 1927 0055 13       		.uleb128 0x13
 1928 0056 00       		.byte	0
 1929 0057 00       		.byte	0
 1930 0058 09       		.uleb128 0x9
 1931 0059 13       		.uleb128 0x13
 1932 005a 01       		.byte	0x1
 1933 005b 0B       		.uleb128 0xb
 1934 005c 05       		.uleb128 0x5
 1935 005d 3A       		.uleb128 0x3a
 1936 005e 0B       		.uleb128 0xb
 1937 005f 3B       		.uleb128 0x3b
 1938 0060 05       		.uleb128 0x5
 1939 0061 01       		.uleb128 0x1
 1940 0062 13       		.uleb128 0x13
 1941 0063 00       		.byte	0
 1942 0064 00       		.byte	0
 1943 0065 0A       		.uleb128 0xa
 1944 0066 0D       		.uleb128 0xd
 1945 0067 00       		.byte	0
 1946 0068 03       		.uleb128 0x3
 1947 0069 0E       		.uleb128 0xe
 1948 006a 3A       		.uleb128 0x3a
 1949 006b 0B       		.uleb128 0xb
 1950 006c 3B       		.uleb128 0x3b
 1951 006d 05       		.uleb128 0x5
 1952 006e 49       		.uleb128 0x49
 1953 006f 13       		.uleb128 0x13
 1954 0070 38       		.uleb128 0x38
 1955 0071 0A       		.uleb128 0xa
 1956 0072 00       		.byte	0
 1957 0073 00       		.byte	0
 1958 0074 0B       		.uleb128 0xb
 1959 0075 16       		.uleb128 0x16
 1960 0076 00       		.byte	0
 1961 0077 03       		.uleb128 0x3
 1962 0078 08       		.uleb128 0x8
 1963 0079 3A       		.uleb128 0x3a
 1964 007a 0B       		.uleb128 0xb
 1965 007b 3B       		.uleb128 0x3b
 1966 007c 05       		.uleb128 0x5
 1967 007d 49       		.uleb128 0x49
 1968 007e 13       		.uleb128 0x13
 1969 007f 00       		.byte	0
 1970 0080 00       		.byte	0
 1971 0081 0C       		.uleb128 0xc
 1972 0082 13       		.uleb128 0x13
 1973 0083 01       		.byte	0x1
 1974 0084 03       		.uleb128 0x3
 1975 0085 0E       		.uleb128 0xe
 1976 0086 0B       		.uleb128 0xb
 1977 0087 0B       		.uleb128 0xb
 1978 0088 3A       		.uleb128 0x3a
ARM GAS  /tmp/ccHDvQwU.s 			page 38


 1979 0089 0B       		.uleb128 0xb
 1980 008a 3B       		.uleb128 0x3b
 1981 008b 0B       		.uleb128 0xb
 1982 008c 01       		.uleb128 0x1
 1983 008d 13       		.uleb128 0x13
 1984 008e 00       		.byte	0
 1985 008f 00       		.byte	0
 1986 0090 0D       		.uleb128 0xd
 1987 0091 0D       		.uleb128 0xd
 1988 0092 00       		.byte	0
 1989 0093 03       		.uleb128 0x3
 1990 0094 0E       		.uleb128 0xe
 1991 0095 3A       		.uleb128 0x3a
 1992 0096 0B       		.uleb128 0xb
 1993 0097 3B       		.uleb128 0x3b
 1994 0098 0B       		.uleb128 0xb
 1995 0099 49       		.uleb128 0x49
 1996 009a 13       		.uleb128 0x13
 1997 009b 38       		.uleb128 0x38
 1998 009c 0A       		.uleb128 0xa
 1999 009d 00       		.byte	0
 2000 009e 00       		.byte	0
 2001 009f 0E       		.uleb128 0xe
 2002 00a0 0D       		.uleb128 0xd
 2003 00a1 00       		.byte	0
 2004 00a2 03       		.uleb128 0x3
 2005 00a3 08       		.uleb128 0x8
 2006 00a4 3A       		.uleb128 0x3a
 2007 00a5 0B       		.uleb128 0xb
 2008 00a6 3B       		.uleb128 0x3b
 2009 00a7 0B       		.uleb128 0xb
 2010 00a8 49       		.uleb128 0x49
 2011 00a9 13       		.uleb128 0x13
 2012 00aa 38       		.uleb128 0x38
 2013 00ab 0A       		.uleb128 0xa
 2014 00ac 00       		.byte	0
 2015 00ad 00       		.byte	0
 2016 00ae 0F       		.uleb128 0xf
 2017 00af 0F       		.uleb128 0xf
 2018 00b0 00       		.byte	0
 2019 00b1 0B       		.uleb128 0xb
 2020 00b2 0B       		.uleb128 0xb
 2021 00b3 49       		.uleb128 0x49
 2022 00b4 13       		.uleb128 0x13
 2023 00b5 00       		.byte	0
 2024 00b6 00       		.byte	0
 2025 00b7 10       		.uleb128 0x10
 2026 00b8 16       		.uleb128 0x16
 2027 00b9 00       		.byte	0
 2028 00ba 03       		.uleb128 0x3
 2029 00bb 08       		.uleb128 0x8
 2030 00bc 3A       		.uleb128 0x3a
 2031 00bd 0B       		.uleb128 0xb
 2032 00be 3B       		.uleb128 0x3b
 2033 00bf 0B       		.uleb128 0xb
 2034 00c0 49       		.uleb128 0x49
 2035 00c1 13       		.uleb128 0x13
ARM GAS  /tmp/ccHDvQwU.s 			page 39


 2036 00c2 00       		.byte	0
 2037 00c3 00       		.byte	0
 2038 00c4 11       		.uleb128 0x11
 2039 00c5 2E       		.uleb128 0x2e
 2040 00c6 01       		.byte	0x1
 2041 00c7 3F       		.uleb128 0x3f
 2042 00c8 0C       		.uleb128 0xc
 2043 00c9 03       		.uleb128 0x3
 2044 00ca 0E       		.uleb128 0xe
 2045 00cb 3A       		.uleb128 0x3a
 2046 00cc 0B       		.uleb128 0xb
 2047 00cd 3B       		.uleb128 0x3b
 2048 00ce 0B       		.uleb128 0xb
 2049 00cf 27       		.uleb128 0x27
 2050 00d0 0C       		.uleb128 0xc
 2051 00d1 11       		.uleb128 0x11
 2052 00d2 01       		.uleb128 0x1
 2053 00d3 12       		.uleb128 0x12
 2054 00d4 01       		.uleb128 0x1
 2055 00d5 40       		.uleb128 0x40
 2056 00d6 06       		.uleb128 0x6
 2057 00d7 01       		.uleb128 0x1
 2058 00d8 13       		.uleb128 0x13
 2059 00d9 00       		.byte	0
 2060 00da 00       		.byte	0
 2061 00db 12       		.uleb128 0x12
 2062 00dc 05       		.uleb128 0x5
 2063 00dd 00       		.byte	0
 2064 00de 03       		.uleb128 0x3
 2065 00df 08       		.uleb128 0x8
 2066 00e0 3A       		.uleb128 0x3a
 2067 00e1 0B       		.uleb128 0xb
 2068 00e2 3B       		.uleb128 0x3b
 2069 00e3 0B       		.uleb128 0xb
 2070 00e4 49       		.uleb128 0x49
 2071 00e5 13       		.uleb128 0x13
 2072 00e6 02       		.uleb128 0x2
 2073 00e7 0A       		.uleb128 0xa
 2074 00e8 00       		.byte	0
 2075 00e9 00       		.byte	0
 2076 00ea 13       		.uleb128 0x13
 2077 00eb 0B       		.uleb128 0xb
 2078 00ec 01       		.byte	0x1
 2079 00ed 11       		.uleb128 0x11
 2080 00ee 01       		.uleb128 0x1
 2081 00ef 12       		.uleb128 0x12
 2082 00f0 01       		.uleb128 0x1
 2083 00f1 00       		.byte	0
 2084 00f2 00       		.byte	0
 2085 00f3 14       		.uleb128 0x14
 2086 00f4 34       		.uleb128 0x34
 2087 00f5 00       		.byte	0
 2088 00f6 03       		.uleb128 0x3
 2089 00f7 08       		.uleb128 0x8
 2090 00f8 3A       		.uleb128 0x3a
 2091 00f9 0B       		.uleb128 0xb
 2092 00fa 3B       		.uleb128 0x3b
ARM GAS  /tmp/ccHDvQwU.s 			page 40


 2093 00fb 0B       		.uleb128 0xb
 2094 00fc 49       		.uleb128 0x49
 2095 00fd 13       		.uleb128 0x13
 2096 00fe 02       		.uleb128 0x2
 2097 00ff 0A       		.uleb128 0xa
 2098 0100 00       		.byte	0
 2099 0101 00       		.byte	0
 2100 0102 15       		.uleb128 0x15
 2101 0103 2E       		.uleb128 0x2e
 2102 0104 00       		.byte	0
 2103 0105 3F       		.uleb128 0x3f
 2104 0106 0C       		.uleb128 0xc
 2105 0107 03       		.uleb128 0x3
 2106 0108 0E       		.uleb128 0xe
 2107 0109 3A       		.uleb128 0x3a
 2108 010a 0B       		.uleb128 0xb
 2109 010b 3B       		.uleb128 0x3b
 2110 010c 0B       		.uleb128 0xb
 2111 010d 11       		.uleb128 0x11
 2112 010e 01       		.uleb128 0x1
 2113 010f 12       		.uleb128 0x12
 2114 0110 01       		.uleb128 0x1
 2115 0111 40       		.uleb128 0x40
 2116 0112 06       		.uleb128 0x6
 2117 0113 00       		.byte	0
 2118 0114 00       		.byte	0
 2119 0115 16       		.uleb128 0x16
 2120 0116 34       		.uleb128 0x34
 2121 0117 00       		.byte	0
 2122 0118 03       		.uleb128 0x3
 2123 0119 0E       		.uleb128 0xe
 2124 011a 3A       		.uleb128 0x3a
 2125 011b 0B       		.uleb128 0xb
 2126 011c 3B       		.uleb128 0x3b
 2127 011d 0B       		.uleb128 0xb
 2128 011e 49       		.uleb128 0x49
 2129 011f 13       		.uleb128 0x13
 2130 0120 02       		.uleb128 0x2
 2131 0121 0A       		.uleb128 0xa
 2132 0122 00       		.byte	0
 2133 0123 00       		.byte	0
 2134 0124 17       		.uleb128 0x17
 2135 0125 34       		.uleb128 0x34
 2136 0126 00       		.byte	0
 2137 0127 03       		.uleb128 0x3
 2138 0128 0E       		.uleb128 0xe
 2139 0129 49       		.uleb128 0x49
 2140 012a 13       		.uleb128 0x13
 2141 012b 34       		.uleb128 0x34
 2142 012c 0C       		.uleb128 0xc
 2143 012d 02       		.uleb128 0x2
 2144 012e 0A       		.uleb128 0xa
 2145 012f 00       		.byte	0
 2146 0130 00       		.byte	0
 2147 0131 18       		.uleb128 0x18
 2148 0132 2E       		.uleb128 0x2e
 2149 0133 01       		.byte	0x1
ARM GAS  /tmp/ccHDvQwU.s 			page 41


 2150 0134 3F       		.uleb128 0x3f
 2151 0135 0C       		.uleb128 0xc
 2152 0136 03       		.uleb128 0x3
 2153 0137 0E       		.uleb128 0xe
 2154 0138 3A       		.uleb128 0x3a
 2155 0139 0B       		.uleb128 0xb
 2156 013a 3B       		.uleb128 0x3b
 2157 013b 0B       		.uleb128 0xb
 2158 013c 27       		.uleb128 0x27
 2159 013d 0C       		.uleb128 0xc
 2160 013e 49       		.uleb128 0x49
 2161 013f 13       		.uleb128 0x13
 2162 0140 11       		.uleb128 0x11
 2163 0141 01       		.uleb128 0x1
 2164 0142 12       		.uleb128 0x12
 2165 0143 01       		.uleb128 0x1
 2166 0144 40       		.uleb128 0x40
 2167 0145 06       		.uleb128 0x6
 2168 0146 01       		.uleb128 0x1
 2169 0147 13       		.uleb128 0x13
 2170 0148 00       		.byte	0
 2171 0149 00       		.byte	0
 2172 014a 19       		.uleb128 0x19
 2173 014b 34       		.uleb128 0x34
 2174 014c 00       		.byte	0
 2175 014d 03       		.uleb128 0x3
 2176 014e 0E       		.uleb128 0xe
 2177 014f 3A       		.uleb128 0x3a
 2178 0150 0B       		.uleb128 0xb
 2179 0151 3B       		.uleb128 0x3b
 2180 0152 05       		.uleb128 0x5
 2181 0153 49       		.uleb128 0x49
 2182 0154 13       		.uleb128 0x13
 2183 0155 3F       		.uleb128 0x3f
 2184 0156 0C       		.uleb128 0xc
 2185 0157 3C       		.uleb128 0x3c
 2186 0158 0C       		.uleb128 0xc
 2187 0159 00       		.byte	0
 2188 015a 00       		.byte	0
 2189 015b 00       		.byte	0
 2190              		.section	.debug_loc,"",%progbits
 2191              	.Ldebug_loc0:
 2192              	.LLST0:
 2193 0000 00000000 		.4byte	.LFB35
 2194 0004 02000000 		.4byte	.LCFI0
 2195 0008 0200     		.2byte	0x2
 2196 000a 7D       		.byte	0x7d
 2197 000b 00       		.sleb128 0
 2198 000c 02000000 		.4byte	.LCFI0
 2199 0010 04000000 		.4byte	.LCFI1
 2200 0014 0200     		.2byte	0x2
 2201 0016 7D       		.byte	0x7d
 2202 0017 08       		.sleb128 8
 2203 0018 04000000 		.4byte	.LCFI1
 2204 001c 06000000 		.4byte	.LCFI2
 2205 0020 0200     		.2byte	0x2
 2206 0022 7D       		.byte	0x7d
ARM GAS  /tmp/ccHDvQwU.s 			page 42


 2207 0023 18       		.sleb128 24
 2208 0024 06000000 		.4byte	.LCFI2
 2209 0028 82000000 		.4byte	.LFE35
 2210 002c 0200     		.2byte	0x2
 2211 002e 77       		.byte	0x77
 2212 002f 18       		.sleb128 24
 2213 0030 00000000 		.4byte	0
 2214 0034 00000000 		.4byte	0
 2215              	.LLST1:
 2216 0038 00000000 		.4byte	.LFB36
 2217 003c 02000000 		.4byte	.LCFI3
 2218 0040 0200     		.2byte	0x2
 2219 0042 7D       		.byte	0x7d
 2220 0043 00       		.sleb128 0
 2221 0044 02000000 		.4byte	.LCFI3
 2222 0048 04000000 		.4byte	.LCFI4
 2223 004c 0200     		.2byte	0x2
 2224 004e 7D       		.byte	0x7d
 2225 004f 08       		.sleb128 8
 2226 0050 04000000 		.4byte	.LCFI4
 2227 0054 16000000 		.4byte	.LFE36
 2228 0058 0200     		.2byte	0x2
 2229 005a 77       		.byte	0x77
 2230 005b 08       		.sleb128 8
 2231 005c 00000000 		.4byte	0
 2232 0060 00000000 		.4byte	0
 2233              	.LLST2:
 2234 0064 00000000 		.4byte	.LFB37
 2235 0068 02000000 		.4byte	.LCFI5
 2236 006c 0200     		.2byte	0x2
 2237 006e 7D       		.byte	0x7d
 2238 006f 00       		.sleb128 0
 2239 0070 02000000 		.4byte	.LCFI5
 2240 0074 04000000 		.4byte	.LCFI6
 2241 0078 0200     		.2byte	0x2
 2242 007a 7D       		.byte	0x7d
 2243 007b 08       		.sleb128 8
 2244 007c 04000000 		.4byte	.LCFI6
 2245 0080 06000000 		.4byte	.LCFI7
 2246 0084 0200     		.2byte	0x2
 2247 0086 7D       		.byte	0x7d
 2248 0087 18       		.sleb128 24
 2249 0088 06000000 		.4byte	.LCFI7
 2250 008c 8E000000 		.4byte	.LFE37
 2251 0090 0200     		.2byte	0x2
 2252 0092 77       		.byte	0x77
 2253 0093 18       		.sleb128 24
 2254 0094 00000000 		.4byte	0
 2255 0098 00000000 		.4byte	0
 2256              	.LLST3:
 2257 009c 00000000 		.4byte	.LFB38
 2258 00a0 02000000 		.4byte	.LCFI8
 2259 00a4 0200     		.2byte	0x2
 2260 00a6 7D       		.byte	0x7d
 2261 00a7 00       		.sleb128 0
 2262 00a8 02000000 		.4byte	.LCFI8
 2263 00ac 04000000 		.4byte	.LCFI9
ARM GAS  /tmp/ccHDvQwU.s 			page 43


 2264 00b0 0200     		.2byte	0x2
 2265 00b2 7D       		.byte	0x7d
 2266 00b3 08       		.sleb128 8
 2267 00b4 04000000 		.4byte	.LCFI9
 2268 00b8 06000000 		.4byte	.LCFI10
 2269 00bc 0200     		.2byte	0x2
 2270 00be 7D       		.byte	0x7d
 2271 00bf 18       		.sleb128 24
 2272 00c0 06000000 		.4byte	.LCFI10
 2273 00c4 7A000000 		.4byte	.LFE38
 2274 00c8 0200     		.2byte	0x2
 2275 00ca 77       		.byte	0x77
 2276 00cb 18       		.sleb128 24
 2277 00cc 00000000 		.4byte	0
 2278 00d0 00000000 		.4byte	0
 2279              	.LLST4:
 2280 00d4 00000000 		.4byte	.LFB39
 2281 00d8 02000000 		.4byte	.LCFI11
 2282 00dc 0200     		.2byte	0x2
 2283 00de 7D       		.byte	0x7d
 2284 00df 00       		.sleb128 0
 2285 00e0 02000000 		.4byte	.LCFI11
 2286 00e4 04000000 		.4byte	.LCFI12
 2287 00e8 0200     		.2byte	0x2
 2288 00ea 7D       		.byte	0x7d
 2289 00eb 08       		.sleb128 8
 2290 00ec 04000000 		.4byte	.LCFI12
 2291 00f0 06000000 		.4byte	.LCFI13
 2292 00f4 0200     		.2byte	0x2
 2293 00f6 7D       		.byte	0x7d
 2294 00f7 18       		.sleb128 24
 2295 00f8 06000000 		.4byte	.LCFI13
 2296 00fc 7A000000 		.4byte	.LFE39
 2297 0100 0200     		.2byte	0x2
 2298 0102 77       		.byte	0x77
 2299 0103 18       		.sleb128 24
 2300 0104 00000000 		.4byte	0
 2301 0108 00000000 		.4byte	0
 2302              	.LLST5:
 2303 010c 00000000 		.4byte	.LFB40
 2304 0110 02000000 		.4byte	.LCFI14
 2305 0114 0200     		.2byte	0x2
 2306 0116 7D       		.byte	0x7d
 2307 0117 00       		.sleb128 0
 2308 0118 02000000 		.4byte	.LCFI14
 2309 011c 04000000 		.4byte	.LCFI15
 2310 0120 0200     		.2byte	0x2
 2311 0122 7D       		.byte	0x7d
 2312 0123 08       		.sleb128 8
 2313 0124 04000000 		.4byte	.LCFI15
 2314 0128 06000000 		.4byte	.LCFI16
 2315 012c 0200     		.2byte	0x2
 2316 012e 7D       		.byte	0x7d
 2317 012f 18       		.sleb128 24
 2318 0130 06000000 		.4byte	.LCFI16
 2319 0134 84000000 		.4byte	.LFE40
 2320 0138 0200     		.2byte	0x2
ARM GAS  /tmp/ccHDvQwU.s 			page 44


 2321 013a 77       		.byte	0x77
 2322 013b 18       		.sleb128 24
 2323 013c 00000000 		.4byte	0
 2324 0140 00000000 		.4byte	0
 2325              	.LLST6:
 2326 0144 00000000 		.4byte	.LFB41
 2327 0148 02000000 		.4byte	.LCFI17
 2328 014c 0200     		.2byte	0x2
 2329 014e 7D       		.byte	0x7d
 2330 014f 00       		.sleb128 0
 2331 0150 02000000 		.4byte	.LCFI17
 2332 0154 04000000 		.4byte	.LCFI18
 2333 0158 0200     		.2byte	0x2
 2334 015a 7D       		.byte	0x7d
 2335 015b 04       		.sleb128 4
 2336 015c 04000000 		.4byte	.LCFI18
 2337 0160 06000000 		.4byte	.LCFI19
 2338 0164 0200     		.2byte	0x2
 2339 0166 7D       		.byte	0x7d
 2340 0167 10       		.sleb128 16
 2341 0168 06000000 		.4byte	.LCFI19
 2342 016c 3A000000 		.4byte	.LFE41
 2343 0170 0200     		.2byte	0x2
 2344 0172 77       		.byte	0x77
 2345 0173 10       		.sleb128 16
 2346 0174 00000000 		.4byte	0
 2347 0178 00000000 		.4byte	0
 2348              	.LLST7:
 2349 017c 00000000 		.4byte	.LFB42
 2350 0180 02000000 		.4byte	.LCFI20
 2351 0184 0200     		.2byte	0x2
 2352 0186 7D       		.byte	0x7d
 2353 0187 00       		.sleb128 0
 2354 0188 02000000 		.4byte	.LCFI20
 2355 018c 04000000 		.4byte	.LCFI21
 2356 0190 0200     		.2byte	0x2
 2357 0192 7D       		.byte	0x7d
 2358 0193 08       		.sleb128 8
 2359 0194 04000000 		.4byte	.LCFI21
 2360 0198 06000000 		.4byte	.LCFI22
 2361 019c 0200     		.2byte	0x2
 2362 019e 7D       		.byte	0x7d
 2363 019f 10       		.sleb128 16
 2364 01a0 06000000 		.4byte	.LCFI22
 2365 01a4 2E000000 		.4byte	.LFE42
 2366 01a8 0200     		.2byte	0x2
 2367 01aa 77       		.byte	0x77
 2368 01ab 10       		.sleb128 16
 2369 01ac 00000000 		.4byte	0
 2370 01b0 00000000 		.4byte	0
 2371              	.LLST8:
 2372 01b4 00000000 		.4byte	.LFB43
 2373 01b8 02000000 		.4byte	.LCFI23
 2374 01bc 0200     		.2byte	0x2
 2375 01be 7D       		.byte	0x7d
 2376 01bf 00       		.sleb128 0
 2377 01c0 02000000 		.4byte	.LCFI23
ARM GAS  /tmp/ccHDvQwU.s 			page 45


 2378 01c4 04000000 		.4byte	.LCFI24
 2379 01c8 0200     		.2byte	0x2
 2380 01ca 7D       		.byte	0x7d
 2381 01cb 04       		.sleb128 4
 2382 01cc 04000000 		.4byte	.LCFI24
 2383 01d0 06000000 		.4byte	.LCFI25
 2384 01d4 0200     		.2byte	0x2
 2385 01d6 7D       		.byte	0x7d
 2386 01d7 10       		.sleb128 16
 2387 01d8 06000000 		.4byte	.LCFI25
 2388 01dc 26000000 		.4byte	.LFE43
 2389 01e0 0200     		.2byte	0x2
 2390 01e2 77       		.byte	0x77
 2391 01e3 10       		.sleb128 16
 2392 01e4 00000000 		.4byte	0
 2393 01e8 00000000 		.4byte	0
 2394              	.LLST9:
 2395 01ec 00000000 		.4byte	.LFB44
 2396 01f0 02000000 		.4byte	.LCFI26
 2397 01f4 0200     		.2byte	0x2
 2398 01f6 7D       		.byte	0x7d
 2399 01f7 00       		.sleb128 0
 2400 01f8 02000000 		.4byte	.LCFI26
 2401 01fc 04000000 		.4byte	.LCFI27
 2402 0200 0200     		.2byte	0x2
 2403 0202 7D       		.byte	0x7d
 2404 0203 04       		.sleb128 4
 2405 0204 04000000 		.4byte	.LCFI27
 2406 0208 06000000 		.4byte	.LCFI28
 2407 020c 0200     		.2byte	0x2
 2408 020e 7D       		.byte	0x7d
 2409 020f 10       		.sleb128 16
 2410 0210 06000000 		.4byte	.LCFI28
 2411 0214 26000000 		.4byte	.LFE44
 2412 0218 0200     		.2byte	0x2
 2413 021a 77       		.byte	0x77
 2414 021b 10       		.sleb128 16
 2415 021c 00000000 		.4byte	0
 2416 0220 00000000 		.4byte	0
 2417              		.section	.debug_aranges,"",%progbits
 2418 0000 64000000 		.4byte	0x64
 2419 0004 0200     		.2byte	0x2
 2420 0006 00000000 		.4byte	.Ldebug_info0
 2421 000a 04       		.byte	0x4
 2422 000b 00       		.byte	0
 2423 000c 0000     		.2byte	0
 2424 000e 0000     		.2byte	0
 2425 0010 00000000 		.4byte	.LFB35
 2426 0014 82000000 		.4byte	.LFE35-.LFB35
 2427 0018 00000000 		.4byte	.LFB36
 2428 001c 16000000 		.4byte	.LFE36-.LFB36
 2429 0020 00000000 		.4byte	.LFB37
 2430 0024 8E000000 		.4byte	.LFE37-.LFB37
 2431 0028 00000000 		.4byte	.LFB38
 2432 002c 7A000000 		.4byte	.LFE38-.LFB38
 2433 0030 00000000 		.4byte	.LFB39
 2434 0034 7A000000 		.4byte	.LFE39-.LFB39
ARM GAS  /tmp/ccHDvQwU.s 			page 46


 2435 0038 00000000 		.4byte	.LFB40
 2436 003c 84000000 		.4byte	.LFE40-.LFB40
 2437 0040 00000000 		.4byte	.LFB41
 2438 0044 3A000000 		.4byte	.LFE41-.LFB41
 2439 0048 00000000 		.4byte	.LFB42
 2440 004c 2E000000 		.4byte	.LFE42-.LFB42
 2441 0050 00000000 		.4byte	.LFB43
 2442 0054 26000000 		.4byte	.LFE43-.LFB43
 2443 0058 00000000 		.4byte	.LFB44
 2444 005c 26000000 		.4byte	.LFE44-.LFB44
 2445 0060 00000000 		.4byte	0
 2446 0064 00000000 		.4byte	0
 2447              		.section	.debug_ranges,"",%progbits
 2448              	.Ldebug_ranges0:
 2449 0000 00000000 		.4byte	.LFB35
 2450 0004 82000000 		.4byte	.LFE35
 2451 0008 00000000 		.4byte	.LFB36
 2452 000c 16000000 		.4byte	.LFE36
 2453 0010 00000000 		.4byte	.LFB37
 2454 0014 8E000000 		.4byte	.LFE37
 2455 0018 00000000 		.4byte	.LFB38
 2456 001c 7A000000 		.4byte	.LFE38
 2457 0020 00000000 		.4byte	.LFB39
 2458 0024 7A000000 		.4byte	.LFE39
 2459 0028 00000000 		.4byte	.LFB40
 2460 002c 84000000 		.4byte	.LFE40
 2461 0030 00000000 		.4byte	.LFB41
 2462 0034 3A000000 		.4byte	.LFE41
 2463 0038 00000000 		.4byte	.LFB42
 2464 003c 2E000000 		.4byte	.LFE42
 2465 0040 00000000 		.4byte	.LFB43
 2466 0044 26000000 		.4byte	.LFE43
 2467 0048 00000000 		.4byte	.LFB44
 2468 004c 26000000 		.4byte	.LFE44
 2469 0050 00000000 		.4byte	0
 2470 0054 00000000 		.4byte	0
 2471              		.section	.debug_line,"",%progbits
 2472              	.Ldebug_line0:
 2473 0000 BC010000 		.section	.debug_str,"MS",%progbits,1
 2473      0200C700 
 2473      00000201 
 2473      FB0E0D00 
 2473      01010101 
 2474              	.LASF85:
 2475 0000 50494F5F 		.ascii	"PIO_TNCR\000"
 2475      544E4352 
 2475      00
 2476              	.LASF11:
 2477 0009 75696E74 		.ascii	"uint32_t\000"
 2477      33325F74 
 2477      00
 2478              	.LASF70:
 2479 0012 50494F5F 		.ascii	"PIO_SCHMITT\000"
 2479      5343484D 
 2479      49545400 
 2480              	.LASF102:
 2481 001e 626C696E 		.ascii	"blinks\000"
ARM GAS  /tmp/ccHDvQwU.s 			page 47


 2481      6B7300
 2482              	.LASF28:
 2483 0025 50494F5F 		.ascii	"PIO_IER\000"
 2483      49455200 
 2484              	.LASF93:
 2485 002d 4C45445F 		.ascii	"LED_set\000"
 2485      73657400 
 2486              	.LASF55:
 2487 0035 50494F5F 		.ascii	"PIO_AIMDR\000"
 2487      41494D44 
 2487      5200
 2488              	.LASF17:
 2489 003f 50494F5F 		.ascii	"PIO_ODR\000"
 2489      4F445200 
 2490              	.LASF18:
 2491 0047 50494F5F 		.ascii	"PIO_OSR\000"
 2491      4F535200 
 2492              	.LASF2:
 2493 004f 73686F72 		.ascii	"short int\000"
 2493      7420696E 
 2493      7400
 2494              	.LASF62:
 2495 0059 50494F5F 		.ascii	"PIO_FELLSR\000"
 2495      46454C4C 
 2495      535200
 2496              	.LASF101:
 2497 0064 6C656473 		.ascii	"leds\000"
 2497      00
 2498              	.LASF26:
 2499 0069 50494F5F 		.ascii	"PIO_ODSR\000"
 2499      4F445352 
 2499      00
 2500              	.LASF76:
 2501 0072 50494F5F 		.ascii	"PIO_PCISR\000"
 2501      50434953 
 2501      5200
 2502              	.LASF5:
 2503 007c 6C6F6E67 		.ascii	"long long int\000"
 2503      206C6F6E 
 2503      6720696E 
 2503      7400
 2504              	.LASF63:
 2505 008a 50494F5F 		.ascii	"PIO_REHLSR\000"
 2505      5245484C 
 2505      535200
 2506              	.LASF90:
 2507 0095 61747472 		.ascii	"attribute\000"
 2507      69627574 
 2507      6500
 2508              	.LASF30:
 2509 009f 50494F5F 		.ascii	"PIO_IMR\000"
 2509      494D5200 
 2510              	.LASF46:
 2511 00a7 50494F5F 		.ascii	"PIO_PPDDR\000"
 2511      50504444 
 2511      5200
 2512              	.LASF48:
ARM GAS  /tmp/ccHDvQwU.s 			page 48


 2513 00b1 50494F5F 		.ascii	"PIO_PPDSR\000"
 2513      50504453 
 2513      5200
 2514              	.LASF50:
 2515 00bb 50494F5F 		.ascii	"PIO_OWER\000"
 2515      4F574552 
 2515      00
 2516              	.LASF67:
 2517 00c4 50494F5F 		.ascii	"PIO_WPMR\000"
 2517      57504D52 
 2517      00
 2518              	.LASF15:
 2519 00cd 52657365 		.ascii	"Reserved1\000"
 2519      72766564 
 2519      3100
 2520              	.LASF19:
 2521 00d7 52657365 		.ascii	"Reserved2\000"
 2521      72766564 
 2521      3200
 2522              	.LASF10:
 2523 00e1 75696E74 		.ascii	"uint8_t\000"
 2523      385F7400 
 2524              	.LASF58:
 2525 00e9 50494F5F 		.ascii	"PIO_ESR\000"
 2525      45535200 
 2526              	.LASF74:
 2527 00f1 50494F5F 		.ascii	"PIO_PCIDR\000"
 2527      50434944 
 2527      5200
 2528              	.LASF99:
 2529 00fb 4C45445F 		.ascii	"LED_get\000"
 2529      67657400 
 2530              	.LASF49:
 2531 0103 52657365 		.ascii	"Reserved7\000"
 2531      72766564 
 2531      3700
 2532              	.LASF57:
 2533 010d 52657365 		.ascii	"Reserved9\000"
 2533      72766564 
 2533      3900
 2534              	.LASF91:
 2535 0117 626C696E 		.ascii	"blinkhandler\000"
 2535      6B68616E 
 2535      646C6572 
 2535      00
 2536              	.LASF45:
 2537 0124 50494F5F 		.ascii	"PIO_SCDR\000"
 2537      53434452 
 2537      00
 2538              	.LASF108:
 2539 012d 4C454473 		.ascii	"LEDs_configure\000"
 2539      5F636F6E 
 2539      66696775 
 2539      726500
 2540              	.LASF6:
 2541 013c 6C6F6E67 		.ascii	"long long unsigned int\000"
 2541      206C6F6E 
ARM GAS  /tmp/ccHDvQwU.s 			page 49


 2541      6720756E 
 2541      7369676E 
 2541      65642069 
 2542              	.LASF21:
 2543 0153 50494F5F 		.ascii	"PIO_IFDR\000"
 2543      49464452 
 2543      00
 2544              	.LASF22:
 2545 015c 50494F5F 		.ascii	"PIO_IFSR\000"
 2545      49465352 
 2545      00
 2546              	.LASF97:
 2547 0165 4C45445F 		.ascii	"LED_blinkwait\000"
 2547      626C696E 
 2547      6B776169 
 2547      7400
 2548              	.LASF7:
 2549 0173 6C6F6E67 		.ascii	"long int\000"
 2549      20696E74 
 2549      00
 2550              	.LASF27:
 2551 017c 50494F5F 		.ascii	"PIO_PDSR\000"
 2551      50445352 
 2551      00
 2552              	.LASF94:
 2553 0185 5F5F4655 		.ascii	"__FUNCTION__\000"
 2553      4E435449 
 2553      4F4E5F5F 
 2553      00
 2554              	.LASF81:
 2555 0192 50494F5F 		.ascii	"PIO_TCR\000"
 2555      54435200 
 2556              	.LASF36:
 2557 019a 50494F5F 		.ascii	"PIO_PUDR\000"
 2557      50554452 
 2557      00
 2558              	.LASF38:
 2559 01a3 50494F5F 		.ascii	"PIO_PUSR\000"
 2559      50555352 
 2559      00
 2560              	.LASF100:
 2561 01ac 4C45445F 		.ascii	"LED_blinking\000"
 2561      626C696E 
 2561      6B696E67 
 2561      00
 2562              	.LASF47:
 2563 01b9 50494F5F 		.ascii	"PIO_PPDER\000"
 2563      50504445 
 2563      5200
 2564              	.LASF42:
 2565 01c3 50494F5F 		.ascii	"PIO_IFSCDR\000"
 2565      49465343 
 2565      445200
 2566              	.LASF44:
 2567 01ce 50494F5F 		.ascii	"PIO_IFSCSR\000"
 2567      49465343 
 2567      535200
ARM GAS  /tmp/ccHDvQwU.s 			page 50


 2568              	.LASF79:
 2569 01d9 50494F5F 		.ascii	"PIO_RCR\000"
 2569      52435200 
 2570              	.LASF84:
 2571 01e1 50494F5F 		.ascii	"PIO_TNPR\000"
 2571      544E5052 
 2571      00
 2572              	.LASF56:
 2573 01ea 50494F5F 		.ascii	"PIO_AIMMR\000"
 2573      41494D4D 
 2573      5200
 2574              	.LASF83:
 2575 01f4 50494F5F 		.ascii	"PIO_RNCR\000"
 2575      524E4352 
 2575      00
 2576              	.LASF1:
 2577 01fd 756E7369 		.ascii	"unsigned char\000"
 2577      676E6564 
 2577      20636861 
 2577      7200
 2578              	.LASF107:
 2579 020b 5F50696E 		.ascii	"_Pin\000"
 2579      00
 2580              	.LASF73:
 2581 0210 50494F5F 		.ascii	"PIO_PCIER\000"
 2581      50434945 
 2581      5200
 2582              	.LASF105:
 2583 021a 626F6172 		.ascii	"board/led.c\000"
 2583      642F6C65 
 2583      642E6300 
 2584              	.LASF75:
 2585 0226 50494F5F 		.ascii	"PIO_PCIMR\000"
 2585      5043494D 
 2585      5200
 2586              	.LASF0:
 2587 0230 7369676E 		.ascii	"signed char\000"
 2587      65642063 
 2587      68617200 
 2588              	.LASF86:
 2589 023c 50494F5F 		.ascii	"PIO_PTCR\000"
 2589      50544352 
 2589      00
 2590              	.LASF66:
 2591 0245 50494F5F 		.ascii	"PIO_LOCKSR\000"
 2591      4C4F434B 
 2591      535200
 2592              	.LASF89:
 2593 0250 74797065 		.ascii	"type\000"
 2593      00
 2594              	.LASF87:
 2595 0255 50494F5F 		.ascii	"PIO_PTSR\000"
 2595      50545352 
 2595      00
 2596              	.LASF4:
 2597 025e 756E7369 		.ascii	"unsigned int\000"
 2597      676E6564 
ARM GAS  /tmp/ccHDvQwU.s 			page 51


 2597      20696E74 
 2597      00
 2598              	.LASF78:
 2599 026b 50494F5F 		.ascii	"PIO_RPR\000"
 2599      52505200 
 2600              	.LASF95:
 2601 0273 4C45445F 		.ascii	"LED_clr\000"
 2601      636C7200 
 2602              	.LASF61:
 2603 027b 52657365 		.ascii	"Reserved10\000"
 2603      72766564 
 2603      313000
 2604              	.LASF65:
 2605 0286 52657365 		.ascii	"Reserved11\000"
 2605      72766564 
 2605      313100
 2606              	.LASF69:
 2607 0291 52657365 		.ascii	"Reserved12\000"
 2607      72766564 
 2607      313200
 2608              	.LASF71:
 2609 029c 52657365 		.ascii	"Reserved13\000"
 2609      72766564 
 2609      313300
 2610              	.LASF33:
 2611 02a7 50494F5F 		.ascii	"PIO_MDDR\000"
 2611      4D444452 
 2611      00
 2612              	.LASF34:
 2613 02b0 50494F5F 		.ascii	"PIO_MDSR\000"
 2613      4D445352 
 2613      00
 2614              	.LASF60:
 2615 02b9 50494F5F 		.ascii	"PIO_ELSR\000"
 2615      454C5352 
 2615      00
 2616              	.LASF9:
 2617 02c2 63686172 		.ascii	"char\000"
 2617      00
 2618              	.LASF106:
 2619 02c7 2F686F6D 		.ascii	"/home/mo/doc/studium/aktuell/Diplomarbeit/code\000"
 2619      652F6D6F 
 2619      2F646F63 
 2619      2F737475 
 2619      6469756D 
 2620              	.LASF77:
 2621 02f6 50494F5F 		.ascii	"PIO_PCRHR\000"
 2621      50435248 
 2621      5200
 2622              	.LASF104:
 2623 0300 474E5520 		.ascii	"GNU C 4.6.1\000"
 2623      4320342E 
 2623      362E3100 
 2624              	.LASF92:
 2625 030c 4C45445F 		.ascii	"LED_tgl\000"
 2625      74676C00 
 2626              	.LASF37:
ARM GAS  /tmp/ccHDvQwU.s 			page 52


 2627 0314 50494F5F 		.ascii	"PIO_PUER\000"
 2627      50554552 
 2627      00
 2628              	.LASF59:
 2629 031d 50494F5F 		.ascii	"PIO_LSR\000"
 2629      4C535200 
 2630              	.LASF80:
 2631 0325 50494F5F 		.ascii	"PIO_TPR\000"
 2631      54505200 
 2632              	.LASF98:
 2633 032d 4C45445F 		.ascii	"LED_blinkstop\000"
 2633      626C696E 
 2633      6B73746F 
 2633      7000
 2634              	.LASF43:
 2635 033b 50494F5F 		.ascii	"PIO_IFSCER\000"
 2635      49465343 
 2635      455200
 2636              	.LASF3:
 2637 0346 73686F72 		.ascii	"short unsigned int\000"
 2637      7420756E 
 2637      7369676E 
 2637      65642069 
 2637      6E7400
 2638              	.LASF25:
 2639 0359 50494F5F 		.ascii	"PIO_CODR\000"
 2639      434F4452 
 2639      00
 2640              	.LASF8:
 2641 0362 6C6F6E67 		.ascii	"long unsigned int\000"
 2641      20756E73 
 2641      69676E65 
 2641      6420696E 
 2641      7400
 2642              	.LASF23:
 2643 0374 52657365 		.ascii	"Reserved3\000"
 2643      72766564 
 2643      3300
 2644              	.LASF35:
 2645 037e 52657365 		.ascii	"Reserved4\000"
 2645      72766564 
 2645      3400
 2646              	.LASF29:
 2647 0388 50494F5F 		.ascii	"PIO_IDR\000"
 2647      49445200 
 2648              	.LASF31:
 2649 0390 50494F5F 		.ascii	"PIO_ISR\000"
 2649      49535200 
 2650              	.LASF41:
 2651 0398 52657365 		.ascii	"Reserved6\000"
 2651      72766564 
 2651      3600
 2652              	.LASF53:
 2653 03a2 52657365 		.ascii	"Reserved8\000"
 2653      72766564 
 2653      3800
 2654              	.LASF96:
ARM GAS  /tmp/ccHDvQwU.s 			page 53


 2655 03ac 4C45445F 		.ascii	"LED_blink\000"
 2655      626C696E 
 2655      6B00
 2656              	.LASF64:
 2657 03b6 50494F5F 		.ascii	"PIO_FRLHSR\000"
 2657      46524C48 
 2657      535200
 2658              	.LASF68:
 2659 03c1 50494F5F 		.ascii	"PIO_WPSR\000"
 2659      57505352 
 2659      00
 2660              	.LASF20:
 2661 03ca 50494F5F 		.ascii	"PIO_IFER\000"
 2661      49464552 
 2661      00
 2662              	.LASF39:
 2663 03d3 52657365 		.ascii	"Reserved5\000"
 2663      72766564 
 2663      3500
 2664              	.LASF12:
 2665 03dd 50494F5F 		.ascii	"PIO_PER\000"
 2665      50455200 
 2666              	.LASF40:
 2667 03e5 50494F5F 		.ascii	"PIO_ABCDSR\000"
 2667      41424344 
 2667      535200
 2668              	.LASF32:
 2669 03f0 50494F5F 		.ascii	"PIO_MDER\000"
 2669      4D444552 
 2669      00
 2670              	.LASF24:
 2671 03f9 50494F5F 		.ascii	"PIO_SODR\000"
 2671      534F4452 
 2671      00
 2672              	.LASF72:
 2673 0402 50494F5F 		.ascii	"PIO_PCMR\000"
 2673      50434D52 
 2673      00
 2674              	.LASF16:
 2675 040b 50494F5F 		.ascii	"PIO_OER\000"
 2675      4F455200 
 2676              	.LASF103:
 2677 0413 49544D5F 		.ascii	"ITM_RxBuffer\000"
 2677      52784275 
 2677      66666572 
 2677      00
 2678              	.LASF51:
 2679 0420 50494F5F 		.ascii	"PIO_OWDR\000"
 2679      4F574452 
 2679      00
 2680              	.LASF52:
 2681 0429 50494F5F 		.ascii	"PIO_OWSR\000"
 2681      4F575352 
 2681      00
 2682              	.LASF54:
 2683 0432 50494F5F 		.ascii	"PIO_AIMER\000"
 2683      41494D45 
ARM GAS  /tmp/ccHDvQwU.s 			page 54


 2683      5200
 2684              	.LASF82:
 2685 043c 50494F5F 		.ascii	"PIO_RNPR\000"
 2685      524E5052 
 2685      00
 2686              	.LASF13:
 2687 0445 50494F5F 		.ascii	"PIO_PDR\000"
 2687      50445200 
 2688              	.LASF14:
 2689 044d 50494F5F 		.ascii	"PIO_PSR\000"
 2689      50535200 
 2690              	.LASF88:
 2691 0455 6D61736B 		.ascii	"mask\000"
 2691      00
 2692              		.ident	"GCC: (Sourcery CodeBench Lite 2011.09-69) 4.6.1"
ARM GAS  /tmp/ccHDvQwU.s 			page 55


DEFINED SYMBOLS
                            *ABS*:00000000 led.c
     /tmp/ccHDvQwU.s:19     .rodata:00000000 $d
     /tmp/ccHDvQwU.s:22     .rodata:00000000 leds
     /tmp/ccHDvQwU.s:36     .bss:00000000 $d
     /tmp/ccHDvQwU.s:37     .bss:00000000 blinks
     /tmp/ccHDvQwU.s:40     .text.blinkhandler:00000000 $t
     /tmp/ccHDvQwU.s:45     .text.blinkhandler:00000000 blinkhandler
     /tmp/ccHDvQwU.s:165    .text.LED_tgl:00000000 LED_tgl
     /tmp/ccHDvQwU.s:123    .text.LEDs_configure:00000000 $t
     /tmp/ccHDvQwU.s:128    .text.LEDs_configure:00000000 LEDs_configure
     /tmp/ccHDvQwU.s:154    .rodata:00000018 .LC0
     /tmp/ccHDvQwU.s:157    .rodata:00000024 .LC1
     /tmp/ccHDvQwU.s:160    .text.LED_tgl:00000000 $t
     /tmp/ccHDvQwU.s:662    .rodata:0000004c __FUNCTION__.7525
     /tmp/ccHDvQwU.s:247    .text.LED_set:00000000 $t
     /tmp/ccHDvQwU.s:252    .text.LED_set:00000000 LED_set
     /tmp/ccHDvQwU.s:657    .rodata:00000044 __FUNCTION__.7531
     /tmp/ccHDvQwU.s:320    .text.LED_clr:00000000 $t
     /tmp/ccHDvQwU.s:325    .text.LED_clr:00000000 LED_clr
     /tmp/ccHDvQwU.s:652    .rodata:0000003c __FUNCTION__.7537
     /tmp/ccHDvQwU.s:393    .text.LED_get:00000000 $t
     /tmp/ccHDvQwU.s:398    .text.LED_get:00000000 LED_get
     /tmp/ccHDvQwU.s:647    .rodata:00000034 __FUNCTION__.7543
     /tmp/ccHDvQwU.s:471    .text.LED_blink:00000000 $t
     /tmp/ccHDvQwU.s:476    .text.LED_blink:00000000 LED_blink
     /tmp/ccHDvQwU.s:517    .text.LED_blinkwait:00000000 $t
     /tmp/ccHDvQwU.s:522    .text.LED_blinkwait:00000000 LED_blinkwait
     /tmp/ccHDvQwU.s:609    .text.LED_blinking:00000000 LED_blinking
     /tmp/ccHDvQwU.s:565    .text.LED_blinkstop:00000000 $t
     /tmp/ccHDvQwU.s:570    .text.LED_blinkstop:00000000 LED_blinkstop
     /tmp/ccHDvQwU.s:604    .text.LED_blinking:00000000 $t
                     .debug_frame:00000010 $d

UNDEFINED SYMBOLS
PIO_Configure
__assert_func
