ARM GAS  /tmp/ccna6WhB.s 			page 1


   1              		.syntax unified
   2              		.cpu cortex-m3
   3              		.fpu softvfp
   4              		.eabi_attribute 20, 1
   5              		.eabi_attribute 21, 1
   6              		.eabi_attribute 23, 3
   7              		.eabi_attribute 24, 1
   8              		.eabi_attribute 25, 1
   9              		.eabi_attribute 26, 1
  10              		.eabi_attribute 30, 6
  11              		.eabi_attribute 18, 4
  12              		.thumb
  13              		.file	"main.c"
  20 0000 21020000 		.text
  20      02006101 
  20      00000201 
  20      FB0E0D00 
  20      01010101 
  21              	.Ltext0:
  22              		.cfi_sections	.debug_frame
  23              		.global	_state
  24              		.data
  25              		.type	_state, %object
  26              		.size	_state, 1
  27              	_state:
  28 0000 01       		.byte	1
  29              		.section	.rodata
  30              		.align	2
  31              	.LC0:
  32 0000 2D492D20 		.ascii	"-I- Running at %i MHz\012\000"
  32      52756E6E 
  32      696E6720 
  32      61742025 
  32      69204D48 
  33 0017 00       		.align	2
  34              	.LC1:
  35 0018 2D442D20 		.ascii	"-D- waiting until USB is fully configured\012\000"
  35      77616974 
  35      696E6720 
  35      756E7469 
  35      6C205553 
  36 0043 00       		.align	2
  37              	.LC2:
  38 0044 25632025 		.ascii	"%c %u %u %u\000"
  38      75202575 
  38      20257500 
  39              		.align	2
  40              	.LC3:
  41 0050 2D442D20 		.ascii	"-D- got %i valid arguments\012\000"
  41      676F7420 
  41      25692076 
ARM GAS  /tmp/ccna6WhB.s 			page 2


  41      616C6964 
  41      20617267 
  42              		.align	2
  43              	.LC4:
  44 006c 2D452D20 		.ascii	"-E- invalid state\012\000"
  44      696E7661 
  44      6C696420 
  44      73746174 
  44      650A00
  45              		.section	.text.main,"ax",%progbits
  46              		.align	2
  47              		.global	main
  48              		.thumb
  49              		.thumb_func
  50              		.type	main, %function
  51              	main:
  52              	.LFB35:
  53              		.file 1 "main.c"
   1:main.c        **** #include <string.h>
   2:main.c        **** #include "conf.h"
   3:main.c        **** 
   4:main.c        **** #define IDLE  0
   5:main.c        **** #define READY 1
   6:main.c        **** #define SET   2
   7:main.c        **** #define GO    3
   8:main.c        **** 
   9:main.c        **** uint8_t _state = READY;
  10:main.c        **** 
  11:main.c        **** extern void input_init();
  12:main.c        **** 
  13:main.c        **** void do_press();
  14:main.c        **** void do_hold();
  15:main.c        **** void do_vent();
  16:main.c        **** 
  17:main.c        **** void enter(uint8_t new);
  18:main.c        **** 
  19:main.c        **** int main() 
  20:main.c        **** {
  54              		.loc 1 20 0
  55              		.cfi_startproc
  56              		@ args = 0, pretend = 0, frame = 80
  57              		@ frame_needed = 1, uses_anonymous_args = 0
  58 0000 B0B5     		push	{r4, r5, r7, lr}
  59              	.LCFI0:
  60              		.cfi_def_cfa_offset 16
  61 0002 96B0     		sub	sp, sp, #88
  62              	.LCFI1:
  63              		.cfi_def_cfa_offset 104
  64 0004 02AF     		add	r7, sp, #8
  65              		.cfi_offset 14, -4
  66              		.cfi_offset 7, -8
  67              		.cfi_offset 5, -12
  68              		.cfi_offset 4, -16
  69              	.LCFI2:
  70              		.cfi_def_cfa 7, 96
  21:main.c        **** 	int t = 0;
  71              		.loc 1 21 0
ARM GAS  /tmp/ccna6WhB.s 			page 3


  72 0006 4FF00003 		mov	r3, #0
  73 000a FB64     		str	r3, [r7, #76]
  22:main.c        **** 	int argc;
  23:main.c        **** 	int argv[3];
  24:main.c        **** 	char line[32];
  25:main.c        **** 	char cmd = 0;
  74              		.loc 1 25 0
  75 000c 4FF00003 		mov	r3, #0
  76 0010 FB76     		strb	r3, [r7, #27]
  26:main.c        **** 	const Pin pinsout[] = {PINS_VAL};
  77              		.loc 1 26 0
  78 0012 40F20003 		movw	r3, #:lower16:C.10.6302
  79 0016 C0F20003 		movt	r3, #:upper16:C.10.6302
  80 001a 3C46     		mov	r4, r7
  81 001c 1D46     		mov	r5, r3
  82 001e 0FCD     		ldmia	r5!, {r0, r1, r2, r3}
  83 0020 0FC4     		stmia	r4!, {r0, r1, r2, r3}
  84 0022 95E80300 		ldmia	r5, {r0, r1}
  85 0026 84E80300 		stmia	r4, {r0, r1}
  27:main.c        **** 
  28:main.c        **** 	TRACE_INFO("Running at %i MHz\n", BOARD_MCK/1000000);
  86              		.loc 1 28 0
  87 002a 40F20003 		movw	r3, #:lower16:_impure_ptr
  88 002e C0F20003 		movt	r3, #:upper16:_impure_ptr
  89 0032 1B68     		ldr	r3, [r3, #0]
  90 0034 DB68     		ldr	r3, [r3, #12]
  91 0036 1846     		mov	r0, r3
  92 0038 40F20001 		movw	r1, #:lower16:.LC0
  93 003c C0F20001 		movt	r1, #:upper16:.LC0
  94 0040 4FF03002 		mov	r2, #48
  95 0044 FFF7FEFF 		bl	fiprintf
  29:main.c        **** 
  30:main.c        ****     WDT->WDT_MR = WDT_MR_WDDIS;
  96              		.loc 1 30 0
  97 0048 41F25043 		movw	r3, #5200
  98 004c C4F20E03 		movt	r3, 16398
  99 0050 4FF40042 		mov	r2, #32768
 100 0054 5A60     		str	r2, [r3, #4]
  31:main.c        **** 	TimeTick_Configure(BOARD_MCK);
 101              		.loc 1 31 0
 102 0056 4FF4D840 		mov	r0, #27648
 103 005a C0F2DC20 		movt	r0, 732
 104 005e FFF7FEFF 		bl	TimeTick_Configure
  32:main.c        **** 	LEDs_configure();
 105              		.loc 1 32 0
 106 0062 FFF7FEFF 		bl	LEDs_configure
  33:main.c        **** 
  34:main.c        **** 	/* configure hardware */
  35:main.c        **** 	LED_blink(STATUS, FOREVER);
 107              		.loc 1 35 0
 108 0066 4FF00000 		mov	r0, #0
 109 006a 4FF0FF31 		mov	r1, #-1
 110 006e FFF7FEFF 		bl	LED_blink
  36:main.c        **** 	PIO_Configure(pinsout, PIO_LISTSIZE(pinsout));
 111              		.loc 1 36 0
 112 0072 3B46     		mov	r3, r7
 113 0074 1846     		mov	r0, r3
ARM GAS  /tmp/ccna6WhB.s 			page 4


 114 0076 4FF00201 		mov	r1, #2
 115 007a FFF7FEFF 		bl	PIO_Configure
  37:main.c        **** 	input_init();
 116              		.loc 1 37 0
 117 007e FFF7FEFF 		bl	input_init
  38:main.c        **** 	USBC_Configure();
 118              		.loc 1 38 0
 119 0082 FFF7FEFF 		bl	USBC_Configure
  39:main.c        **** 	TRACE_DEBUG("waiting until USB is fully configured\n");
 120              		.loc 1 39 0
 121 0086 40F20003 		movw	r3, #:lower16:_impure_ptr
 122 008a C0F20003 		movt	r3, #:upper16:_impure_ptr
 123 008e 1B68     		ldr	r3, [r3, #0]
 124 0090 DB68     		ldr	r3, [r3, #12]
 125 0092 1846     		mov	r0, r3
 126 0094 40F20001 		movw	r1, #:lower16:.LC1
 127 0098 C0F20001 		movt	r1, #:upper16:.LC1
 128 009c FFF7FEFF 		bl	fiprintf
  40:main.c        **** 	while (!USBC_isConfigured());
 129              		.loc 1 40 0
 130 00a0 00BF     		nop
 131              	.L2:
 132              		.loc 1 40 0 is_stmt 0 discriminator 1
 133 00a2 FFF7FEFF 		bl	USBC_isConfigured
 134 00a6 0346     		mov	r3, r0
 135 00a8 002B     		cmp	r3, #0
 136 00aa FAD0     		beq	.L2
  41:main.c        **** 	setbuf(stdout, NULL);
 137              		.loc 1 41 0 is_stmt 1
 138 00ac 40F20003 		movw	r3, #:lower16:_impure_ptr
 139 00b0 C0F20003 		movt	r3, #:upper16:_impure_ptr
 140 00b4 1B68     		ldr	r3, [r3, #0]
 141 00b6 9B68     		ldr	r3, [r3, #8]
 142 00b8 1846     		mov	r0, r3
 143 00ba 4FF00001 		mov	r1, #0
 144 00be FFF7FEFF 		bl	setbuf
  42:main.c        **** 	LED_blinkstop(STATUS);
 145              		.loc 1 42 0
 146 00c2 4FF00000 		mov	r0, #0
 147 00c6 FFF7FEFF 		bl	LED_blinkstop
  43:main.c        **** 
  44:main.c        **** 	enter(IDLE);
 148              		.loc 1 44 0
 149 00ca 4FF00000 		mov	r0, #0
 150 00ce FFF7FEFF 		bl	enter
 151 00d2 02E0     		b	.L14
 152              	.L18:
  45:main.c        **** 
  46:main.c        **** 	while (1) {
  47:main.c        **** 		//TODO always check input limits
  48:main.c        **** 
  49:main.c        **** 		/* Parse command line */
  50:main.c        **** 		cmd = 0;
  51:main.c        **** 		argc = 0;
  52:main.c        **** 		if (USBC_hasData()) {
  53:main.c        **** 			gets(line);
  54:main.c        **** 			if (*line > 0 && *line != 10) {
ARM GAS  /tmp/ccna6WhB.s 			page 5


  55:main.c        **** 				argc = sscanf(line, "%c %u %u %u", &cmd, argv, argv+1, argv+2);
  56:main.c        **** 				if (argc > 0) {
  57:main.c        **** 					TRACE_DEBUG("got %i valid arguments\n", argc);
  58:main.c        **** 
  59:main.c        **** 					if (cmd == 'a') // abort
  60:main.c        **** 						enter(IDLE);
  61:main.c        **** 				}
  62:main.c        **** 			}
  63:main.c        **** 		}
  64:main.c        **** 		
  65:main.c        **** 		/* Handle state */
  66:main.c        **** 		switch (_state) {
  67:main.c        **** 			case IDLE:
  68:main.c        **** 				if (cmd == 's') // start
  69:main.c        **** 					enter(READY);
  70:main.c        **** 				//TODO else if ()  // some configuration
  71:main.c        **** 				break;
  72:main.c        **** 
  73:main.c        **** 			case READY:
  74:main.c        **** 				//TODO if p > pset: enter(SET)
  75:main.c        **** 				break;
  76:main.c        **** 
  77:main.c        **** 			case SET:
  78:main.c        **** 				if (cmd == 's') // start/continue
  79:main.c        **** 					enter(GO);
  80:main.c        **** 				break;
  81:main.c        **** 
  82:main.c        **** 			case GO:
  83:main.c        **** 				//TODO if F > Ftrig: enter(IDLE)
  84:main.c        **** 				break;
  85:main.c        **** 
  86:main.c        **** 			default:
  87:main.c        **** 				TRACE_ERROR("invalid state\n");
  88:main.c        **** 				enter(IDLE);
  89:main.c        **** 		}
  90:main.c        **** 		
  91:main.c        **** 		/* Display state */
  92:main.c        **** 		if ((t=GetTickCount()) % 1000 == 0 && !LED_blinking(STATUS)) 
  93:main.c        **** 			LED_blink(STATUS, _state);
  94:main.c        **** 	}
 153              		.loc 1 94 0
 154 00d4 00BF     		nop
 155 00d6 00E0     		b	.L14
 156              	.L19:
 157 00d8 00BF     		nop
 158              	.L14:
  50:main.c        **** 		cmd = 0;
 159              		.loc 1 50 0
 160 00da 4FF00003 		mov	r3, #0
 161 00de FB76     		strb	r3, [r7, #27]
  51:main.c        **** 		argc = 0;
 162              		.loc 1 51 0
 163 00e0 4FF00003 		mov	r3, #0
 164 00e4 BB64     		str	r3, [r7, #72]
  52:main.c        **** 		if (USBC_hasData()) {
 165              		.loc 1 52 0
 166 00e6 FFF7FEFF 		bl	USBC_hasData
ARM GAS  /tmp/ccna6WhB.s 			page 6


 167 00ea 0346     		mov	r3, r0
 168 00ec 002B     		cmp	r3, #0
 169 00ee 3AD0     		beq	.L3
  53:main.c        **** 			gets(line);
 170              		.loc 1 53 0
 171 00f0 07F11C03 		add	r3, r7, #28
 172 00f4 1846     		mov	r0, r3
 173 00f6 FFF7FEFF 		bl	gets
  54:main.c        **** 			if (*line > 0 && *line != 10) {
 174              		.loc 1 54 0
 175 00fa 3B7F     		ldrb	r3, [r7, #28]	@ zero_extendqisi2
 176 00fc 002B     		cmp	r3, #0
 177 00fe 32D0     		beq	.L3
  54:main.c        **** 			if (*line > 0 && *line != 10) {
 178              		.loc 1 54 0 is_stmt 0 discriminator 1
 179 0100 3B7F     		ldrb	r3, [r7, #28]	@ zero_extendqisi2
 180 0102 0A2B     		cmp	r3, #10
 181 0104 2FD0     		beq	.L3
  55:main.c        **** 				argc = sscanf(line, "%c %u %u %u", &cmd, argv, argv+1, argv+2);
 182              		.loc 1 55 0 is_stmt 1
 183 0106 07F11C01 		add	r1, r7, #28
 184 010a 07F11B02 		add	r2, r7, #27
 185 010e 07F13C03 		add	r3, r7, #60
 186 0112 07F13C00 		add	r0, r7, #60
 187 0116 00F10400 		add	r0, r0, #4
 188 011a 0090     		str	r0, [sp, #0]
 189 011c 07F13C00 		add	r0, r7, #60
 190 0120 00F10800 		add	r0, r0, #8
 191 0124 0190     		str	r0, [sp, #4]
 192 0126 0846     		mov	r0, r1
 193 0128 40F20001 		movw	r1, #:lower16:.LC2
 194 012c C0F20001 		movt	r1, #:upper16:.LC2
 195 0130 FFF7FEFF 		bl	siscanf
 196 0134 B864     		str	r0, [r7, #72]
  56:main.c        **** 				if (argc > 0) {
 197              		.loc 1 56 0
 198 0136 BB6C     		ldr	r3, [r7, #72]
 199 0138 002B     		cmp	r3, #0
 200 013a 14DD     		ble	.L3
  57:main.c        **** 					TRACE_DEBUG("got %i valid arguments\n", argc);
 201              		.loc 1 57 0
 202 013c 40F20003 		movw	r3, #:lower16:_impure_ptr
 203 0140 C0F20003 		movt	r3, #:upper16:_impure_ptr
 204 0144 1B68     		ldr	r3, [r3, #0]
 205 0146 DB68     		ldr	r3, [r3, #12]
 206 0148 1846     		mov	r0, r3
 207 014a 40F20001 		movw	r1, #:lower16:.LC3
 208 014e C0F20001 		movt	r1, #:upper16:.LC3
 209 0152 BA6C     		ldr	r2, [r7, #72]
 210 0154 FFF7FEFF 		bl	fiprintf
  59:main.c        **** 					if (cmd == 'a') // abort
 211              		.loc 1 59 0
 212 0158 FB7E     		ldrb	r3, [r7, #27]	@ zero_extendqisi2
 213 015a 612B     		cmp	r3, #97
 214 015c 03D1     		bne	.L3
  60:main.c        **** 						enter(IDLE);
 215              		.loc 1 60 0
ARM GAS  /tmp/ccna6WhB.s 			page 7


 216 015e 4FF00000 		mov	r0, #0
 217 0162 FFF7FEFF 		bl	enter
 218              	.L3:
  66:main.c        **** 		switch (_state) {
 219              		.loc 1 66 0
 220 0166 40F20003 		movw	r3, #:lower16:_state
 221 016a C0F20003 		movt	r3, #:upper16:_state
 222 016e 1B78     		ldrb	r3, [r3, #0]	@ zero_extendqisi2
 223 0170 032B     		cmp	r3, #3
 224 0172 1BD8     		bhi	.L4
 225 0174 01A1     		adr	r1, .L9
 226 0176 51F823F0 		ldr	pc, [r1, r3, lsl #2]
 227 017a 00BF     		.align	2
 228              	.L9:
 229 017c 8D010000 		.word	.L5+1
 230 0180 D1010000 		.word	.L15+1
 231 0184 9D010000 		.word	.L7+1
 232 0188 D1010000 		.word	.L15+1
 233              	.L5:
  68:main.c        **** 				if (cmd == 's') // start
 234              		.loc 1 68 0
 235 018c FB7E     		ldrb	r3, [r7, #27]	@ zero_extendqisi2
 236 018e 732B     		cmp	r3, #115
 237 0190 20D1     		bne	.L16
  69:main.c        **** 					enter(READY);
 238              		.loc 1 69 0
 239 0192 4FF00100 		mov	r0, #1
 240 0196 FFF7FEFF 		bl	enter
  71:main.c        **** 				break;
 241              		.loc 1 71 0
 242 019a 1EE0     		b	.L11
 243              	.L7:
  78:main.c        **** 				if (cmd == 's') // start/continue
 244              		.loc 1 78 0
 245 019c FB7E     		ldrb	r3, [r7, #27]	@ zero_extendqisi2
 246 019e 732B     		cmp	r3, #115
 247 01a0 1AD1     		bne	.L17
  79:main.c        **** 					enter(GO);
 248              		.loc 1 79 0
 249 01a2 4FF00300 		mov	r0, #3
 250 01a6 FFF7FEFF 		bl	enter
  80:main.c        **** 				break;
 251              		.loc 1 80 0
 252 01aa 16E0     		b	.L11
 253              	.L4:
  87:main.c        **** 				TRACE_ERROR("invalid state\n");
 254              		.loc 1 87 0
 255 01ac 40F20003 		movw	r3, #:lower16:_impure_ptr
 256 01b0 C0F20003 		movt	r3, #:upper16:_impure_ptr
 257 01b4 1B68     		ldr	r3, [r3, #0]
 258 01b6 DB68     		ldr	r3, [r3, #12]
 259 01b8 1846     		mov	r0, r3
 260 01ba 40F20001 		movw	r1, #:lower16:.LC4
 261 01be C0F20001 		movt	r1, #:upper16:.LC4
 262 01c2 FFF7FEFF 		bl	fiprintf
  88:main.c        **** 				enter(IDLE);
 263              		.loc 1 88 0
ARM GAS  /tmp/ccna6WhB.s 			page 8


 264 01c6 4FF00000 		mov	r0, #0
 265 01ca FFF7FEFF 		bl	enter
 266 01ce 04E0     		b	.L11
 267              	.L15:
  75:main.c        **** 				break;
 268              		.loc 1 75 0
 269 01d0 00BF     		nop
 270 01d2 02E0     		b	.L11
 271              	.L16:
  71:main.c        **** 				break;
 272              		.loc 1 71 0
 273 01d4 00BF     		nop
 274 01d6 00E0     		b	.L11
 275              	.L17:
  80:main.c        **** 				break;
 276              		.loc 1 80 0
 277 01d8 00BF     		nop
 278              	.L11:
  92:main.c        **** 		if ((t=GetTickCount()) % 1000 == 0 && !LED_blinking(STATUS)) 
 279              		.loc 1 92 0
 280 01da FFF7FEFF 		bl	GetTickCount
 281 01de 0346     		mov	r3, r0
 282 01e0 FB64     		str	r3, [r7, #76]
 283 01e2 FA6C     		ldr	r2, [r7, #76]
 284 01e4 44F6D353 		movw	r3, #19923
 285 01e8 C1F26203 		movt	r3, 4194
 286 01ec 83FB0213 		smull	r1, r3, r3, r2
 287 01f0 4FEAA311 		asr	r1, r3, #6
 288 01f4 4FEAE273 		asr	r3, r2, #31
 289 01f8 CB1A     		subs	r3, r1, r3
 290 01fa 4FF47A71 		mov	r1, #1000
 291 01fe 01FB03F3 		mul	r3, r1, r3
 292 0202 D31A     		subs	r3, r2, r3
 293 0204 002B     		cmp	r3, #0
 294 0206 7FF465AF 		bne	.L18
  92:main.c        **** 		if ((t=GetTickCount()) % 1000 == 0 && !LED_blinking(STATUS)) 
 295              		.loc 1 92 0 is_stmt 0 discriminator 1
 296 020a 4FF00000 		mov	r0, #0
 297 020e FFF7FEFF 		bl	LED_blinking
 298 0212 0346     		mov	r3, r0
 299 0214 002B     		cmp	r3, #0
 300 0216 7FF45FAF 		bne	.L19
  93:main.c        **** 			LED_blink(STATUS, _state);
 301              		.loc 1 93 0 is_stmt 1
 302 021a 40F20003 		movw	r3, #:lower16:_state
 303 021e C0F20003 		movt	r3, #:upper16:_state
 304 0222 1B78     		ldrb	r3, [r3, #0]	@ zero_extendqisi2
 305 0224 4FF00000 		mov	r0, #0
 306 0228 1946     		mov	r1, r3
 307 022a FFF7FEFF 		bl	LED_blink
 308              		.loc 1 94 0
 309 022e 54E7     		b	.L14
 310              		.cfi_endproc
 311              	.LFE35:
 312              		.size	main, .-main
 313              		.section	.text.do_press,"ax",%progbits
 314              		.align	2
ARM GAS  /tmp/ccna6WhB.s 			page 9


 315              		.global	do_press
 316              		.thumb
 317              		.thumb_func
 318              		.type	do_press, %function
 319              	do_press:
 320              	.LFB36:
  95:main.c        **** 	return 0;
  96:main.c        **** }
  97:main.c        **** 
  98:main.c        **** void do_press() 
  99:main.c        **** {
 321              		.loc 1 99 0
 322              		.cfi_startproc
 323              		@ args = 0, pretend = 0, frame = 24
 324              		@ frame_needed = 1, uses_anonymous_args = 0
 325 0000 90B5     		push	{r4, r7, lr}
 326              	.LCFI3:
 327              		.cfi_def_cfa_offset 12
 328 0002 87B0     		sub	sp, sp, #28
 329              	.LCFI4:
 330              		.cfi_def_cfa_offset 40
 331 0004 00AF     		add	r7, sp, #0
 332              		.cfi_offset 14, -4
 333              		.cfi_offset 7, -8
 334              		.cfi_offset 4, -12
 335              	.LCFI5:
 336              		.cfi_def_cfa_register 7
 100:main.c        **** 	const Pin p = PIN_VAL_press;
 337              		.loc 1 100 0
 338 0006 40F20003 		movw	r3, #:lower16:C.8.6300
 339 000a C0F20003 		movt	r3, #:upper16:C.8.6300
 340 000e 07F10C04 		add	r4, r7, #12
 341 0012 93E80700 		ldmia	r3, {r0, r1, r2}
 342 0016 84E80700 		stmia	r4, {r0, r1, r2}
 101:main.c        **** 	const Pin v = PIN_VAL_vent;
 343              		.loc 1 101 0
 344 001a 40F20003 		movw	r3, #:lower16:C.9.6301
 345 001e C0F20003 		movt	r3, #:upper16:C.9.6301
 346 0022 3C46     		mov	r4, r7
 347 0024 93E80700 		ldmia	r3, {r0, r1, r2}
 348 0028 84E80700 		stmia	r4, {r0, r1, r2}
 102:main.c        **** 	PIO_Clear(&v); PIO_Set(&p);
 349              		.loc 1 102 0
 350 002c 3B46     		mov	r3, r7
 351 002e 1846     		mov	r0, r3
 352 0030 FFF7FEFF 		bl	PIO_Clear
 353 0034 07F10C03 		add	r3, r7, #12
 354 0038 1846     		mov	r0, r3
 355 003a FFF7FEFF 		bl	PIO_Set
 103:main.c        **** }
 356              		.loc 1 103 0
 357 003e 07F11C07 		add	r7, r7, #28
 358 0042 BD46     		mov	sp, r7
 359 0044 90BD     		pop	{r4, r7, pc}
 360              		.cfi_endproc
 361              	.LFE36:
 362              		.size	do_press, .-do_press
ARM GAS  /tmp/ccna6WhB.s 			page 10


 363 0046 00BF     		.section	.text.do_hold,"ax",%progbits
 364              		.align	2
 365              		.global	do_hold
 366              		.thumb
 367              		.thumb_func
 368              		.type	do_hold, %function
 369              	do_hold:
 370              	.LFB37:
 104:main.c        **** 
 105:main.c        **** void do_hold()
 106:main.c        **** {
 371              		.loc 1 106 0
 372              		.cfi_startproc
 373              		@ args = 0, pretend = 0, frame = 24
 374              		@ frame_needed = 1, uses_anonymous_args = 0
 375 0000 B0B5     		push	{r4, r5, r7, lr}
 376              	.LCFI6:
 377              		.cfi_def_cfa_offset 16
 378 0002 86B0     		sub	sp, sp, #24
 379              	.LCFI7:
 380              		.cfi_def_cfa_offset 40
 381 0004 00AF     		add	r7, sp, #0
 382              		.cfi_offset 14, -4
 383              		.cfi_offset 7, -8
 384              		.cfi_offset 5, -12
 385              		.cfi_offset 4, -16
 386              	.LCFI8:
 387              		.cfi_def_cfa_register 7
 107:main.c        **** 	const Pin pins[] = {PINS_VAL};
 388              		.loc 1 107 0
 389 0006 40F20003 		movw	r3, #:lower16:C.7.6299
 390 000a C0F20003 		movt	r3, #:upper16:C.7.6299
 391 000e 3C46     		mov	r4, r7
 392 0010 1D46     		mov	r5, r3
 393 0012 0FCD     		ldmia	r5!, {r0, r1, r2, r3}
 394 0014 0FC4     		stmia	r4!, {r0, r1, r2, r3}
 395 0016 95E80300 		ldmia	r5, {r0, r1}
 396 001a 84E80300 		stmia	r4, {r0, r1}
 108:main.c        **** 	PIO_Clear(pins);
 397              		.loc 1 108 0
 398 001e 3B46     		mov	r3, r7
 399 0020 1846     		mov	r0, r3
 400 0022 FFF7FEFF 		bl	PIO_Clear
 109:main.c        **** }
 401              		.loc 1 109 0
 402 0026 07F11807 		add	r7, r7, #24
 403 002a BD46     		mov	sp, r7
 404 002c B0BD     		pop	{r4, r5, r7, pc}
 405              		.cfi_endproc
 406              	.LFE37:
 407              		.size	do_hold, .-do_hold
 408 002e 00BF     		.section	.text.do_vent,"ax",%progbits
 409              		.align	2
 410              		.global	do_vent
 411              		.thumb
 412              		.thumb_func
 413              		.type	do_vent, %function
ARM GAS  /tmp/ccna6WhB.s 			page 11


 414              	do_vent:
 415              	.LFB38:
 110:main.c        **** 
 111:main.c        **** void do_vent()
 112:main.c        **** {
 416              		.loc 1 112 0
 417              		.cfi_startproc
 418              		@ args = 0, pretend = 0, frame = 24
 419              		@ frame_needed = 1, uses_anonymous_args = 0
 420 0000 90B5     		push	{r4, r7, lr}
 421              	.LCFI9:
 422              		.cfi_def_cfa_offset 12
 423 0002 87B0     		sub	sp, sp, #28
 424              	.LCFI10:
 425              		.cfi_def_cfa_offset 40
 426 0004 00AF     		add	r7, sp, #0
 427              		.cfi_offset 14, -4
 428              		.cfi_offset 7, -8
 429              		.cfi_offset 4, -12
 430              	.LCFI11:
 431              		.cfi_def_cfa_register 7
 113:main.c        **** 	const Pin p = PIN_VAL_press;
 432              		.loc 1 113 0
 433 0006 40F20003 		movw	r3, #:lower16:C.5.6297
 434 000a C0F20003 		movt	r3, #:upper16:C.5.6297
 435 000e 07F10C04 		add	r4, r7, #12
 436 0012 93E80700 		ldmia	r3, {r0, r1, r2}
 437 0016 84E80700 		stmia	r4, {r0, r1, r2}
 114:main.c        **** 	const Pin v = PIN_VAL_vent;
 438              		.loc 1 114 0
 439 001a 40F20003 		movw	r3, #:lower16:C.6.6298
 440 001e C0F20003 		movt	r3, #:upper16:C.6.6298
 441 0022 3C46     		mov	r4, r7
 442 0024 93E80700 		ldmia	r3, {r0, r1, r2}
 443 0028 84E80700 		stmia	r4, {r0, r1, r2}
 115:main.c        **** 	PIO_Clear(&p); PIO_Set(&v);
 444              		.loc 1 115 0
 445 002c 07F10C03 		add	r3, r7, #12
 446 0030 1846     		mov	r0, r3
 447 0032 FFF7FEFF 		bl	PIO_Clear
 448 0036 3B46     		mov	r3, r7
 449 0038 1846     		mov	r0, r3
 450 003a FFF7FEFF 		bl	PIO_Set
 116:main.c        **** }
 451              		.loc 1 116 0
 452 003e 07F11C07 		add	r7, r7, #28
 453 0042 BD46     		mov	sp, r7
 454 0044 90BD     		pop	{r4, r7, pc}
 455              		.cfi_endproc
 456              	.LFE38:
 457              		.size	do_vent, .-do_vent
 458 0046 00BF     		.section	.rodata
 459 007f 00       		.align	2
 460              	.LC5:
 461 0080 2D442D20 		.ascii	"-D- entered state IDLE\012\000"
 461      656E7465 
 461      72656420 
ARM GAS  /tmp/ccna6WhB.s 			page 12


 461      73746174 
 461      65204944 
 462              		.align	2
 463              	.LC6:
 464 0098 2D442D20 		.ascii	"-D- entered state READY\012\000"
 464      656E7465 
 464      72656420 
 464      73746174 
 464      65205245 
 465 00b1 000000   		.align	2
 466              	.LC7:
 467 00b4 2D442D20 		.ascii	"-D- entered state SET\012\000"
 467      656E7465 
 467      72656420 
 467      73746174 
 467      65205345 
 468 00cb 00       		.align	2
 469              	.LC8:
 470 00cc 2D442D20 		.ascii	"-D- entered state GO\012\000"
 470      656E7465 
 470      72656420 
 470      73746174 
 470      6520474F 
 471 00e2 0000     		.align	2
 472              	.LC9:
 473 00e4 2D442D20 		.ascii	"-D- got invalid state\012\000"
 473      676F7420 
 473      696E7661 
 473      6C696420 
 473      73746174 
 474              		.section	.text.enter,"ax",%progbits
 475              		.align	2
 476              		.global	enter
 477              		.thumb
 478              		.thumb_func
 479              		.type	enter, %function
 480              	enter:
 481              	.LFB39:
 117:main.c        **** 
 118:main.c        **** void enter(uint8_t new) 
 119:main.c        **** {
 482              		.loc 1 119 0
 483              		.cfi_startproc
 484              		@ args = 0, pretend = 0, frame = 8
 485              		@ frame_needed = 1, uses_anonymous_args = 0
 486 0000 80B5     		push	{r7, lr}
 487              	.LCFI12:
 488              		.cfi_def_cfa_offset 8
 489 0002 82B0     		sub	sp, sp, #8
 490              	.LCFI13:
 491              		.cfi_def_cfa_offset 16
 492 0004 00AF     		add	r7, sp, #0
 493              		.cfi_offset 14, -4
 494              		.cfi_offset 7, -8
 495              	.LCFI14:
 496              		.cfi_def_cfa_register 7
 497 0006 0346     		mov	r3, r0
ARM GAS  /tmp/ccna6WhB.s 			page 13


 498 0008 FB71     		strb	r3, [r7, #7]
 120:main.c        **** 	LED_blinkstop(STATUS);
 499              		.loc 1 120 0
 500 000a 4FF00000 		mov	r0, #0
 501 000e FFF7FEFF 		bl	LED_blinkstop
 121:main.c        **** 	LED_clr(STATUS);
 502              		.loc 1 121 0
 503 0012 4FF00000 		mov	r0, #0
 504 0016 FFF7FEFF 		bl	LED_clr
 122:main.c        **** 	switch (new) {
 505              		.loc 1 122 0
 506 001a FB79     		ldrb	r3, [r7, #7]	@ zero_extendqisi2
 507 001c 032B     		cmp	r3, #3
 508 001e 4BD8     		bhi	.L24
 509 0020 01A2     		adr	r2, .L29
 510 0022 52F823F0 		ldr	pc, [r2, r3, lsl #2]
 511 0026 00BF     		.align	2
 512              	.L29:
 513 0028 39000000 		.word	.L25+1
 514 002c 59000000 		.word	.L26+1
 515 0030 79000000 		.word	.L27+1
 516 0034 99000000 		.word	.L28+1
 517              	.L25:
 123:main.c        **** 		case IDLE:
 124:main.c        **** 			do_vent();
 518              		.loc 1 124 0
 519 0038 FFF7FEFF 		bl	do_vent
 125:main.c        **** 			TRACE_DEBUG("entered state IDLE\n");
 520              		.loc 1 125 0
 521 003c 40F20003 		movw	r3, #:lower16:_impure_ptr
 522 0040 C0F20003 		movt	r3, #:upper16:_impure_ptr
 523 0044 1B68     		ldr	r3, [r3, #0]
 524 0046 DB68     		ldr	r3, [r3, #12]
 525 0048 1846     		mov	r0, r3
 526 004a 40F20001 		movw	r1, #:lower16:.LC5
 527 004e C0F20001 		movt	r1, #:upper16:.LC5
 528 0052 FFF7FEFF 		bl	fiprintf
 126:main.c        **** 			break;
 529              		.loc 1 126 0
 530 0056 41E0     		b	.L30
 531              	.L26:
 127:main.c        **** 		case READY:
 128:main.c        **** 			do_press();
 532              		.loc 1 128 0
 533 0058 FFF7FEFF 		bl	do_press
 129:main.c        **** 			TRACE_DEBUG("entered state READY\n");
 534              		.loc 1 129 0
 535 005c 40F20003 		movw	r3, #:lower16:_impure_ptr
 536 0060 C0F20003 		movt	r3, #:upper16:_impure_ptr
 537 0064 1B68     		ldr	r3, [r3, #0]
 538 0066 DB68     		ldr	r3, [r3, #12]
 539 0068 1846     		mov	r0, r3
 540 006a 40F20001 		movw	r1, #:lower16:.LC6
 541 006e C0F20001 		movt	r1, #:upper16:.LC6
 542 0072 FFF7FEFF 		bl	fiprintf
 130:main.c        **** 			break;
 543              		.loc 1 130 0
ARM GAS  /tmp/ccna6WhB.s 			page 14


 544 0076 31E0     		b	.L30
 545              	.L27:
 131:main.c        **** 		case SET:
 132:main.c        **** 			do_hold();
 546              		.loc 1 132 0
 547 0078 FFF7FEFF 		bl	do_hold
 133:main.c        **** 			TRACE_DEBUG("entered state SET\n");
 548              		.loc 1 133 0
 549 007c 40F20003 		movw	r3, #:lower16:_impure_ptr
 550 0080 C0F20003 		movt	r3, #:upper16:_impure_ptr
 551 0084 1B68     		ldr	r3, [r3, #0]
 552 0086 DB68     		ldr	r3, [r3, #12]
 553 0088 1846     		mov	r0, r3
 554 008a 40F20001 		movw	r1, #:lower16:.LC7
 555 008e C0F20001 		movt	r1, #:upper16:.LC7
 556 0092 FFF7FEFF 		bl	fiprintf
 134:main.c        **** 			break;
 557              		.loc 1 134 0
 558 0096 21E0     		b	.L30
 559              	.L28:
 135:main.c        **** 		case GO:
 136:main.c        **** 			do_press();
 560              		.loc 1 136 0
 561 0098 FFF7FEFF 		bl	do_press
 137:main.c        **** 			TRACE_DEBUG("entered state GO\n");
 562              		.loc 1 137 0
 563 009c 40F20003 		movw	r3, #:lower16:_impure_ptr
 564 00a0 C0F20003 		movt	r3, #:upper16:_impure_ptr
 565 00a4 1B68     		ldr	r3, [r3, #0]
 566 00a6 DB68     		ldr	r3, [r3, #12]
 567 00a8 1846     		mov	r0, r3
 568 00aa 40F20001 		movw	r1, #:lower16:.LC8
 569 00ae C0F20001 		movt	r1, #:upper16:.LC8
 570 00b2 FFF7FEFF 		bl	fiprintf
 138:main.c        **** 			break;
 571              		.loc 1 138 0
 572 00b6 11E0     		b	.L30
 573              	.L24:
 139:main.c        **** 		default:
 140:main.c        **** 			TRACE_DEBUG("got invalid state\n");
 574              		.loc 1 140 0
 575 00b8 40F20003 		movw	r3, #:lower16:_impure_ptr
 576 00bc C0F20003 		movt	r3, #:upper16:_impure_ptr
 577 00c0 1B68     		ldr	r3, [r3, #0]
 578 00c2 DB68     		ldr	r3, [r3, #12]
 579 00c4 1846     		mov	r0, r3
 580 00c6 40F20001 		movw	r1, #:lower16:.LC9
 581 00ca C0F20001 		movt	r1, #:upper16:.LC9
 582 00ce FFF7FEFF 		bl	fiprintf
 141:main.c        **** 			enter(IDLE);
 583              		.loc 1 141 0
 584 00d2 4FF00000 		mov	r0, #0
 585 00d6 FFF7FEFF 		bl	enter
 142:main.c        **** 			return;
 586              		.loc 1 142 0
 587 00da 05E0     		b	.L23
 588              	.L30:
ARM GAS  /tmp/ccna6WhB.s 			page 15


 143:main.c        **** 	}
 144:main.c        **** 	_state = new;
 589              		.loc 1 144 0
 590 00dc 40F20003 		movw	r3, #:lower16:_state
 591 00e0 C0F20003 		movt	r3, #:upper16:_state
 592 00e4 FA79     		ldrb	r2, [r7, #7]
 593 00e6 1A70     		strb	r2, [r3, #0]
 594              	.L23:
 145:main.c        **** }
 595              		.loc 1 145 0
 596 00e8 07F10807 		add	r7, r7, #8
 597 00ec BD46     		mov	sp, r7
 598 00ee 80BD     		pop	{r7, pc}
 599              		.cfi_endproc
 600              	.LFE39:
 601              		.size	enter, .-enter
 602              		.section	.rodata
 603 00fb 00       		.align	2
 604              		.type	C.5.6297, %object
 605              		.size	C.5.6297, 12
 606              	C.5.6297:
 607 00fc 08000000 		.word	8
 608 0100 000E0E40 		.word	1074662912
 609 0104 0B       		.byte	11
 610 0105 05       		.byte	5
 611 0106 00       		.byte	0
 612 0107 00       		.space	1
 613              		.align	2
 614              		.type	C.6.6298, %object
 615              		.size	C.6.6298, 12
 616              	C.6.6298:
 617 0108 04000000 		.word	4
 618 010c 000E0E40 		.word	1074662912
 619 0110 0B       		.byte	11
 620 0111 05       		.byte	5
 621 0112 00       		.byte	0
 622 0113 00       		.space	1
 623              		.align	2
 624              		.type	C.7.6299, %object
 625              		.size	C.7.6299, 24
 626              	C.7.6299:
 627 0114 04000000 		.word	4
 628 0118 000E0E40 		.word	1074662912
 629 011c 0B       		.byte	11
 630 011d 05       		.byte	5
 631 011e 00       		.byte	0
 632 011f 00       		.space	1
 633 0120 08000000 		.word	8
 634 0124 000E0E40 		.word	1074662912
 635 0128 0B       		.byte	11
 636 0129 05       		.byte	5
 637 012a 00       		.byte	0
 638 012b 00       		.space	1
 639              		.align	2
 640              		.type	C.8.6300, %object
 641              		.size	C.8.6300, 12
 642              	C.8.6300:
ARM GAS  /tmp/ccna6WhB.s 			page 16


 643 012c 08000000 		.word	8
 644 0130 000E0E40 		.word	1074662912
 645 0134 0B       		.byte	11
 646 0135 05       		.byte	5
 647 0136 00       		.byte	0
 648 0137 00       		.space	1
 649              		.align	2
 650              		.type	C.9.6301, %object
 651              		.size	C.9.6301, 12
 652              	C.9.6301:
 653 0138 04000000 		.word	4
 654 013c 000E0E40 		.word	1074662912
 655 0140 0B       		.byte	11
 656 0141 05       		.byte	5
 657 0142 00       		.byte	0
 658 0143 00       		.space	1
 659              		.align	2
 660              		.type	C.10.6302, %object
 661              		.size	C.10.6302, 24
 662              	C.10.6302:
 663 0144 04000000 		.word	4
 664 0148 000E0E40 		.word	1074662912
 665 014c 0B       		.byte	11
 666 014d 05       		.byte	5
 667 014e 00       		.byte	0
 668 014f 00       		.space	1
 669 0150 08000000 		.word	8
 670 0154 000E0E40 		.word	1074662912
 671 0158 0B       		.byte	11
 672 0159 05       		.byte	5
 673 015a 00       		.byte	0
 674 015b 00       		.space	1
 675              		.text
 676              	.Letext0: