ARM GAS  /tmp/ccXWoaLx.s 			page 1


   1              		.syntax unified
   2              		.cpu cortex-m3
   3              		.fpu softvfp
   4              		.eabi_attribute 20, 1
   5              		.eabi_attribute 21, 1
   6              		.eabi_attribute 23, 3
   7              		.eabi_attribute 24, 1
   8              		.eabi_attribute 25, 1
   9              		.eabi_attribute 26, 1
  10              		.eabi_attribute 30, 6
  11              		.eabi_attribute 18, 4
  12              		.thumb
  13              		.file	"main.c"
  14              		.section	.debug_abbrev,"",%progbits
  15              	.Ldebug_abbrev0:
  16              		.section	.debug_info,"",%progbits
  17              	.Ldebug_info0:
  18              		.section	.debug_line,"",%progbits
  19              	.Ldebug_line0:
  20 0000 2D020000 		.text
  20      02006101 
  20      00000201 
  20      FB0E0D00 
  20      01010101 
  21              	.Ltext0:
  22              		.cfi_sections	.debug_frame
  23              		.global	_state
  24              		.data
  25              		.type	_state, %object
  26              		.size	_state, 1
  27              	_state:
  28 0000 01       		.byte	1
  29              		.section	.rodata
  30              		.align	2
  31              	.LC0:
  32 0000 2D492D20 		.ascii	"-I- Running at %i MHz\012\000"
  32      52756E6E 
  32      696E6720 
  32      61742025 
  32      69204D48 
  33 0017 00       		.align	2
  34              	.LC1:
  35 0018 2D442D20 		.ascii	"-D- waiting until USB is fully configured\012\000"
  35      77616974 
  35      696E6720 
  35      756E7469 
  35      6C205553 
  36 0043 00       		.align	2
  37              	.LC2:
  38 0044 2D492D20 		.ascii	"-I- FMAX reached.\012\000"
  38      464D4158 
  38      20726561 
  38      63686564 
  38      2E0A00
  39 0057 00       		.align	2
  40              	.LC3:
  41 0058 2D492D20 		.ascii	"-I- PMAX reached.\012\000"
ARM GAS  /tmp/ccXWoaLx.s 			page 2


  41      504D4158 
  41      20726561 
  41      63686564 
  41      2E0A00
  42 006b 00       		.align	2
  43              	.LC4:
  44 006c 2D492D20 		.ascii	"-I- SMAX reached.\012\000"
  44      534D4158 
  44      20726561 
  44      63686564 
  44      2E0A00
  45 007f 00       		.align	2
  46              	.LC5:
  47 0080 25632025 		.ascii	"%c %u %u %u\000"
  47      75202575 
  47      20257500 
  48              		.align	2
  49              	.LC6:
  50 008c 2D442D20 		.ascii	"-D- got %i valid arguments\012\000"
  50      676F7420 
  50      25692076 
  50      616C6964 
  50      20617267 
  51              		.align	2
  52              	.LC7:
  53 00a8 2D452D20 		.ascii	"-E- invalid state\012\000"
  53      696E7661 
  53      6C696420 
  53      73746174 
  53      650A00
  54              		.section	.text.main,"ax",%progbits
  55              		.align	2
  56              		.global	main
  57              		.thumb
  58              		.thumb_func
  59              		.type	main, %function
  60              	main:
  61              	.LFB35:
  62              		.file 1 "main.c"
   1:main.c        **** #include <string.h>
   2:main.c        **** #include "conf.h"
   3:main.c        **** 
   4:main.c        **** #define IDLE  0
   5:main.c        **** #define READY 1
   6:main.c        **** #define SET   2
   7:main.c        **** #define GO    3
   8:main.c        **** 
   9:main.c        **** #define F AIN0
  10:main.c        **** #define p AIN1
  11:main.c        **** #define s AIN2
  12:main.c        **** 
  13:main.c        **** #define PAR_PSET 50
  14:main.c        **** #define PAR_PMAX VREF
  15:main.c        **** #define PAR_SMAX VREF
  16:main.c        **** #define PAR_FMAX VREF
  17:main.c        **** 
  18:main.c        **** uint8_t _state = READY;
ARM GAS  /tmp/ccXWoaLx.s 			page 3


  19:main.c        **** 
  20:main.c        **** extern uint16_t current[NUM_AIN];   // current ADC input in mV
  21:main.c        **** extern uint16_t previous[NUM_AIN];  // previous ADC input in mV
  22:main.c        **** 
  23:main.c        **** extern void input_init();
  24:main.c        **** 
  25:main.c        **** void do_press();
  26:main.c        **** void do_hold();
  27:main.c        **** void do_vent();
  28:main.c        **** 
  29:main.c        **** void enter(uint8_t new);
  30:main.c        **** 
  31:main.c        **** int main() 
  32:main.c        **** {
  63              		.loc 1 32 0
  64              		.cfi_startproc
  65              		@ args = 0, pretend = 0, frame = 80
  66              		@ frame_needed = 1, uses_anonymous_args = 0
  67 0000 B0B5     		push	{r4, r5, r7, lr}
  68              	.LCFI0:
  69              		.cfi_def_cfa_offset 16
  70 0002 96B0     		sub	sp, sp, #88
  71              	.LCFI1:
  72              		.cfi_def_cfa_offset 104
  73 0004 02AF     		add	r7, sp, #8
  74              		.cfi_offset 14, -4
  75              		.cfi_offset 7, -8
  76              		.cfi_offset 5, -12
  77              		.cfi_offset 4, -16
  78              	.LCFI2:
  79              		.cfi_def_cfa 7, 96
  33:main.c        **** 	int t = 0;
  80              		.loc 1 33 0
  81 0006 4FF00003 		mov	r3, #0
  82 000a FB64     		str	r3, [r7, #76]
  34:main.c        **** 	int argc;
  35:main.c        **** 	int argv[3];
  36:main.c        **** 	char line[32];
  37:main.c        **** 	char cmd = 0;
  83              		.loc 1 37 0
  84 000c 4FF00003 		mov	r3, #0
  85 0010 FB76     		strb	r3, [r7, #27]
  38:main.c        **** 	const Pin pinsout[] = {PINS_VAL};
  86              		.loc 1 38 0
  87 0012 40F20003 		movw	r3, #:lower16:C.10.6306
  88 0016 C0F20003 		movt	r3, #:upper16:C.10.6306
  89 001a 3C46     		mov	r4, r7
  90 001c 1D46     		mov	r5, r3
  91 001e 0FCD     		ldmia	r5!, {r0, r1, r2, r3}
  92 0020 0FC4     		stmia	r4!, {r0, r1, r2, r3}
  93 0022 95E80300 		ldmia	r5, {r0, r1}
  94 0026 84E80300 		stmia	r4, {r0, r1}
  39:main.c        **** 
  40:main.c        **** 	TRACE_INFO("Running at %i MHz\n", BOARD_MCK/1000000);
  95              		.loc 1 40 0
  96 002a 40F20003 		movw	r3, #:lower16:_impure_ptr
  97 002e C0F20003 		movt	r3, #:upper16:_impure_ptr
ARM GAS  /tmp/ccXWoaLx.s 			page 4


  98 0032 1B68     		ldr	r3, [r3, #0]
  99 0034 DB68     		ldr	r3, [r3, #12]
 100 0036 1846     		mov	r0, r3
 101 0038 40F20001 		movw	r1, #:lower16:.LC0
 102 003c C0F20001 		movt	r1, #:upper16:.LC0
 103 0040 4FF03002 		mov	r2, #48
 104 0044 FFF7FEFF 		bl	fiprintf
  41:main.c        **** 
  42:main.c        ****     WDT->WDT_MR = WDT_MR_WDDIS;
 105              		.loc 1 42 0
 106 0048 41F25043 		movw	r3, #5200
 107 004c C4F20E03 		movt	r3, 16398
 108 0050 4FF40042 		mov	r2, #32768
 109 0054 5A60     		str	r2, [r3, #4]
  43:main.c        **** 	TimeTick_Configure(BOARD_MCK);
 110              		.loc 1 43 0
 111 0056 4FF4D840 		mov	r0, #27648
 112 005a C0F2DC20 		movt	r0, 732
 113 005e FFF7FEFF 		bl	TimeTick_Configure
  44:main.c        **** 	LEDs_configure();
 114              		.loc 1 44 0
 115 0062 FFF7FEFF 		bl	LEDs_configure
  45:main.c        **** 
  46:main.c        **** 	/* configure hardware */
  47:main.c        **** 	LED_blink(STATUS, FOREVER);
 116              		.loc 1 47 0
 117 0066 4FF00000 		mov	r0, #0
 118 006a 4FF0FF31 		mov	r1, #-1
 119 006e FFF7FEFF 		bl	LED_blink
  48:main.c        **** 	PIO_Configure(pinsout, PIO_LISTSIZE(pinsout));
 120              		.loc 1 48 0
 121 0072 3B46     		mov	r3, r7
 122 0074 1846     		mov	r0, r3
 123 0076 4FF00201 		mov	r1, #2
 124 007a FFF7FEFF 		bl	PIO_Configure
  49:main.c        **** 	input_init();
 125              		.loc 1 49 0
 126 007e FFF7FEFF 		bl	input_init
  50:main.c        **** 	USBC_Configure();
 127              		.loc 1 50 0
 128 0082 FFF7FEFF 		bl	USBC_Configure
  51:main.c        **** 	TRACE_DEBUG("waiting until USB is fully configured\n");
 129              		.loc 1 51 0
 130 0086 40F20003 		movw	r3, #:lower16:_impure_ptr
 131 008a C0F20003 		movt	r3, #:upper16:_impure_ptr
 132 008e 1B68     		ldr	r3, [r3, #0]
 133 0090 DB68     		ldr	r3, [r3, #12]
 134 0092 1846     		mov	r0, r3
 135 0094 40F20001 		movw	r1, #:lower16:.LC1
 136 0098 C0F20001 		movt	r1, #:upper16:.LC1
 137 009c FFF7FEFF 		bl	fiprintf
  52:main.c        **** 	while (!USBC_isConfigured());
 138              		.loc 1 52 0
 139 00a0 00BF     		nop
 140              	.L2:
 141              		.loc 1 52 0 is_stmt 0 discriminator 1
 142 00a2 FFF7FEFF 		bl	USBC_isConfigured
ARM GAS  /tmp/ccXWoaLx.s 			page 5


 143 00a6 0346     		mov	r3, r0
 144 00a8 002B     		cmp	r3, #0
 145 00aa FAD0     		beq	.L2
  53:main.c        **** 	setbuf(stdout, NULL);
 146              		.loc 1 53 0 is_stmt 1
 147 00ac 40F20003 		movw	r3, #:lower16:_impure_ptr
 148 00b0 C0F20003 		movt	r3, #:upper16:_impure_ptr
 149 00b4 1B68     		ldr	r3, [r3, #0]
 150 00b6 9B68     		ldr	r3, [r3, #8]
 151 00b8 1846     		mov	r0, r3
 152 00ba 4FF00001 		mov	r1, #0
 153 00be FFF7FEFF 		bl	setbuf
  54:main.c        **** 	LED_blinkstop(STATUS);
 154              		.loc 1 54 0
 155 00c2 4FF00000 		mov	r0, #0
 156 00c6 FFF7FEFF 		bl	LED_blinkstop
  55:main.c        **** 
  56:main.c        **** 	enter(IDLE);
 157              		.loc 1 56 0
 158 00ca 4FF00000 		mov	r0, #0
 159 00ce FFF7FEFF 		bl	enter
 160 00d2 02E0     		b	.L19
 161              	.L24:
  57:main.c        **** 
  58:main.c        **** 	while (1) {
  59:main.c        **** 		if (current[F] >= PAR_FMAX) {
  60:main.c        **** 			TRACE_INFO("FMAX reached.\n");
  61:main.c        **** 			enter(IDLE);
  62:main.c        **** 		}
  63:main.c        **** 		if (current[p] >= PAR_PMAX) {
  64:main.c        **** 			TRACE_INFO("PMAX reached.\n");
  65:main.c        **** 			enter(IDLE);
  66:main.c        **** 		}
  67:main.c        **** 		if (current[s] >= PAR_SMAX) {
  68:main.c        **** 			TRACE_INFO("SMAX reached.\n");
  69:main.c        **** 			enter(IDLE);
  70:main.c        **** 		}
  71:main.c        **** 
  72:main.c        **** 		/* Parse command line */
  73:main.c        **** 		cmd = 0;
  74:main.c        **** 		argc = 0;
  75:main.c        **** 		if (USBC_hasData()) {
  76:main.c        **** 			gets(line);
  77:main.c        **** 			if (*line > 0 && *line != 10) {
  78:main.c        **** 				argc = sscanf(line, "%c %u %u %u", &cmd, argv, argv+1, argv+2);
  79:main.c        **** 				if (argc > 0) {
  80:main.c        **** 					TRACE_DEBUG("got %i valid arguments\n", argc);
  81:main.c        **** 
  82:main.c        **** 					if (cmd == 'a') // abort
  83:main.c        **** 						enter(IDLE);
  84:main.c        **** 				}
  85:main.c        **** 			}
  86:main.c        **** 		}
  87:main.c        **** 		
  88:main.c        **** 		/* Handle state */
  89:main.c        **** 		switch (_state) {
  90:main.c        **** 			case IDLE:
ARM GAS  /tmp/ccXWoaLx.s 			page 6


  91:main.c        **** 				if (cmd == 's') // start
  92:main.c        **** 					enter(READY);
  93:main.c        **** 				//TODO some configuration here
  94:main.c        **** 				break;
  95:main.c        **** 
  96:main.c        **** 			case READY:
  97:main.c        **** 				if (current[p] > PAR_PSET)
  98:main.c        **** 					enter(SET);
  99:main.c        **** 				break;
 100:main.c        **** 
 101:main.c        **** 			case SET:
 102:main.c        **** 				if (cmd == 's') // start/continue
 103:main.c        **** 					enter(GO);
 104:main.c        **** 				break;
 105:main.c        **** 
 106:main.c        **** 			case GO:
 107:main.c        **** 				if (current[F] <= previous[F]/2)
 108:main.c        **** 					enter(IDLE);
 109:main.c        **** 				break;
 110:main.c        **** 
 111:main.c        **** 			default:
 112:main.c        **** 				TRACE_ERROR("invalid state\n");
 113:main.c        **** 				enter(IDLE);
 114:main.c        **** 		}
 115:main.c        **** 		
 116:main.c        **** 		/* Display state */
 117:main.c        **** 		if ((t=GetTickCount()) % 1000 == 0 && !LED_blinking(STATUS)) 
 118:main.c        **** 			LED_blink(STATUS, _state);
 119:main.c        **** 	}
 162              		.loc 1 119 0
 163 00d4 00BF     		nop
 164 00d6 00E0     		b	.L19
 165              	.L25:
 166 00d8 00BF     		nop
 167              	.L19:
  59:main.c        **** 		if (current[F] >= PAR_FMAX) {
 168              		.loc 1 59 0
 169 00da 40F20003 		movw	r3, #:lower16:current
 170 00de C0F20003 		movt	r3, #:upper16:current
 171 00e2 1A88     		ldrh	r2, [r3, #0]
 172 00e4 40F6E343 		movw	r3, #3299
 173 00e8 9A42     		cmp	r2, r3
 174 00ea 10D9     		bls	.L3
  60:main.c        **** 			TRACE_INFO("FMAX reached.\n");
 175              		.loc 1 60 0
 176 00ec 40F20003 		movw	r3, #:lower16:_impure_ptr
 177 00f0 C0F20003 		movt	r3, #:upper16:_impure_ptr
 178 00f4 1B68     		ldr	r3, [r3, #0]
 179 00f6 DB68     		ldr	r3, [r3, #12]
 180 00f8 1846     		mov	r0, r3
 181 00fa 40F20001 		movw	r1, #:lower16:.LC2
 182 00fe C0F20001 		movt	r1, #:upper16:.LC2
 183 0102 FFF7FEFF 		bl	fiprintf
  61:main.c        **** 			enter(IDLE);
 184              		.loc 1 61 0
 185 0106 4FF00000 		mov	r0, #0
 186 010a FFF7FEFF 		bl	enter
ARM GAS  /tmp/ccXWoaLx.s 			page 7


 187              	.L3:
  63:main.c        **** 		if (current[p] >= PAR_PMAX) {
 188              		.loc 1 63 0
 189 010e 40F20003 		movw	r3, #:lower16:current
 190 0112 C0F20003 		movt	r3, #:upper16:current
 191 0116 5A88     		ldrh	r2, [r3, #2]
 192 0118 40F6E343 		movw	r3, #3299
 193 011c 9A42     		cmp	r2, r3
 194 011e 10D9     		bls	.L4
  64:main.c        **** 			TRACE_INFO("PMAX reached.\n");
 195              		.loc 1 64 0
 196 0120 40F20003 		movw	r3, #:lower16:_impure_ptr
 197 0124 C0F20003 		movt	r3, #:upper16:_impure_ptr
 198 0128 1B68     		ldr	r3, [r3, #0]
 199 012a DB68     		ldr	r3, [r3, #12]
 200 012c 1846     		mov	r0, r3
 201 012e 40F20001 		movw	r1, #:lower16:.LC3
 202 0132 C0F20001 		movt	r1, #:upper16:.LC3
 203 0136 FFF7FEFF 		bl	fiprintf
  65:main.c        **** 			enter(IDLE);
 204              		.loc 1 65 0
 205 013a 4FF00000 		mov	r0, #0
 206 013e FFF7FEFF 		bl	enter
 207              	.L4:
  67:main.c        **** 		if (current[s] >= PAR_SMAX) {
 208              		.loc 1 67 0
 209 0142 40F20003 		movw	r3, #:lower16:current
 210 0146 C0F20003 		movt	r3, #:upper16:current
 211 014a 9A88     		ldrh	r2, [r3, #4]
 212 014c 40F6E343 		movw	r3, #3299
 213 0150 9A42     		cmp	r2, r3
 214 0152 10D9     		bls	.L5
  68:main.c        **** 			TRACE_INFO("SMAX reached.\n");
 215              		.loc 1 68 0
 216 0154 40F20003 		movw	r3, #:lower16:_impure_ptr
 217 0158 C0F20003 		movt	r3, #:upper16:_impure_ptr
 218 015c 1B68     		ldr	r3, [r3, #0]
 219 015e DB68     		ldr	r3, [r3, #12]
 220 0160 1846     		mov	r0, r3
 221 0162 40F20001 		movw	r1, #:lower16:.LC4
 222 0166 C0F20001 		movt	r1, #:upper16:.LC4
 223 016a FFF7FEFF 		bl	fiprintf
  69:main.c        **** 			enter(IDLE);
 224              		.loc 1 69 0
 225 016e 4FF00000 		mov	r0, #0
 226 0172 FFF7FEFF 		bl	enter
 227              	.L5:
  73:main.c        **** 		cmd = 0;
 228              		.loc 1 73 0
 229 0176 4FF00003 		mov	r3, #0
 230 017a FB76     		strb	r3, [r7, #27]
  74:main.c        **** 		argc = 0;
 231              		.loc 1 74 0
 232 017c 4FF00003 		mov	r3, #0
 233 0180 BB64     		str	r3, [r7, #72]
  75:main.c        **** 		if (USBC_hasData()) {
 234              		.loc 1 75 0
ARM GAS  /tmp/ccXWoaLx.s 			page 8


 235 0182 FFF7FEFF 		bl	USBC_hasData
 236 0186 0346     		mov	r3, r0
 237 0188 002B     		cmp	r3, #0
 238 018a 3AD0     		beq	.L6
  76:main.c        **** 			gets(line);
 239              		.loc 1 76 0
 240 018c 07F11C03 		add	r3, r7, #28
 241 0190 1846     		mov	r0, r3
 242 0192 FFF7FEFF 		bl	gets
  77:main.c        **** 			if (*line > 0 && *line != 10) {
 243              		.loc 1 77 0
 244 0196 3B7F     		ldrb	r3, [r7, #28]	@ zero_extendqisi2
 245 0198 002B     		cmp	r3, #0
 246 019a 32D0     		beq	.L6
  77:main.c        **** 			if (*line > 0 && *line != 10) {
 247              		.loc 1 77 0 is_stmt 0 discriminator 1
 248 019c 3B7F     		ldrb	r3, [r7, #28]	@ zero_extendqisi2
 249 019e 0A2B     		cmp	r3, #10
 250 01a0 2FD0     		beq	.L6
  78:main.c        **** 				argc = sscanf(line, "%c %u %u %u", &cmd, argv, argv+1, argv+2);
 251              		.loc 1 78 0 is_stmt 1
 252 01a2 07F11C01 		add	r1, r7, #28
 253 01a6 07F11B02 		add	r2, r7, #27
 254 01aa 07F13C03 		add	r3, r7, #60
 255 01ae 07F13C00 		add	r0, r7, #60
 256 01b2 00F10400 		add	r0, r0, #4
 257 01b6 0090     		str	r0, [sp, #0]
 258 01b8 07F13C00 		add	r0, r7, #60
 259 01bc 00F10800 		add	r0, r0, #8
 260 01c0 0190     		str	r0, [sp, #4]
 261 01c2 0846     		mov	r0, r1
 262 01c4 40F20001 		movw	r1, #:lower16:.LC5
 263 01c8 C0F20001 		movt	r1, #:upper16:.LC5
 264 01cc FFF7FEFF 		bl	siscanf
 265 01d0 B864     		str	r0, [r7, #72]
  79:main.c        **** 				if (argc > 0) {
 266              		.loc 1 79 0
 267 01d2 BB6C     		ldr	r3, [r7, #72]
 268 01d4 002B     		cmp	r3, #0
 269 01d6 14DD     		ble	.L6
  80:main.c        **** 					TRACE_DEBUG("got %i valid arguments\n", argc);
 270              		.loc 1 80 0
 271 01d8 40F20003 		movw	r3, #:lower16:_impure_ptr
 272 01dc C0F20003 		movt	r3, #:upper16:_impure_ptr
 273 01e0 1B68     		ldr	r3, [r3, #0]
 274 01e2 DB68     		ldr	r3, [r3, #12]
 275 01e4 1846     		mov	r0, r3
 276 01e6 40F20001 		movw	r1, #:lower16:.LC6
 277 01ea C0F20001 		movt	r1, #:upper16:.LC6
 278 01ee BA6C     		ldr	r2, [r7, #72]
 279 01f0 FFF7FEFF 		bl	fiprintf
  82:main.c        **** 					if (cmd == 'a') // abort
 280              		.loc 1 82 0
 281 01f4 FB7E     		ldrb	r3, [r7, #27]	@ zero_extendqisi2
 282 01f6 612B     		cmp	r3, #97
 283 01f8 03D1     		bne	.L6
  83:main.c        **** 						enter(IDLE);
ARM GAS  /tmp/ccXWoaLx.s 			page 9


 284              		.loc 1 83 0
 285 01fa 4FF00000 		mov	r0, #0
 286 01fe FFF7FEFF 		bl	enter
 287              	.L6:
  89:main.c        **** 		switch (_state) {
 288              		.loc 1 89 0
 289 0202 40F20003 		movw	r3, #:lower16:_state
 290 0206 C0F20003 		movt	r3, #:upper16:_state
 291 020a 1B78     		ldrb	r3, [r3, #0]	@ zero_extendqisi2
 292 020c 032B     		cmp	r3, #3
 293 020e 3BD8     		bhi	.L7
 294 0210 01A1     		adr	r1, .L12
 295 0212 51F823F0 		ldr	pc, [r1, r3, lsl #2]
 296 0216 00BF     		.align	2
 297              	.L12:
 298 0218 29020000 		.word	.L8+1
 299 021c 39020000 		.word	.L9+1
 300 0220 51020000 		.word	.L10+1
 301 0224 61020000 		.word	.L11+1
 302              	.L8:
  91:main.c        **** 				if (cmd == 's') // start
 303              		.loc 1 91 0
 304 0228 FB7E     		ldrb	r3, [r7, #27]	@ zero_extendqisi2
 305 022a 732B     		cmp	r3, #115
 306 022c 3ED1     		bne	.L20
  92:main.c        **** 					enter(READY);
 307              		.loc 1 92 0
 308 022e 4FF00100 		mov	r0, #1
 309 0232 FFF7FEFF 		bl	enter
  94:main.c        **** 				break;
 310              		.loc 1 94 0
 311 0236 40E0     		b	.L14
 312              	.L9:
  97:main.c        **** 				if (current[p] > PAR_PSET)
 313              		.loc 1 97 0
 314 0238 40F20003 		movw	r3, #:lower16:current
 315 023c C0F20003 		movt	r3, #:upper16:current
 316 0240 5B88     		ldrh	r3, [r3, #2]
 317 0242 322B     		cmp	r3, #50
 318 0244 34D9     		bls	.L21
  98:main.c        **** 					enter(SET);
 319              		.loc 1 98 0
 320 0246 4FF00200 		mov	r0, #2
 321 024a FFF7FEFF 		bl	enter
  99:main.c        **** 				break;
 322              		.loc 1 99 0
 323 024e 34E0     		b	.L14
 324              	.L10:
 102:main.c        **** 				if (cmd == 's') // start/continue
 325              		.loc 1 102 0
 326 0250 FB7E     		ldrb	r3, [r7, #27]	@ zero_extendqisi2
 327 0252 732B     		cmp	r3, #115
 328 0254 2ED1     		bne	.L22
 103:main.c        **** 					enter(GO);
 329              		.loc 1 103 0
 330 0256 4FF00300 		mov	r0, #3
 331 025a FFF7FEFF 		bl	enter
ARM GAS  /tmp/ccXWoaLx.s 			page 10


 104:main.c        **** 				break;
 332              		.loc 1 104 0
 333 025e 2CE0     		b	.L14
 334              	.L11:
 107:main.c        **** 				if (current[F] <= previous[F]/2)
 335              		.loc 1 107 0
 336 0260 40F20003 		movw	r3, #:lower16:current
 337 0264 C0F20003 		movt	r3, #:upper16:current
 338 0268 1A88     		ldrh	r2, [r3, #0]
 339 026a 40F20003 		movw	r3, #:lower16:previous
 340 026e C0F20003 		movt	r3, #:upper16:previous
 341 0272 1B88     		ldrh	r3, [r3, #0]
 342 0274 4FEA5303 		lsr	r3, r3, #1
 343 0278 9BB2     		uxth	r3, r3
 344 027a 9A42     		cmp	r2, r3
 345 027c 1CD8     		bhi	.L23
 108:main.c        **** 					enter(IDLE);
 346              		.loc 1 108 0
 347 027e 4FF00000 		mov	r0, #0
 348 0282 FFF7FEFF 		bl	enter
 109:main.c        **** 				break;
 349              		.loc 1 109 0
 350 0286 18E0     		b	.L14
 351              	.L7:
 112:main.c        **** 				TRACE_ERROR("invalid state\n");
 352              		.loc 1 112 0
 353 0288 40F20003 		movw	r3, #:lower16:_impure_ptr
 354 028c C0F20003 		movt	r3, #:upper16:_impure_ptr
 355 0290 1B68     		ldr	r3, [r3, #0]
 356 0292 DB68     		ldr	r3, [r3, #12]
 357 0294 1846     		mov	r0, r3
 358 0296 40F20001 		movw	r1, #:lower16:.LC7
 359 029a C0F20001 		movt	r1, #:upper16:.LC7
 360 029e FFF7FEFF 		bl	fiprintf
 113:main.c        **** 				enter(IDLE);
 361              		.loc 1 113 0
 362 02a2 4FF00000 		mov	r0, #0
 363 02a6 FFF7FEFF 		bl	enter
 364 02aa 06E0     		b	.L14
 365              	.L20:
  94:main.c        **** 				break;
 366              		.loc 1 94 0
 367 02ac 00BF     		nop
 368 02ae 04E0     		b	.L14
 369              	.L21:
  99:main.c        **** 				break;
 370              		.loc 1 99 0
 371 02b0 00BF     		nop
 372 02b2 02E0     		b	.L14
 373              	.L22:
 104:main.c        **** 				break;
 374              		.loc 1 104 0
 375 02b4 00BF     		nop
 376 02b6 00E0     		b	.L14
 377              	.L23:
 109:main.c        **** 				break;
 378              		.loc 1 109 0
ARM GAS  /tmp/ccXWoaLx.s 			page 11


 379 02b8 00BF     		nop
 380              	.L14:
 117:main.c        **** 		if ((t=GetTickCount()) % 1000 == 0 && !LED_blinking(STATUS)) 
 381              		.loc 1 117 0
 382 02ba FFF7FEFF 		bl	GetTickCount
 383 02be 0346     		mov	r3, r0
 384 02c0 FB64     		str	r3, [r7, #76]
 385 02c2 FA6C     		ldr	r2, [r7, #76]
 386 02c4 44F6D353 		movw	r3, #19923
 387 02c8 C1F26203 		movt	r3, 4194
 388 02cc 83FB0213 		smull	r1, r3, r3, r2
 389 02d0 4FEAA311 		asr	r1, r3, #6
 390 02d4 4FEAE273 		asr	r3, r2, #31
 391 02d8 CB1A     		subs	r3, r1, r3
 392 02da 4FF47A71 		mov	r1, #1000
 393 02de 01FB03F3 		mul	r3, r1, r3
 394 02e2 D31A     		subs	r3, r2, r3
 395 02e4 002B     		cmp	r3, #0
 396 02e6 7FF4F5AE 		bne	.L24
 117:main.c        **** 		if ((t=GetTickCount()) % 1000 == 0 && !LED_blinking(STATUS)) 
 397              		.loc 1 117 0 is_stmt 0 discriminator 1
 398 02ea 4FF00000 		mov	r0, #0
 399 02ee FFF7FEFF 		bl	LED_blinking
 400 02f2 0346     		mov	r3, r0
 401 02f4 002B     		cmp	r3, #0
 402 02f6 7FF4EFAE 		bne	.L25
 118:main.c        **** 			LED_blink(STATUS, _state);
 403              		.loc 1 118 0 is_stmt 1
 404 02fa 40F20003 		movw	r3, #:lower16:_state
 405 02fe C0F20003 		movt	r3, #:upper16:_state
 406 0302 1B78     		ldrb	r3, [r3, #0]	@ zero_extendqisi2
 407 0304 4FF00000 		mov	r0, #0
 408 0308 1946     		mov	r1, r3
 409 030a FFF7FEFF 		bl	LED_blink
 410              		.loc 1 119 0
 411 030e E4E6     		b	.L19
 412              		.cfi_endproc
 413              	.LFE35:
 414              		.size	main, .-main
 415              		.section	.text.do_press,"ax",%progbits
 416              		.align	2
 417              		.global	do_press
 418              		.thumb
 419              		.thumb_func
 420              		.type	do_press, %function
 421              	do_press:
 422              	.LFB36:
 120:main.c        **** 	return 0;
 121:main.c        **** }
 122:main.c        **** 
 123:main.c        **** void do_press() 
 124:main.c        **** {
 423              		.loc 1 124 0
 424              		.cfi_startproc
 425              		@ args = 0, pretend = 0, frame = 24
 426              		@ frame_needed = 1, uses_anonymous_args = 0
 427 0000 90B5     		push	{r4, r7, lr}
ARM GAS  /tmp/ccXWoaLx.s 			page 12


 428              	.LCFI3:
 429              		.cfi_def_cfa_offset 12
 430 0002 87B0     		sub	sp, sp, #28
 431              	.LCFI4:
 432              		.cfi_def_cfa_offset 40
 433 0004 00AF     		add	r7, sp, #0
 434              		.cfi_offset 14, -4
 435              		.cfi_offset 7, -8
 436              		.cfi_offset 4, -12
 437              	.LCFI5:
 438              		.cfi_def_cfa_register 7
 125:main.c        **** 	const Pin pr = PIN_VAL_press;
 439              		.loc 1 125 0
 440 0006 40F20003 		movw	r3, #:lower16:C.8.6304
 441 000a C0F20003 		movt	r3, #:upper16:C.8.6304
 442 000e 07F10C04 		add	r4, r7, #12
 443 0012 93E80700 		ldmia	r3, {r0, r1, r2}
 444 0016 84E80700 		stmia	r4, {r0, r1, r2}
 126:main.c        **** 	const Pin vn = PIN_VAL_vent;
 445              		.loc 1 126 0
 446 001a 40F20003 		movw	r3, #:lower16:C.9.6305
 447 001e C0F20003 		movt	r3, #:upper16:C.9.6305
 448 0022 3C46     		mov	r4, r7
 449 0024 93E80700 		ldmia	r3, {r0, r1, r2}
 450 0028 84E80700 		stmia	r4, {r0, r1, r2}
 127:main.c        **** 	PIO_Clear(&vn); PIO_Set(&pr);
 451              		.loc 1 127 0
 452 002c 3B46     		mov	r3, r7
 453 002e 1846     		mov	r0, r3
 454 0030 FFF7FEFF 		bl	PIO_Clear
 455 0034 07F10C03 		add	r3, r7, #12
 456 0038 1846     		mov	r0, r3
 457 003a FFF7FEFF 		bl	PIO_Set
 128:main.c        **** }
 458              		.loc 1 128 0
 459 003e 07F11C07 		add	r7, r7, #28
 460 0042 BD46     		mov	sp, r7
 461 0044 90BD     		pop	{r4, r7, pc}
 462              		.cfi_endproc
 463              	.LFE36:
 464              		.size	do_press, .-do_press
 465 0046 00BF     		.section	.text.do_hold,"ax",%progbits
 466              		.align	2
 467              		.global	do_hold
 468              		.thumb
 469              		.thumb_func
 470              		.type	do_hold, %function
 471              	do_hold:
 472              	.LFB37:
 129:main.c        **** 
 130:main.c        **** void do_hold()
 131:main.c        **** {
 473              		.loc 1 131 0
 474              		.cfi_startproc
 475              		@ args = 0, pretend = 0, frame = 24
 476              		@ frame_needed = 1, uses_anonymous_args = 0
 477 0000 B0B5     		push	{r4, r5, r7, lr}
ARM GAS  /tmp/ccXWoaLx.s 			page 13


 478              	.LCFI6:
 479              		.cfi_def_cfa_offset 16
 480 0002 86B0     		sub	sp, sp, #24
 481              	.LCFI7:
 482              		.cfi_def_cfa_offset 40
 483 0004 00AF     		add	r7, sp, #0
 484              		.cfi_offset 14, -4
 485              		.cfi_offset 7, -8
 486              		.cfi_offset 5, -12
 487              		.cfi_offset 4, -16
 488              	.LCFI8:
 489              		.cfi_def_cfa_register 7
 132:main.c        **** 	const Pin pins[] = {PINS_VAL};
 490              		.loc 1 132 0
 491 0006 40F20003 		movw	r3, #:lower16:C.7.6303
 492 000a C0F20003 		movt	r3, #:upper16:C.7.6303
 493 000e 3C46     		mov	r4, r7
 494 0010 1D46     		mov	r5, r3
 495 0012 0FCD     		ldmia	r5!, {r0, r1, r2, r3}
 496 0014 0FC4     		stmia	r4!, {r0, r1, r2, r3}
 497 0016 95E80300 		ldmia	r5, {r0, r1}
 498 001a 84E80300 		stmia	r4, {r0, r1}
 133:main.c        **** 	PIO_Clear(pins);
 499              		.loc 1 133 0
 500 001e 3B46     		mov	r3, r7
 501 0020 1846     		mov	r0, r3
 502 0022 FFF7FEFF 		bl	PIO_Clear
 134:main.c        **** }
 503              		.loc 1 134 0
 504 0026 07F11807 		add	r7, r7, #24
 505 002a BD46     		mov	sp, r7
 506 002c B0BD     		pop	{r4, r5, r7, pc}
 507              		.cfi_endproc
 508              	.LFE37:
 509              		.size	do_hold, .-do_hold
 510 002e 00BF     		.section	.text.do_vent,"ax",%progbits
 511              		.align	2
 512              		.global	do_vent
 513              		.thumb
 514              		.thumb_func
 515              		.type	do_vent, %function
 516              	do_vent:
 517              	.LFB38:
 135:main.c        **** 
 136:main.c        **** void do_vent()
 137:main.c        **** {
 518              		.loc 1 137 0
 519              		.cfi_startproc
 520              		@ args = 0, pretend = 0, frame = 24
 521              		@ frame_needed = 1, uses_anonymous_args = 0
 522 0000 90B5     		push	{r4, r7, lr}
 523              	.LCFI9:
 524              		.cfi_def_cfa_offset 12
 525 0002 87B0     		sub	sp, sp, #28
 526              	.LCFI10:
 527              		.cfi_def_cfa_offset 40
 528 0004 00AF     		add	r7, sp, #0
ARM GAS  /tmp/ccXWoaLx.s 			page 14


 529              		.cfi_offset 14, -4
 530              		.cfi_offset 7, -8
 531              		.cfi_offset 4, -12
 532              	.LCFI11:
 533              		.cfi_def_cfa_register 7
 138:main.c        **** 	const Pin pr = PIN_VAL_press;
 534              		.loc 1 138 0
 535 0006 40F20003 		movw	r3, #:lower16:C.5.6301
 536 000a C0F20003 		movt	r3, #:upper16:C.5.6301
 537 000e 07F10C04 		add	r4, r7, #12
 538 0012 93E80700 		ldmia	r3, {r0, r1, r2}
 539 0016 84E80700 		stmia	r4, {r0, r1, r2}
 139:main.c        **** 	const Pin vn = PIN_VAL_vent;
 540              		.loc 1 139 0
 541 001a 40F20003 		movw	r3, #:lower16:C.6.6302
 542 001e C0F20003 		movt	r3, #:upper16:C.6.6302
 543 0022 3C46     		mov	r4, r7
 544 0024 93E80700 		ldmia	r3, {r0, r1, r2}
 545 0028 84E80700 		stmia	r4, {r0, r1, r2}
 140:main.c        **** 	PIO_Clear(&pr); PIO_Set(&vn);
 546              		.loc 1 140 0
 547 002c 07F10C03 		add	r3, r7, #12
 548 0030 1846     		mov	r0, r3
 549 0032 FFF7FEFF 		bl	PIO_Clear
 550 0036 3B46     		mov	r3, r7
 551 0038 1846     		mov	r0, r3
 552 003a FFF7FEFF 		bl	PIO_Set
 141:main.c        **** }
 553              		.loc 1 141 0
 554 003e 07F11C07 		add	r7, r7, #28
 555 0042 BD46     		mov	sp, r7
 556 0044 90BD     		pop	{r4, r7, pc}
 557              		.cfi_endproc
 558              	.LFE38:
 559              		.size	do_vent, .-do_vent
 560 0046 00BF     		.section	.rodata
 561 00bb 00       		.align	2
 562              	.LC8:
 563 00bc 2D442D20 		.ascii	"-D- entered state IDLE\012\000"
 563      656E7465 
 563      72656420 
 563      73746174 
 563      65204944 
 564              		.align	2
 565              	.LC9:
 566 00d4 2D442D20 		.ascii	"-D- entered state READY\012\000"
 566      656E7465 
 566      72656420 
 566      73746174 
 566      65205245 
 567 00ed 000000   		.align	2
 568              	.LC10:
 569 00f0 2D442D20 		.ascii	"-D- entered state SET\012\000"
 569      656E7465 
 569      72656420 
 569      73746174 
 569      65205345 
ARM GAS  /tmp/ccXWoaLx.s 			page 15


 570 0107 00       		.align	2
 571              	.LC11:
 572 0108 2D442D20 		.ascii	"-D- entered state GO\012\000"
 572      656E7465 
 572      72656420 
 572      73746174 
 572      6520474F 
 573 011e 0000     		.align	2
 574              	.LC12:
 575 0120 2D442D20 		.ascii	"-D- got invalid state\012\000"
 575      676F7420 
 575      696E7661 
 575      6C696420 
 575      73746174 
 576              		.section	.text.enter,"ax",%progbits
 577              		.align	2
 578              		.global	enter
 579              		.thumb
 580              		.thumb_func
 581              		.type	enter, %function
 582              	enter:
 583              	.LFB39:
 142:main.c        **** 
 143:main.c        **** void enter(uint8_t new) 
 144:main.c        **** {
 584              		.loc 1 144 0
 585              		.cfi_startproc
 586              		@ args = 0, pretend = 0, frame = 8
 587              		@ frame_needed = 1, uses_anonymous_args = 0
 588 0000 80B5     		push	{r7, lr}
 589              	.LCFI12:
 590              		.cfi_def_cfa_offset 8
 591 0002 82B0     		sub	sp, sp, #8
 592              	.LCFI13:
 593              		.cfi_def_cfa_offset 16
 594 0004 00AF     		add	r7, sp, #0
 595              		.cfi_offset 14, -4
 596              		.cfi_offset 7, -8
 597              	.LCFI14:
 598              		.cfi_def_cfa_register 7
 599 0006 0346     		mov	r3, r0
 600 0008 FB71     		strb	r3, [r7, #7]
 145:main.c        **** 	LED_blinkstop(STATUS);
 601              		.loc 1 145 0
 602 000a 4FF00000 		mov	r0, #0
 603 000e FFF7FEFF 		bl	LED_blinkstop
 146:main.c        **** 	LED_clr(STATUS);
 604              		.loc 1 146 0
 605 0012 4FF00000 		mov	r0, #0
 606 0016 FFF7FEFF 		bl	LED_clr
 147:main.c        **** 	switch (new) {
 607              		.loc 1 147 0
 608 001a FB79     		ldrb	r3, [r7, #7]	@ zero_extendqisi2
 609 001c 032B     		cmp	r3, #3
 610 001e 4BD8     		bhi	.L30
 611 0020 01A2     		adr	r2, .L35
 612 0022 52F823F0 		ldr	pc, [r2, r3, lsl #2]
ARM GAS  /tmp/ccXWoaLx.s 			page 16


 613 0026 00BF     		.align	2
 614              	.L35:
 615 0028 39000000 		.word	.L31+1
 616 002c 59000000 		.word	.L32+1
 617 0030 79000000 		.word	.L33+1
 618 0034 99000000 		.word	.L34+1
 619              	.L31:
 148:main.c        **** 		case IDLE:
 149:main.c        **** 			do_vent();
 620              		.loc 1 149 0
 621 0038 FFF7FEFF 		bl	do_vent
 150:main.c        **** 			TRACE_DEBUG("entered state IDLE\n");
 622              		.loc 1 150 0
 623 003c 40F20003 		movw	r3, #:lower16:_impure_ptr
 624 0040 C0F20003 		movt	r3, #:upper16:_impure_ptr
 625 0044 1B68     		ldr	r3, [r3, #0]
 626 0046 DB68     		ldr	r3, [r3, #12]
 627 0048 1846     		mov	r0, r3
 628 004a 40F20001 		movw	r1, #:lower16:.LC8
 629 004e C0F20001 		movt	r1, #:upper16:.LC8
 630 0052 FFF7FEFF 		bl	fiprintf
 151:main.c        **** 			break;
 631              		.loc 1 151 0
 632 0056 41E0     		b	.L36
 633              	.L32:
 152:main.c        **** 		case READY:
 153:main.c        **** 			do_press();
 634              		.loc 1 153 0
 635 0058 FFF7FEFF 		bl	do_press
 154:main.c        **** 			TRACE_DEBUG("entered state READY\n");
 636              		.loc 1 154 0
 637 005c 40F20003 		movw	r3, #:lower16:_impure_ptr
 638 0060 C0F20003 		movt	r3, #:upper16:_impure_ptr
 639 0064 1B68     		ldr	r3, [r3, #0]
 640 0066 DB68     		ldr	r3, [r3, #12]
 641 0068 1846     		mov	r0, r3
 642 006a 40F20001 		movw	r1, #:lower16:.LC9
 643 006e C0F20001 		movt	r1, #:upper16:.LC9
 644 0072 FFF7FEFF 		bl	fiprintf
 155:main.c        **** 			break;
 645              		.loc 1 155 0
 646 0076 31E0     		b	.L36
 647              	.L33:
 156:main.c        **** 		case SET:
 157:main.c        **** 			do_hold();
 648              		.loc 1 157 0
 649 0078 FFF7FEFF 		bl	do_hold
 158:main.c        **** 			TRACE_DEBUG("entered state SET\n");
 650              		.loc 1 158 0
 651 007c 40F20003 		movw	r3, #:lower16:_impure_ptr
 652 0080 C0F20003 		movt	r3, #:upper16:_impure_ptr
 653 0084 1B68     		ldr	r3, [r3, #0]
 654 0086 DB68     		ldr	r3, [r3, #12]
 655 0088 1846     		mov	r0, r3
 656 008a 40F20001 		movw	r1, #:lower16:.LC10
 657 008e C0F20001 		movt	r1, #:upper16:.LC10
 658 0092 FFF7FEFF 		bl	fiprintf
ARM GAS  /tmp/ccXWoaLx.s 			page 17


 159:main.c        **** 			break;
 659              		.loc 1 159 0
 660 0096 21E0     		b	.L36
 661              	.L34:
 160:main.c        **** 		case GO:
 161:main.c        **** 			do_press();
 662              		.loc 1 161 0
 663 0098 FFF7FEFF 		bl	do_press
 162:main.c        **** 			TRACE_DEBUG("entered state GO\n");
 664              		.loc 1 162 0
 665 009c 40F20003 		movw	r3, #:lower16:_impure_ptr
 666 00a0 C0F20003 		movt	r3, #:upper16:_impure_ptr
 667 00a4 1B68     		ldr	r3, [r3, #0]
 668 00a6 DB68     		ldr	r3, [r3, #12]
 669 00a8 1846     		mov	r0, r3
 670 00aa 40F20001 		movw	r1, #:lower16:.LC11
 671 00ae C0F20001 		movt	r1, #:upper16:.LC11
 672 00b2 FFF7FEFF 		bl	fiprintf
 163:main.c        **** 			break;
 673              		.loc 1 163 0
 674 00b6 11E0     		b	.L36
 675              	.L30:
 164:main.c        **** 		default:
 165:main.c        **** 			TRACE_DEBUG("got invalid state\n");
 676              		.loc 1 165 0
 677 00b8 40F20003 		movw	r3, #:lower16:_impure_ptr
 678 00bc C0F20003 		movt	r3, #:upper16:_impure_ptr
 679 00c0 1B68     		ldr	r3, [r3, #0]
 680 00c2 DB68     		ldr	r3, [r3, #12]
 681 00c4 1846     		mov	r0, r3
 682 00c6 40F20001 		movw	r1, #:lower16:.LC12
 683 00ca C0F20001 		movt	r1, #:upper16:.LC12
 684 00ce FFF7FEFF 		bl	fiprintf
 166:main.c        **** 			enter(IDLE);
 685              		.loc 1 166 0
 686 00d2 4FF00000 		mov	r0, #0
 687 00d6 FFF7FEFF 		bl	enter
 167:main.c        **** 			return;
 688              		.loc 1 167 0
 689 00da 05E0     		b	.L29
 690              	.L36:
 168:main.c        **** 	}
 169:main.c        **** 	_state = new;
 691              		.loc 1 169 0
 692 00dc 40F20003 		movw	r3, #:lower16:_state
 693 00e0 C0F20003 		movt	r3, #:upper16:_state
 694 00e4 FA79     		ldrb	r2, [r7, #7]
 695 00e6 1A70     		strb	r2, [r3, #0]
 696              	.L29:
 170:main.c        **** }
 697              		.loc 1 170 0
 698 00e8 07F10807 		add	r7, r7, #8
 699 00ec BD46     		mov	sp, r7
 700 00ee 80BD     		pop	{r7, pc}
 701              		.cfi_endproc
 702              	.LFE39:
 703              		.size	enter, .-enter
ARM GAS  /tmp/ccXWoaLx.s 			page 18


 704              		.section	.rodata
 705 0137 00       		.align	2
 706              		.type	C.5.6301, %object
 707              		.size	C.5.6301, 12
 708              	C.5.6301:
 709 0138 08000000 		.word	8
 710 013c 000E0E40 		.word	1074662912
 711 0140 0B       		.byte	11
 712 0141 05       		.byte	5
 713 0142 00       		.byte	0
 714 0143 00       		.space	1
 715              		.align	2
 716              		.type	C.6.6302, %object
 717              		.size	C.6.6302, 12
 718              	C.6.6302:
 719 0144 04000000 		.word	4
 720 0148 000E0E40 		.word	1074662912
 721 014c 0B       		.byte	11
 722 014d 05       		.byte	5
 723 014e 00       		.byte	0
 724 014f 00       		.space	1
 725              		.align	2
 726              		.type	C.7.6303, %object
 727              		.size	C.7.6303, 24
 728              	C.7.6303:
 729 0150 04000000 		.word	4
 730 0154 000E0E40 		.word	1074662912
 731 0158 0B       		.byte	11
 732 0159 05       		.byte	5
 733 015a 00       		.byte	0
 734 015b 00       		.space	1
 735 015c 08000000 		.word	8
 736 0160 000E0E40 		.word	1074662912
 737 0164 0B       		.byte	11
 738 0165 05       		.byte	5
 739 0166 00       		.byte	0
 740 0167 00       		.space	1
 741              		.align	2
 742              		.type	C.8.6304, %object
 743              		.size	C.8.6304, 12
 744              	C.8.6304:
 745 0168 08000000 		.word	8
 746 016c 000E0E40 		.word	1074662912
 747 0170 0B       		.byte	11
 748 0171 05       		.byte	5
 749 0172 00       		.byte	0
 750 0173 00       		.space	1
 751              		.align	2
 752              		.type	C.9.6305, %object
 753              		.size	C.9.6305, 12
 754              	C.9.6305:
 755 0174 04000000 		.word	4
 756 0178 000E0E40 		.word	1074662912
 757 017c 0B       		.byte	11
 758 017d 05       		.byte	5
 759 017e 00       		.byte	0
 760 017f 00       		.space	1
ARM GAS  /tmp/ccXWoaLx.s 			page 19


 761              		.align	2
 762              		.type	C.10.6306, %object
 763              		.size	C.10.6306, 24
 764              	C.10.6306:
 765 0180 04000000 		.word	4
 766 0184 000E0E40 		.word	1074662912
 767 0188 0B       		.byte	11
 768 0189 05       		.byte	5
 769 018a 00       		.byte	0
 770 018b 00       		.space	1
 771 018c 08000000 		.word	8
 772 0190 000E0E40 		.word	1074662912
 773 0194 0B       		.byte	11
 774 0195 05       		.byte	5
 775 0196 00       		.byte	0
 776 0197 00       		.space	1
 777              		.text
 778              	.Letext0:
 779              		.section	.debug_loc,"",%progbits
 780              	.Ldebug_loc0:
 781              	.LLST0:
 782 0000 00000000 		.4byte	.LFB35
 783 0004 02000000 		.4byte	.LCFI0
 784 0008 0200     		.2byte	0x2
 785 000a 7D       		.byte	0x7d
 786 000b 00       		.sleb128 0
 787 000c 02000000 		.4byte	.LCFI0
 788 0010 04000000 		.4byte	.LCFI1
 789 0014 0200     		.2byte	0x2
 790 0016 7D       		.byte	0x7d
 791 0017 10       		.sleb128 16
 792 0018 04000000 		.4byte	.LCFI1
 793 001c 06000000 		.4byte	.LCFI2
 794 0020 0300     		.2byte	0x3
 795 0022 7D       		.byte	0x7d
 796 0023 E800     		.sleb128 104
 797 0025 06000000 		.4byte	.LCFI2
 798 0029 10030000 		.4byte	.LFE35
 799 002d 0300     		.2byte	0x3
 800 002f 77       		.byte	0x77
 801 0030 E000     		.sleb128 96
 802 0032 00000000 		.4byte	0x0
 803 0036 00000000 		.4byte	0x0
 804              	.LLST1:
 805 003a 00000000 		.4byte	.LFB36
 806 003e 02000000 		.4byte	.LCFI3
 807 0042 0200     		.2byte	0x2
 808 0044 7D       		.byte	0x7d
 809 0045 00       		.sleb128 0
 810 0046 02000000 		.4byte	.LCFI3
 811 004a 04000000 		.4byte	.LCFI4
 812 004e 0200     		.2byte	0x2
 813 0050 7D       		.byte	0x7d
 814 0051 0C       		.sleb128 12
 815 0052 04000000 		.4byte	.LCFI4
 816 0056 06000000 		.4byte	.LCFI5
 817 005a 0200     		.2byte	0x2
ARM GAS  /tmp/ccXWoaLx.s 			page 20


 818 005c 7D       		.byte	0x7d
 819 005d 28       		.sleb128 40
 820 005e 06000000 		.4byte	.LCFI5
 821 0062 46000000 		.4byte	.LFE36
 822 0066 0200     		.2byte	0x2
 823 0068 77       		.byte	0x77
 824 0069 28       		.sleb128 40
 825 006a 00000000 		.4byte	0x0
 826 006e 00000000 		.4byte	0x0
 827              	.LLST2:
 828 0072 00000000 		.4byte	.LFB37
 829 0076 02000000 		.4byte	.LCFI6
 830 007a 0200     		.2byte	0x2
 831 007c 7D       		.byte	0x7d
 832 007d 00       		.sleb128 0
 833 007e 02000000 		.4byte	.LCFI6
 834 0082 04000000 		.4byte	.LCFI7
 835 0086 0200     		.2byte	0x2
 836 0088 7D       		.byte	0x7d
 837 0089 10       		.sleb128 16
 838 008a 04000000 		.4byte	.LCFI7
 839 008e 06000000 		.4byte	.LCFI8
 840 0092 0200     		.2byte	0x2
 841 0094 7D       		.byte	0x7d
 842 0095 28       		.sleb128 40
 843 0096 06000000 		.4byte	.LCFI8
 844 009a 2E000000 		.4byte	.LFE37
 845 009e 0200     		.2byte	0x2
 846 00a0 77       		.byte	0x77
 847 00a1 28       		.sleb128 40
 848 00a2 00000000 		.4byte	0x0
 849 00a6 00000000 		.4byte	0x0
 850              	.LLST3:
 851 00aa 00000000 		.4byte	.LFB38
 852 00ae 02000000 		.4byte	.LCFI9
 853 00b2 0200     		.2byte	0x2
 854 00b4 7D       		.byte	0x7d
 855 00b5 00       		.sleb128 0
 856 00b6 02000000 		.4byte	.LCFI9
 857 00ba 04000000 		.4byte	.LCFI10
 858 00be 0200     		.2byte	0x2
 859 00c0 7D       		.byte	0x7d
 860 00c1 0C       		.sleb128 12
 861 00c2 04000000 		.4byte	.LCFI10
 862 00c6 06000000 		.4byte	.LCFI11
 863 00ca 0200     		.2byte	0x2
 864 00cc 7D       		.byte	0x7d
 865 00cd 28       		.sleb128 40
 866 00ce 06000000 		.4byte	.LCFI11
 867 00d2 46000000 		.4byte	.LFE38
 868 00d6 0200     		.2byte	0x2
 869 00d8 77       		.byte	0x77
 870 00d9 28       		.sleb128 40
 871 00da 00000000 		.4byte	0x0
 872 00de 00000000 		.4byte	0x0
 873              	.LLST4:
 874 00e2 00000000 		.4byte	.LFB39
ARM GAS  /tmp/ccXWoaLx.s 			page 21


 875 00e6 02000000 		.4byte	.LCFI12
 876 00ea 0200     		.2byte	0x2
 877 00ec 7D       		.byte	0x7d
 878 00ed 00       		.sleb128 0
 879 00ee 02000000 		.4byte	.LCFI12
 880 00f2 04000000 		.4byte	.LCFI13
 881 00f6 0200     		.2byte	0x2
 882 00f8 7D       		.byte	0x7d
 883 00f9 08       		.sleb128 8
 884 00fa 04000000 		.4byte	.LCFI13
 885 00fe 06000000 		.4byte	.LCFI14
 886 0102 0200     		.2byte	0x2
 887 0104 7D       		.byte	0x7d
 888 0105 10       		.sleb128 16
 889 0106 06000000 		.4byte	.LCFI14
 890 010a F0000000 		.4byte	.LFE39
 891 010e 0200     		.2byte	0x2
 892 0110 77       		.byte	0x77
 893 0111 10       		.sleb128 16
 894 0112 00000000 		.4byte	0x0
 895 0116 00000000 		.4byte	0x0
 896              		.file 2 "/usr/local/lib64/gcc/arm-none-eabi/4.5.2/../../../../arm-none-eabi/include/sys/lock.h"
 897              		.file 3 "/usr/local/lib64/gcc/arm-none-eabi/4.5.2/../../../../arm-none-eabi/include/sys/_types.h"
 898              		.file 4 "/usr/local/lib64/gcc/arm-none-eabi/4.5.2/include/stddef.h"
 899              		.file 5 "/usr/local/lib64/gcc/arm-none-eabi/4.5.2/../../../../arm-none-eabi/include/sys/reent.h"
 900              		.file 6 "/usr/local/lib64/gcc/arm-none-eabi/4.5.2/../../../../arm-none-eabi/include/stdint.h"
 901              		.file 7 "libchip/include/SAM3S.h"
 902              		.file 8 "libchip/include/pio.h"
 903              		.file 9 "libchip/cmsis/core_cm3.h"
 904              		.section	.debug_info
 905 0000 40110000 		.4byte	0x1140
 906 0004 0200     		.2byte	0x2
 907 0006 00000000 		.4byte	.Ldebug_abbrev0
 908 000a 04       		.byte	0x4
 909 000b 01       		.uleb128 0x1
 910 000c 77010000 		.4byte	.LASF216
 911 0010 01       		.byte	0x1
 912 0011 C0030000 		.4byte	.LASF217
 913 0015 15040000 		.4byte	.LASF218
 914 0019 00000000 		.4byte	0x0
 915 001d 00000000 		.4byte	0x0
 916 0021 00000000 		.4byte	.Ldebug_ranges0+0x0
 917 0025 00000000 		.4byte	.Ldebug_line0
 918 0029 02       		.uleb128 0x2
 919 002a 01       		.byte	0x1
 920 002b 06       		.byte	0x6
 921 002c FE000000 		.4byte	.LASF0
 922 0030 02       		.uleb128 0x2
 923 0031 01       		.byte	0x1
 924 0032 08       		.byte	0x8
 925 0033 30050000 		.4byte	.LASF1
 926 0037 02       		.uleb128 0x2
 927 0038 02       		.byte	0x2
 928 0039 05       		.byte	0x5
 929 003a 65060000 		.4byte	.LASF2
 930 003e 02       		.uleb128 0x2
 931 003f 02       		.byte	0x2
ARM GAS  /tmp/ccXWoaLx.s 			page 22


 932 0040 07       		.byte	0x7
 933 0041 A0060000 		.4byte	.LASF3
 934 0045 03       		.uleb128 0x3
 935 0046 04       		.byte	0x4
 936 0047 05       		.byte	0x5
 937 0048 696E7400 		.ascii	"int\000"
 938 004c 02       		.uleb128 0x2
 939 004d 04       		.byte	0x4
 940 004e 07       		.byte	0x7
 941 004f 4D060000 		.4byte	.LASF4
 942 0053 02       		.uleb128 0x2
 943 0054 08       		.byte	0x8
 944 0055 05       		.byte	0x5
 945 0056 F8010000 		.4byte	.LASF5
 946 005a 02       		.uleb128 0x2
 947 005b 08       		.byte	0x8
 948 005c 07       		.byte	0x7
 949 005d 88000000 		.4byte	.LASF6
 950 0061 04       		.uleb128 0x4
 951 0062 FF040000 		.4byte	.LASF8
 952 0066 02       		.byte	0x2
 953 0067 07       		.byte	0x7
 954 0068 45000000 		.4byte	0x45
 955 006c 02       		.uleb128 0x2
 956 006d 04       		.byte	0x4
 957 006e 05       		.byte	0x5
 958 006f AC010000 		.4byte	.LASF7
 959 0073 04       		.uleb128 0x4
 960 0074 20060000 		.4byte	.LASF9
 961 0078 03       		.byte	0x3
 962 0079 2C       		.byte	0x2c
 963 007a 6C000000 		.4byte	0x6c
 964 007e 05       		.uleb128 0x5
 965 007f BD040000 		.4byte	.LASF10
 966 0083 04       		.byte	0x4
 967 0084 6001     		.2byte	0x160
 968 0086 4C000000 		.4byte	0x4c
 969 008a 06       		.uleb128 0x6
 970 008b 04       		.byte	0x4
 971 008c 03       		.byte	0x3
 972 008d 46       		.byte	0x46
 973 008e A9000000 		.4byte	0xa9
 974 0092 07       		.uleb128 0x7
 975 0093 AF030000 		.4byte	.LASF11
 976 0097 03       		.byte	0x3
 977 0098 48       		.byte	0x48
 978 0099 7E000000 		.4byte	0x7e
 979 009d 07       		.uleb128 0x7
 980 009e EA020000 		.4byte	.LASF12
 981 00a2 03       		.byte	0x3
 982 00a3 49       		.byte	0x49
 983 00a4 A9000000 		.4byte	0xa9
 984 00a8 00       		.byte	0x0
 985 00a9 08       		.uleb128 0x8
 986 00aa 30000000 		.4byte	0x30
 987 00ae B9000000 		.4byte	0xb9
 988 00b2 09       		.uleb128 0x9
ARM GAS  /tmp/ccXWoaLx.s 			page 23


 989 00b3 4C000000 		.4byte	0x4c
 990 00b7 03       		.byte	0x3
 991 00b8 00       		.byte	0x0
 992 00b9 0A       		.uleb128 0xa
 993 00ba 08       		.byte	0x8
 994 00bb 03       		.byte	0x3
 995 00bc 43       		.byte	0x43
 996 00bd DE000000 		.4byte	0xde
 997 00c1 0B       		.uleb128 0xb
 998 00c2 EC050000 		.4byte	.LASF13
 999 00c6 03       		.byte	0x3
 1000 00c7 45       		.byte	0x45
 1001 00c8 45000000 		.4byte	0x45
 1002 00cc 02       		.byte	0x2
 1003 00cd 23       		.byte	0x23
 1004 00ce 00       		.uleb128 0x0
 1005 00cf 0B       		.uleb128 0xb
 1006 00d0 FD050000 		.4byte	.LASF14
 1007 00d4 03       		.byte	0x3
 1008 00d5 4A       		.byte	0x4a
 1009 00d6 8A000000 		.4byte	0x8a
 1010 00da 02       		.byte	0x2
 1011 00db 23       		.byte	0x23
 1012 00dc 04       		.uleb128 0x4
 1013 00dd 00       		.byte	0x0
 1014 00de 04       		.uleb128 0x4
 1015 00df 7A050000 		.4byte	.LASF15
 1016 00e3 03       		.byte	0x3
 1017 00e4 4B       		.byte	0x4b
 1018 00e5 B9000000 		.4byte	0xb9
 1019 00e9 04       		.uleb128 0x4
 1020 00ea 50050000 		.4byte	.LASF16
 1021 00ee 03       		.byte	0x3
 1022 00ef 4F       		.byte	0x4f
 1023 00f0 61000000 		.4byte	0x61
 1024 00f4 0C       		.uleb128 0xc
 1025 00f5 04       		.byte	0x4
 1026 00f6 04       		.uleb128 0x4
 1027 00f7 C7060000 		.4byte	.LASF17
 1028 00fb 05       		.byte	0x5
 1029 00fc 15       		.byte	0x15
 1030 00fd 01010000 		.4byte	0x101
 1031 0101 02       		.uleb128 0x2
 1032 0102 04       		.byte	0x4
 1033 0103 07       		.byte	0x7
 1034 0104 11030000 		.4byte	.LASF18
 1035 0108 0D       		.uleb128 0xd
 1036 0109 58070000 		.4byte	.LASF23
 1037 010d 18       		.byte	0x18
 1038 010e 05       		.byte	0x5
 1039 010f 2C       		.byte	0x2c
 1040 0110 67010000 		.4byte	0x167
 1041 0114 0B       		.uleb128 0xb
 1042 0115 BE020000 		.4byte	.LASF19
 1043 0119 05       		.byte	0x5
 1044 011a 2E       		.byte	0x2e
 1045 011b 67010000 		.4byte	0x167
ARM GAS  /tmp/ccXWoaLx.s 			page 24


 1046 011f 02       		.byte	0x2
 1047 0120 23       		.byte	0x23
 1048 0121 00       		.uleb128 0x0
 1049 0122 0E       		.uleb128 0xe
 1050 0123 5F6B00   		.ascii	"_k\000"
 1051 0126 05       		.byte	0x5
 1052 0127 2F       		.byte	0x2f
 1053 0128 45000000 		.4byte	0x45
 1054 012c 02       		.byte	0x2
 1055 012d 23       		.byte	0x23
 1056 012e 04       		.uleb128 0x4
 1057 012f 0B       		.uleb128 0xb
 1058 0130 D7050000 		.4byte	.LASF20
 1059 0134 05       		.byte	0x5
 1060 0135 2F       		.byte	0x2f
 1061 0136 45000000 		.4byte	0x45
 1062 013a 02       		.byte	0x2
 1063 013b 23       		.byte	0x23
 1064 013c 08       		.uleb128 0x8
 1065 013d 0B       		.uleb128 0xb
 1066 013e 8B020000 		.4byte	.LASF21
 1067 0142 05       		.byte	0x5
 1068 0143 2F       		.byte	0x2f
 1069 0144 45000000 		.4byte	0x45
 1070 0148 02       		.byte	0x2
 1071 0149 23       		.byte	0x23
 1072 014a 0C       		.uleb128 0xc
 1073 014b 0B       		.uleb128 0xb
 1074 014c 32070000 		.4byte	.LASF22
 1075 0150 05       		.byte	0x5
 1076 0151 2F       		.byte	0x2f
 1077 0152 45000000 		.4byte	0x45
 1078 0156 02       		.byte	0x2
 1079 0157 23       		.byte	0x23
 1080 0158 10       		.uleb128 0x10
 1081 0159 0E       		.uleb128 0xe
 1082 015a 5F7800   		.ascii	"_x\000"
 1083 015d 05       		.byte	0x5
 1084 015e 30       		.byte	0x30
 1085 015f 6D010000 		.4byte	0x16d
 1086 0163 02       		.byte	0x2
 1087 0164 23       		.byte	0x23
 1088 0165 14       		.uleb128 0x14
 1089 0166 00       		.byte	0x0
 1090 0167 0F       		.uleb128 0xf
 1091 0168 04       		.byte	0x4
 1092 0169 08010000 		.4byte	0x108
 1093 016d 08       		.uleb128 0x8
 1094 016e F6000000 		.4byte	0xf6
 1095 0172 7D010000 		.4byte	0x17d
 1096 0176 09       		.uleb128 0x9
 1097 0177 4C000000 		.4byte	0x4c
 1098 017b 00       		.byte	0x0
 1099 017c 00       		.byte	0x0
 1100 017d 0D       		.uleb128 0xd
 1101 017e DD020000 		.4byte	.LASF24
 1102 0182 24       		.byte	0x24
ARM GAS  /tmp/ccXWoaLx.s 			page 25


 1103 0183 05       		.byte	0x5
 1104 0184 34       		.byte	0x34
 1105 0185 08020000 		.4byte	0x208
 1106 0189 0B       		.uleb128 0xb
 1107 018a EE000000 		.4byte	.LASF25
 1108 018e 05       		.byte	0x5
 1109 018f 36       		.byte	0x36
 1110 0190 45000000 		.4byte	0x45
 1111 0194 02       		.byte	0x2
 1112 0195 23       		.byte	0x23
 1113 0196 00       		.uleb128 0x0
 1114 0197 0B       		.uleb128 0xb
 1115 0198 AB070000 		.4byte	.LASF26
 1116 019c 05       		.byte	0x5
 1117 019d 37       		.byte	0x37
 1118 019e 45000000 		.4byte	0x45
 1119 01a2 02       		.byte	0x2
 1120 01a3 23       		.byte	0x23
 1121 01a4 04       		.uleb128 0x4
 1122 01a5 0B       		.uleb128 0xb
 1123 01a6 C4020000 		.4byte	.LASF27
 1124 01aa 05       		.byte	0x5
 1125 01ab 38       		.byte	0x38
 1126 01ac 45000000 		.4byte	0x45
 1127 01b0 02       		.byte	0x2
 1128 01b1 23       		.byte	0x23
 1129 01b2 08       		.uleb128 0x8
 1130 01b3 0B       		.uleb128 0xb
 1131 01b4 1C050000 		.4byte	.LASF28
 1132 01b8 05       		.byte	0x5
 1133 01b9 39       		.byte	0x39
 1134 01ba 45000000 		.4byte	0x45
 1135 01be 02       		.byte	0x2
 1136 01bf 23       		.byte	0x23
 1137 01c0 0C       		.uleb128 0xc
 1138 01c1 0B       		.uleb128 0xb
 1139 01c2 77040000 		.4byte	.LASF29
 1140 01c6 05       		.byte	0x5
 1141 01c7 3A       		.byte	0x3a
 1142 01c8 45000000 		.4byte	0x45
 1143 01cc 02       		.byte	0x2
 1144 01cd 23       		.byte	0x23
 1145 01ce 10       		.uleb128 0x10
 1146 01cf 0B       		.uleb128 0xb
 1147 01d0 F8030000 		.4byte	.LASF30
 1148 01d4 05       		.byte	0x5
 1149 01d5 3B       		.byte	0x3b
 1150 01d6 45000000 		.4byte	0x45
 1151 01da 02       		.byte	0x2
 1152 01db 23       		.byte	0x23
 1153 01dc 14       		.uleb128 0x14
 1154 01dd 0B       		.uleb128 0xb
 1155 01de 16060000 		.4byte	.LASF31
 1156 01e2 05       		.byte	0x5
 1157 01e3 3C       		.byte	0x3c
 1158 01e4 45000000 		.4byte	0x45
 1159 01e8 02       		.byte	0x2
ARM GAS  /tmp/ccXWoaLx.s 			page 26


 1160 01e9 23       		.byte	0x23
 1161 01ea 18       		.uleb128 0x18
 1162 01eb 0B       		.uleb128 0xb
 1163 01ec 59050000 		.4byte	.LASF32
 1164 01f0 05       		.byte	0x5
 1165 01f1 3D       		.byte	0x3d
 1166 01f2 45000000 		.4byte	0x45
 1167 01f6 02       		.byte	0x2
 1168 01f7 23       		.byte	0x23
 1169 01f8 1C       		.uleb128 0x1c
 1170 01f9 0B       		.uleb128 0xb
 1171 01fa 91070000 		.4byte	.LASF33
 1172 01fe 05       		.byte	0x5
 1173 01ff 3E       		.byte	0x3e
 1174 0200 45000000 		.4byte	0x45
 1175 0204 02       		.byte	0x2
 1176 0205 23       		.byte	0x23
 1177 0206 20       		.uleb128 0x20
 1178 0207 00       		.byte	0x0
 1179 0208 10       		.uleb128 0x10
 1180 0209 5F010000 		.4byte	.LASF34
 1181 020d 0801     		.2byte	0x108
 1182 020f 05       		.byte	0x5
 1183 0210 47       		.byte	0x47
 1184 0211 51020000 		.4byte	0x251
 1185 0215 0B       		.uleb128 0xb
 1186 0216 1F000000 		.4byte	.LASF35
 1187 021a 05       		.byte	0x5
 1188 021b 48       		.byte	0x48
 1189 021c 51020000 		.4byte	0x251
 1190 0220 02       		.byte	0x2
 1191 0221 23       		.byte	0x23
 1192 0222 00       		.uleb128 0x0
 1193 0223 0B       		.uleb128 0xb
 1194 0224 00000000 		.4byte	.LASF36
 1195 0228 05       		.byte	0x5
 1196 0229 49       		.byte	0x49
 1197 022a 51020000 		.4byte	0x251
 1198 022e 03       		.byte	0x3
 1199 022f 23       		.byte	0x23
 1200 0230 8001     		.uleb128 0x80
 1201 0232 0B       		.uleb128 0xb
 1202 0233 8E060000 		.4byte	.LASF37
 1203 0237 05       		.byte	0x5
 1204 0238 4B       		.byte	0x4b
 1205 0239 F6000000 		.4byte	0xf6
 1206 023d 03       		.byte	0x3
 1207 023e 23       		.byte	0x23
 1208 023f 8002     		.uleb128 0x100
 1209 0241 0B       		.uleb128 0xb
 1210 0242 C5010000 		.4byte	.LASF38
 1211 0246 05       		.byte	0x5
 1212 0247 4E       		.byte	0x4e
 1213 0248 F6000000 		.4byte	0xf6
 1214 024c 03       		.byte	0x3
 1215 024d 23       		.byte	0x23
 1216 024e 8402     		.uleb128 0x104
ARM GAS  /tmp/ccXWoaLx.s 			page 27


 1217 0250 00       		.byte	0x0
 1218 0251 08       		.uleb128 0x8
 1219 0252 F4000000 		.4byte	0xf4
 1220 0256 61020000 		.4byte	0x261
 1221 025a 09       		.uleb128 0x9
 1222 025b 4C000000 		.4byte	0x4c
 1223 025f 1F       		.byte	0x1f
 1224 0260 00       		.byte	0x0
 1225 0261 10       		.uleb128 0x10
 1226 0262 89040000 		.4byte	.LASF39
 1227 0266 9001     		.2byte	0x190
 1228 0268 05       		.byte	0x5
 1229 0269 59       		.byte	0x59
 1230 026a A8020000 		.4byte	0x2a8
 1231 026e 0B       		.uleb128 0xb
 1232 026f BE020000 		.4byte	.LASF19
 1233 0273 05       		.byte	0x5
 1234 0274 5A       		.byte	0x5a
 1235 0275 A8020000 		.4byte	0x2a8
 1236 0279 02       		.byte	0x2
 1237 027a 23       		.byte	0x23
 1238 027b 00       		.uleb128 0x0
 1239 027c 0B       		.uleb128 0xb
 1240 027d B8050000 		.4byte	.LASF40
 1241 0281 05       		.byte	0x5
 1242 0282 5B       		.byte	0x5b
 1243 0283 45000000 		.4byte	0x45
 1244 0287 02       		.byte	0x2
 1245 0288 23       		.byte	0x23
 1246 0289 04       		.uleb128 0x4
 1247 028a 0B       		.uleb128 0xb
 1248 028b 81020000 		.4byte	.LASF41
 1249 028f 05       		.byte	0x5
 1250 0290 5D       		.byte	0x5d
 1251 0291 AE020000 		.4byte	0x2ae
 1252 0295 02       		.byte	0x2
 1253 0296 23       		.byte	0x23
 1254 0297 08       		.uleb128 0x8
 1255 0298 0B       		.uleb128 0xb
 1256 0299 5F010000 		.4byte	.LASF34
 1257 029d 05       		.byte	0x5
 1258 029e 5E       		.byte	0x5e
 1259 029f 08020000 		.4byte	0x208
 1260 02a3 03       		.byte	0x3
 1261 02a4 23       		.byte	0x23
 1262 02a5 8801     		.uleb128 0x88
 1263 02a7 00       		.byte	0x0
 1264 02a8 0F       		.uleb128 0xf
 1265 02a9 04       		.byte	0x4
 1266 02aa 61020000 		.4byte	0x261
 1267 02ae 08       		.uleb128 0x8
 1268 02af C0020000 		.4byte	0x2c0
 1269 02b3 BE020000 		.4byte	0x2be
 1270 02b7 09       		.uleb128 0x9
 1271 02b8 4C000000 		.4byte	0x4c
 1272 02bc 1F       		.byte	0x1f
 1273 02bd 00       		.byte	0x0
ARM GAS  /tmp/ccXWoaLx.s 			page 28


 1274 02be 11       		.uleb128 0x11
 1275 02bf 01       		.byte	0x1
 1276 02c0 0F       		.uleb128 0xf
 1277 02c1 04       		.byte	0x4
 1278 02c2 BE020000 		.4byte	0x2be
 1279 02c6 0D       		.uleb128 0xd
 1280 02c7 EE070000 		.4byte	.LASF42
 1281 02cb 08       		.byte	0x8
 1282 02cc 05       		.byte	0x5
 1283 02cd 69       		.byte	0x69
 1284 02ce EF020000 		.4byte	0x2ef
 1285 02d2 0B       		.uleb128 0xb
 1286 02d3 B2000000 		.4byte	.LASF43
 1287 02d7 05       		.byte	0x5
 1288 02d8 6A       		.byte	0x6a
 1289 02d9 EF020000 		.4byte	0x2ef
 1290 02dd 02       		.byte	0x2
 1291 02de 23       		.byte	0x23
 1292 02df 00       		.uleb128 0x0
 1293 02e0 0B       		.uleb128 0xb
 1294 02e1 47060000 		.4byte	.LASF44
 1295 02e5 05       		.byte	0x5
 1296 02e6 6B       		.byte	0x6b
 1297 02e7 45000000 		.4byte	0x45
 1298 02eb 02       		.byte	0x2
 1299 02ec 23       		.byte	0x23
 1300 02ed 04       		.uleb128 0x4
 1301 02ee 00       		.byte	0x0
 1302 02ef 0F       		.uleb128 0xf
 1303 02f0 04       		.byte	0x4
 1304 02f1 30000000 		.4byte	0x30
 1305 02f5 0D       		.uleb128 0xd
 1306 02f6 85050000 		.4byte	.LASF45
 1307 02fa 68       		.byte	0x68
 1308 02fb 05       		.byte	0x5
 1309 02fc A9       		.byte	0xa9
 1310 02fd 4F040000 		.4byte	0x44f
 1311 0301 0E       		.uleb128 0xe
 1312 0302 5F7000   		.ascii	"_p\000"
 1313 0305 05       		.byte	0x5
 1314 0306 AA       		.byte	0xaa
 1315 0307 EF020000 		.4byte	0x2ef
 1316 030b 02       		.byte	0x2
 1317 030c 23       		.byte	0x23
 1318 030d 00       		.uleb128 0x0
 1319 030e 0E       		.uleb128 0xe
 1320 030f 5F7200   		.ascii	"_r\000"
 1321 0312 05       		.byte	0x5
 1322 0313 AB       		.byte	0xab
 1323 0314 45000000 		.4byte	0x45
 1324 0318 02       		.byte	0x2
 1325 0319 23       		.byte	0x23
 1326 031a 04       		.uleb128 0x4
 1327 031b 0E       		.uleb128 0xe
 1328 031c 5F7700   		.ascii	"_w\000"
 1329 031f 05       		.byte	0x5
 1330 0320 AC       		.byte	0xac
ARM GAS  /tmp/ccXWoaLx.s 			page 29


 1331 0321 45000000 		.4byte	0x45
 1332 0325 02       		.byte	0x2
 1333 0326 23       		.byte	0x23
 1334 0327 08       		.uleb128 0x8
 1335 0328 0B       		.uleb128 0xb
 1336 0329 BE010000 		.4byte	.LASF46
 1337 032d 05       		.byte	0x5
 1338 032e AD       		.byte	0xad
 1339 032f 37000000 		.4byte	0x37
 1340 0333 02       		.byte	0x2
 1341 0334 23       		.byte	0x23
 1342 0335 0C       		.uleb128 0xc
 1343 0336 0B       		.uleb128 0xb
 1344 0337 2C030000 		.4byte	.LASF47
 1345 033b 05       		.byte	0x5
 1346 033c AE       		.byte	0xae
 1347 033d 37000000 		.4byte	0x37
 1348 0341 02       		.byte	0x2
 1349 0342 23       		.byte	0x23
 1350 0343 0E       		.uleb128 0xe
 1351 0344 0E       		.uleb128 0xe
 1352 0345 5F626600 		.ascii	"_bf\000"
 1353 0349 05       		.byte	0x5
 1354 034a AF       		.byte	0xaf
 1355 034b C6020000 		.4byte	0x2c6
 1356 034f 02       		.byte	0x2
 1357 0350 23       		.byte	0x23
 1358 0351 10       		.uleb128 0x10
 1359 0352 0B       		.uleb128 0xb
 1360 0353 9F000000 		.4byte	.LASF48
 1361 0357 05       		.byte	0x5
 1362 0358 B0       		.byte	0xb0
 1363 0359 45000000 		.4byte	0x45
 1364 035d 02       		.byte	0x2
 1365 035e 23       		.byte	0x23
 1366 035f 18       		.uleb128 0x18
 1367 0360 0B       		.uleb128 0xb
 1368 0361 94010000 		.4byte	.LASF49
 1369 0365 05       		.byte	0x5
 1370 0366 B7       		.byte	0xb7
 1371 0367 F4000000 		.4byte	0xf4
 1372 036b 02       		.byte	0x2
 1373 036c 23       		.byte	0x23
 1374 036d 1C       		.uleb128 0x1c
 1375 036e 0B       		.uleb128 0xb
 1376 036f D7020000 		.4byte	.LASF50
 1377 0373 05       		.byte	0x5
 1378 0374 B9       		.byte	0xb9
 1379 0375 DF050000 		.4byte	0x5df
 1380 0379 02       		.byte	0x2
 1381 037a 23       		.byte	0x23
 1382 037b 20       		.uleb128 0x20
 1383 037c 0B       		.uleb128 0xb
 1384 037d F1030000 		.4byte	.LASF51
 1385 0381 05       		.byte	0x5
 1386 0382 BB       		.byte	0xbb
 1387 0383 0F060000 		.4byte	0x60f
ARM GAS  /tmp/ccXWoaLx.s 			page 30


 1388 0387 02       		.byte	0x2
 1389 0388 23       		.byte	0x23
 1390 0389 24       		.uleb128 0x24
 1391 038a 0B       		.uleb128 0xb
 1392 038b 10060000 		.4byte	.LASF52
 1393 038f 05       		.byte	0x5
 1394 0390 BD       		.byte	0xbd
 1395 0391 34060000 		.4byte	0x634
 1396 0395 02       		.byte	0x2
 1397 0396 23       		.byte	0x23
 1398 0397 28       		.uleb128 0x28
 1399 0398 0B       		.uleb128 0xb
 1400 0399 F7000000 		.4byte	.LASF53
 1401 039d 05       		.byte	0x5
 1402 039e BE       		.byte	0xbe
 1403 039f 4F060000 		.4byte	0x64f
 1404 03a3 02       		.byte	0x2
 1405 03a4 23       		.byte	0x23
 1406 03a5 2C       		.uleb128 0x2c
 1407 03a6 0E       		.uleb128 0xe
 1408 03a7 5F756200 		.ascii	"_ub\000"
 1409 03ab 05       		.byte	0x5
 1410 03ac C1       		.byte	0xc1
 1411 03ad C6020000 		.4byte	0x2c6
 1412 03b1 02       		.byte	0x2
 1413 03b2 23       		.byte	0x23
 1414 03b3 30       		.uleb128 0x30
 1415 03b4 0E       		.uleb128 0xe
 1416 03b5 5F757000 		.ascii	"_up\000"
 1417 03b9 05       		.byte	0x5
 1418 03ba C2       		.byte	0xc2
 1419 03bb EF020000 		.4byte	0x2ef
 1420 03bf 02       		.byte	0x2
 1421 03c0 23       		.byte	0x23
 1422 03c1 38       		.uleb128 0x38
 1423 03c2 0E       		.uleb128 0xe
 1424 03c3 5F757200 		.ascii	"_ur\000"
 1425 03c7 05       		.byte	0x5
 1426 03c8 C3       		.byte	0xc3
 1427 03c9 45000000 		.4byte	0x45
 1428 03cd 02       		.byte	0x2
 1429 03ce 23       		.byte	0x23
 1430 03cf 3C       		.uleb128 0x3c
 1431 03d0 0B       		.uleb128 0xb
 1432 03d1 19010000 		.4byte	.LASF54
 1433 03d5 05       		.byte	0x5
 1434 03d6 C6       		.byte	0xc6
 1435 03d7 55060000 		.4byte	0x655
 1436 03db 02       		.byte	0x2
 1437 03dc 23       		.byte	0x23
 1438 03dd 40       		.uleb128 0x40
 1439 03de 0B       		.uleb128 0xb
 1440 03df 73070000 		.4byte	.LASF55
 1441 03e3 05       		.byte	0x5
 1442 03e4 C7       		.byte	0xc7
 1443 03e5 65060000 		.4byte	0x665
 1444 03e9 02       		.byte	0x2
ARM GAS  /tmp/ccXWoaLx.s 			page 31


 1445 03ea 23       		.byte	0x23
 1446 03eb 43       		.uleb128 0x43
 1447 03ec 0E       		.uleb128 0xe
 1448 03ed 5F6C6200 		.ascii	"_lb\000"
 1449 03f1 05       		.byte	0x5
 1450 03f2 CA       		.byte	0xca
 1451 03f3 C6020000 		.4byte	0x2c6
 1452 03f7 02       		.byte	0x2
 1453 03f8 23       		.byte	0x23
 1454 03f9 44       		.uleb128 0x44
 1455 03fa 0B       		.uleb128 0xb
 1456 03fb 34060000 		.4byte	.LASF56
 1457 03ff 05       		.byte	0x5
 1458 0400 CD       		.byte	0xcd
 1459 0401 45000000 		.4byte	0x45
 1460 0405 02       		.byte	0x2
 1461 0406 23       		.byte	0x23
 1462 0407 4C       		.uleb128 0x4c
 1463 0408 0B       		.uleb128 0xb
 1464 0409 4C040000 		.4byte	.LASF57
 1465 040d 05       		.byte	0x5
 1466 040e CE       		.byte	0xce
 1467 040f 45000000 		.4byte	0x45
 1468 0413 02       		.byte	0x2
 1469 0414 23       		.byte	0x23
 1470 0415 50       		.uleb128 0x50
 1471 0416 0B       		.uleb128 0xb
 1472 0417 40030000 		.4byte	.LASF58
 1473 041b 05       		.byte	0x5
 1474 041c D1       		.byte	0xd1
 1475 041d 6E040000 		.4byte	0x46e
 1476 0421 02       		.byte	0x2
 1477 0422 23       		.byte	0x23
 1478 0423 54       		.uleb128 0x54
 1479 0424 0B       		.uleb128 0xb
 1480 0425 D6030000 		.4byte	.LASF59
 1481 0429 05       		.byte	0x5
 1482 042a D5       		.byte	0xd5
 1483 042b E9000000 		.4byte	0xe9
 1484 042f 02       		.byte	0x2
 1485 0430 23       		.byte	0x23
 1486 0431 58       		.uleb128 0x58
 1487 0432 0B       		.uleb128 0xb
 1488 0433 42000000 		.4byte	.LASF60
 1489 0437 05       		.byte	0x5
 1490 0438 D7       		.byte	0xd7
 1491 0439 DE000000 		.4byte	0xde
 1492 043d 02       		.byte	0x2
 1493 043e 23       		.byte	0x23
 1494 043f 5C       		.uleb128 0x5c
 1495 0440 0B       		.uleb128 0xb
 1496 0441 63050000 		.4byte	.LASF61
 1497 0445 05       		.byte	0x5
 1498 0446 D8       		.byte	0xd8
 1499 0447 45000000 		.4byte	0x45
 1500 044b 02       		.byte	0x2
 1501 044c 23       		.byte	0x23
ARM GAS  /tmp/ccXWoaLx.s 			page 32


 1502 044d 64       		.uleb128 0x64
 1503 044e 00       		.byte	0x0
 1504 044f 12       		.uleb128 0x12
 1505 0450 01       		.byte	0x1
 1506 0451 45000000 		.4byte	0x45
 1507 0455 6E040000 		.4byte	0x46e
 1508 0459 13       		.uleb128 0x13
 1509 045a 6E040000 		.4byte	0x46e
 1510 045e 13       		.uleb128 0x13
 1511 045f F4000000 		.4byte	0xf4
 1512 0463 13       		.uleb128 0x13
 1513 0464 D2050000 		.4byte	0x5d2
 1514 0468 13       		.uleb128 0x13
 1515 0469 45000000 		.4byte	0x45
 1516 046d 00       		.byte	0x0
 1517 046e 0F       		.uleb128 0xf
 1518 046f 04       		.byte	0x4
 1519 0470 74040000 		.4byte	0x474
 1520 0474 14       		.uleb128 0x14
 1521 0475 DF050000 		.4byte	.LASF62
 1522 0479 2804     		.2byte	0x428
 1523 047b 05       		.byte	0x5
 1524 047c 4402     		.2byte	0x244
 1525 047e D2050000 		.4byte	0x5d2
 1526 0482 15       		.uleb128 0x15
 1527 0483 28060000 		.4byte	.LASF63
 1528 0487 05       		.byte	0x5
 1529 0488 4602     		.2byte	0x246
 1530 048a 45000000 		.4byte	0x45
 1531 048e 02       		.byte	0x2
 1532 048f 23       		.byte	0x23
 1533 0490 00       		.uleb128 0x0
 1534 0491 15       		.uleb128 0x15
 1535 0492 CD010000 		.4byte	.LASF64
 1536 0496 05       		.byte	0x5
 1537 0497 4B02     		.2byte	0x24b
 1538 0499 C2060000 		.4byte	0x6c2
 1539 049d 02       		.byte	0x2
 1540 049e 23       		.byte	0x23
 1541 049f 04       		.uleb128 0x4
 1542 04a0 15       		.uleb128 0x15
 1543 04a1 F9020000 		.4byte	.LASF65
 1544 04a5 05       		.byte	0x5
 1545 04a6 4B02     		.2byte	0x24b
 1546 04a8 C2060000 		.4byte	0x6c2
 1547 04ac 02       		.byte	0x2
 1548 04ad 23       		.byte	0x23
 1549 04ae 08       		.uleb128 0x8
 1550 04af 15       		.uleb128 0x15
 1551 04b0 79060000 		.4byte	.LASF66
 1552 04b4 05       		.byte	0x5
 1553 04b5 4B02     		.2byte	0x24b
 1554 04b7 C2060000 		.4byte	0x6c2
 1555 04bb 02       		.byte	0x2
 1556 04bc 23       		.byte	0x23
 1557 04bd 0C       		.uleb128 0xc
 1558 04be 15       		.uleb128 0x15
ARM GAS  /tmp/ccXWoaLx.s 			page 33


 1559 04bf B3050000 		.4byte	.LASF67
 1560 04c3 05       		.byte	0x5
 1561 04c4 4D02     		.2byte	0x24d
 1562 04c6 45000000 		.4byte	0x45
 1563 04ca 02       		.byte	0x2
 1564 04cb 23       		.byte	0x23
 1565 04cc 10       		.uleb128 0x10
 1566 04cd 15       		.uleb128 0x15
 1567 04ce 2F000000 		.4byte	.LASF68
 1568 04d2 05       		.byte	0x5
 1569 04d3 4E02     		.2byte	0x24e
 1570 04d5 DD080000 		.4byte	0x8dd
 1571 04d9 02       		.byte	0x2
 1572 04da 23       		.byte	0x23
 1573 04db 14       		.uleb128 0x14
 1574 04dc 15       		.uleb128 0x15
 1575 04dd F6060000 		.4byte	.LASF69
 1576 04e1 05       		.byte	0x5
 1577 04e2 5002     		.2byte	0x250
 1578 04e4 45000000 		.4byte	0x45
 1579 04e8 02       		.byte	0x2
 1580 04e9 23       		.byte	0x23
 1581 04ea 30       		.uleb128 0x30
 1582 04eb 15       		.uleb128 0x15
 1583 04ec BD050000 		.4byte	.LASF70
 1584 04f0 05       		.byte	0x5
 1585 04f1 5102     		.2byte	0x251
 1586 04f3 04060000 		.4byte	0x604
 1587 04f7 02       		.byte	0x2
 1588 04f8 23       		.byte	0x23
 1589 04f9 34       		.uleb128 0x34
 1590 04fa 15       		.uleb128 0x15
 1591 04fb 91040000 		.4byte	.LASF71
 1592 04ff 05       		.byte	0x5
 1593 0500 5302     		.2byte	0x253
 1594 0502 45000000 		.4byte	0x45
 1595 0506 02       		.byte	0x2
 1596 0507 23       		.byte	0x23
 1597 0508 38       		.uleb128 0x38
 1598 0509 15       		.uleb128 0x15
 1599 050a 28070000 		.4byte	.LASF72
 1600 050e 05       		.byte	0x5
 1601 050f 5502     		.2byte	0x255
 1602 0511 F9080000 		.4byte	0x8f9
 1603 0515 02       		.byte	0x2
 1604 0516 23       		.byte	0x23
 1605 0517 3C       		.uleb128 0x3c
 1606 0518 15       		.uleb128 0x15
 1607 0519 A7030000 		.4byte	.LASF73
 1608 051d 05       		.byte	0x5
 1609 051e 5802     		.2byte	0x258
 1610 0520 67010000 		.4byte	0x167
 1611 0524 02       		.byte	0x2
 1612 0525 23       		.byte	0x23
 1613 0526 40       		.uleb128 0x40
 1614 0527 15       		.uleb128 0x15
 1615 0528 E4010000 		.4byte	.LASF74
ARM GAS  /tmp/ccXWoaLx.s 			page 34


 1616 052c 05       		.byte	0x5
 1617 052d 5902     		.2byte	0x259
 1618 052f 45000000 		.4byte	0x45
 1619 0533 02       		.byte	0x2
 1620 0534 23       		.byte	0x23
 1621 0535 44       		.uleb128 0x44
 1622 0536 15       		.uleb128 0x15
 1623 0537 E4070000 		.4byte	.LASF75
 1624 053b 05       		.byte	0x5
 1625 053c 5A02     		.2byte	0x25a
 1626 053e 67010000 		.4byte	0x167
 1627 0542 02       		.byte	0x2
 1628 0543 23       		.byte	0x23
 1629 0544 48       		.uleb128 0x48
 1630 0545 15       		.uleb128 0x15
 1631 0546 E3040000 		.4byte	.LASF76
 1632 054a 05       		.byte	0x5
 1633 054b 5B02     		.2byte	0x25b
 1634 054d FF080000 		.4byte	0x8ff
 1635 0551 02       		.byte	0x2
 1636 0552 23       		.byte	0x23
 1637 0553 4C       		.uleb128 0x4c
 1638 0554 15       		.uleb128 0x15
 1639 0555 09030000 		.4byte	.LASF77
 1640 0559 05       		.byte	0x5
 1641 055a 5E02     		.2byte	0x25e
 1642 055c 45000000 		.4byte	0x45
 1643 0560 02       		.byte	0x2
 1644 0561 23       		.byte	0x23
 1645 0562 50       		.uleb128 0x50
 1646 0563 15       		.uleb128 0x15
 1647 0564 22020000 		.4byte	.LASF78
 1648 0568 05       		.byte	0x5
 1649 0569 5F02     		.2byte	0x25f
 1650 056b D2050000 		.4byte	0x5d2
 1651 056f 02       		.byte	0x2
 1652 0570 23       		.byte	0x23
 1653 0571 54       		.uleb128 0x54
 1654 0572 15       		.uleb128 0x15
 1655 0573 D1030000 		.4byte	.LASF79
 1656 0577 05       		.byte	0x5
 1657 0578 8202     		.2byte	0x282
 1658 057a BB080000 		.4byte	0x8bb
 1659 057e 02       		.byte	0x2
 1660 057f 23       		.byte	0x23
 1661 0580 58       		.uleb128 0x58
 1662 0581 15       		.uleb128 0x15
 1663 0582 89040000 		.4byte	.LASF39
 1664 0586 05       		.byte	0x5
 1665 0587 8502     		.2byte	0x285
 1666 0589 A8020000 		.4byte	0x2a8
 1667 058d 03       		.byte	0x3
 1668 058e 23       		.byte	0x23
 1669 058f C802     		.uleb128 0x148
 1670 0591 15       		.uleb128 0x15
 1671 0592 60000000 		.4byte	.LASF80
 1672 0596 05       		.byte	0x5
ARM GAS  /tmp/ccXWoaLx.s 			page 35


 1673 0597 8602     		.2byte	0x286
 1674 0599 61020000 		.4byte	0x261
 1675 059d 03       		.byte	0x3
 1676 059e 23       		.byte	0x23
 1677 059f CC02     		.uleb128 0x14c
 1678 05a1 15       		.uleb128 0x15
 1679 05a2 60070000 		.4byte	.LASF81
 1680 05a6 05       		.byte	0x5
 1681 05a7 8902     		.2byte	0x289
 1682 05a9 11090000 		.4byte	0x911
 1683 05ad 03       		.byte	0x3
 1684 05ae 23       		.byte	0x23
 1685 05af DC05     		.uleb128 0x2dc
 1686 05b1 15       		.uleb128 0x15
 1687 05b2 A4010000 		.4byte	.LASF82
 1688 05b6 05       		.byte	0x5
 1689 05b7 8E02     		.2byte	0x28e
 1690 05b9 81060000 		.4byte	0x681
 1691 05bd 03       		.byte	0x3
 1692 05be 23       		.byte	0x23
 1693 05bf E005     		.uleb128 0x2e0
 1694 05c1 15       		.uleb128 0x15
 1695 05c2 5A010000 		.4byte	.LASF83
 1696 05c6 05       		.byte	0x5
 1697 05c7 8F02     		.2byte	0x28f
 1698 05c9 1D090000 		.4byte	0x91d
 1699 05cd 03       		.byte	0x3
 1700 05ce 23       		.byte	0x23
 1701 05cf EC05     		.uleb128 0x2ec
 1702 05d1 00       		.byte	0x0
 1703 05d2 0F       		.uleb128 0xf
 1704 05d3 04       		.byte	0x4
 1705 05d4 D8050000 		.4byte	0x5d8
 1706 05d8 02       		.uleb128 0x2
 1707 05d9 01       		.byte	0x1
 1708 05da 08       		.byte	0x8
 1709 05db 2F060000 		.4byte	.LASF84
 1710 05df 0F       		.uleb128 0xf
 1711 05e0 04       		.byte	0x4
 1712 05e1 4F040000 		.4byte	0x44f
 1713 05e5 12       		.uleb128 0x12
 1714 05e6 01       		.byte	0x1
 1715 05e7 45000000 		.4byte	0x45
 1716 05eb 04060000 		.4byte	0x604
 1717 05ef 13       		.uleb128 0x13
 1718 05f0 6E040000 		.4byte	0x46e
 1719 05f4 13       		.uleb128 0x13
 1720 05f5 F4000000 		.4byte	0xf4
 1721 05f9 13       		.uleb128 0x13
 1722 05fa 04060000 		.4byte	0x604
 1723 05fe 13       		.uleb128 0x13
 1724 05ff 45000000 		.4byte	0x45
 1725 0603 00       		.byte	0x0
 1726 0604 0F       		.uleb128 0xf
 1727 0605 04       		.byte	0x4
 1728 0606 0A060000 		.4byte	0x60a
 1729 060a 16       		.uleb128 0x16
ARM GAS  /tmp/ccXWoaLx.s 			page 36


 1730 060b D8050000 		.4byte	0x5d8
 1731 060f 0F       		.uleb128 0xf
 1732 0610 04       		.byte	0x4
 1733 0611 E5050000 		.4byte	0x5e5
 1734 0615 12       		.uleb128 0x12
 1735 0616 01       		.byte	0x1
 1736 0617 73000000 		.4byte	0x73
 1737 061b 34060000 		.4byte	0x634
 1738 061f 13       		.uleb128 0x13
 1739 0620 6E040000 		.4byte	0x46e
 1740 0624 13       		.uleb128 0x13
 1741 0625 F4000000 		.4byte	0xf4
 1742 0629 13       		.uleb128 0x13
 1743 062a 73000000 		.4byte	0x73
 1744 062e 13       		.uleb128 0x13
 1745 062f 45000000 		.4byte	0x45
 1746 0633 00       		.byte	0x0
 1747 0634 0F       		.uleb128 0xf
 1748 0635 04       		.byte	0x4
 1749 0636 15060000 		.4byte	0x615
 1750 063a 12       		.uleb128 0x12
 1751 063b 01       		.byte	0x1
 1752 063c 45000000 		.4byte	0x45
 1753 0640 4F060000 		.4byte	0x64f
 1754 0644 13       		.uleb128 0x13
 1755 0645 6E040000 		.4byte	0x46e
 1756 0649 13       		.uleb128 0x13
 1757 064a F4000000 		.4byte	0xf4
 1758 064e 00       		.byte	0x0
 1759 064f 0F       		.uleb128 0xf
 1760 0650 04       		.byte	0x4
 1761 0651 3A060000 		.4byte	0x63a
 1762 0655 08       		.uleb128 0x8
 1763 0656 30000000 		.4byte	0x30
 1764 065a 65060000 		.4byte	0x665
 1765 065e 09       		.uleb128 0x9
 1766 065f 4C000000 		.4byte	0x4c
 1767 0663 02       		.byte	0x2
 1768 0664 00       		.byte	0x0
 1769 0665 08       		.uleb128 0x8
 1770 0666 30000000 		.4byte	0x30
 1771 066a 75060000 		.4byte	0x675
 1772 066e 09       		.uleb128 0x9
 1773 066f 4C000000 		.4byte	0x4c
 1774 0673 00       		.byte	0x0
 1775 0674 00       		.byte	0x0
 1776 0675 05       		.uleb128 0x5
 1777 0676 D4010000 		.4byte	.LASF85
 1778 067a 05       		.byte	0x5
 1779 067b 1101     		.2byte	0x111
 1780 067d F5020000 		.4byte	0x2f5
 1781 0681 17       		.uleb128 0x17
 1782 0682 37070000 		.4byte	.LASF86
 1783 0686 0C       		.byte	0xc
 1784 0687 05       		.byte	0x5
 1785 0688 1501     		.2byte	0x115
 1786 068a BC060000 		.4byte	0x6bc
ARM GAS  /tmp/ccXWoaLx.s 			page 37


 1787 068e 15       		.uleb128 0x15
 1788 068f BE020000 		.4byte	.LASF19
 1789 0693 05       		.byte	0x5
 1790 0694 1701     		.2byte	0x117
 1791 0696 BC060000 		.4byte	0x6bc
 1792 069a 02       		.byte	0x2
 1793 069b 23       		.byte	0x23
 1794 069c 00       		.uleb128 0x0
 1795 069d 15       		.uleb128 0x15
 1796 069e 4E030000 		.4byte	.LASF87
 1797 06a2 05       		.byte	0x5
 1798 06a3 1801     		.2byte	0x118
 1799 06a5 45000000 		.4byte	0x45
 1800 06a9 02       		.byte	0x2
 1801 06aa 23       		.byte	0x23
 1802 06ab 04       		.uleb128 0x4
 1803 06ac 15       		.uleb128 0x15
 1804 06ad 6B050000 		.4byte	.LASF88
 1805 06b1 05       		.byte	0x5
 1806 06b2 1901     		.2byte	0x119
 1807 06b4 C2060000 		.4byte	0x6c2
 1808 06b8 02       		.byte	0x2
 1809 06b9 23       		.byte	0x23
 1810 06ba 08       		.uleb128 0x8
 1811 06bb 00       		.byte	0x0
 1812 06bc 0F       		.uleb128 0xf
 1813 06bd 04       		.byte	0x4
 1814 06be 81060000 		.4byte	0x681
 1815 06c2 0F       		.uleb128 0xf
 1816 06c3 04       		.byte	0x4
 1817 06c4 75060000 		.4byte	0x675
 1818 06c8 17       		.uleb128 0x17
 1819 06c9 27000000 		.4byte	.LASF89
 1820 06cd 0E       		.byte	0xe
 1821 06ce 05       		.byte	0x5
 1822 06cf 3101     		.2byte	0x131
 1823 06d1 03070000 		.4byte	0x703
 1824 06d5 15       		.uleb128 0x15
 1825 06d6 E6050000 		.4byte	.LASF90
 1826 06da 05       		.byte	0x5
 1827 06db 3201     		.2byte	0x132
 1828 06dd 03070000 		.4byte	0x703
 1829 06e1 02       		.byte	0x2
 1830 06e2 23       		.byte	0x23
 1831 06e3 00       		.uleb128 0x0
 1832 06e4 15       		.uleb128 0x15
 1833 06e5 DC030000 		.4byte	.LASF91
 1834 06e9 05       		.byte	0x5
 1835 06ea 3301     		.2byte	0x133
 1836 06ec 03070000 		.4byte	0x703
 1837 06f0 02       		.byte	0x2
 1838 06f1 23       		.byte	0x23
 1839 06f2 06       		.uleb128 0x6
 1840 06f3 15       		.uleb128 0x15
 1841 06f4 C2060000 		.4byte	.LASF92
 1842 06f8 05       		.byte	0x5
 1843 06f9 3401     		.2byte	0x134
ARM GAS  /tmp/ccXWoaLx.s 			page 38


 1844 06fb 3E000000 		.4byte	0x3e
 1845 06ff 02       		.byte	0x2
 1846 0700 23       		.byte	0x23
 1847 0701 0C       		.uleb128 0xc
 1848 0702 00       		.byte	0x0
 1849 0703 08       		.uleb128 0x8
 1850 0704 3E000000 		.4byte	0x3e
 1851 0708 13070000 		.4byte	0x713
 1852 070c 09       		.uleb128 0x9
 1853 070d 4C000000 		.4byte	0x4c
 1854 0711 02       		.byte	0x2
 1855 0712 00       		.byte	0x0
 1856 0713 18       		.uleb128 0x18
 1857 0714 D0       		.byte	0xd0
 1858 0715 05       		.byte	0x5
 1859 0716 6302     		.2byte	0x263
 1860 0718 43080000 		.4byte	0x843
 1861 071c 15       		.uleb128 0x15
 1862 071d 1B070000 		.4byte	.LASF93
 1863 0721 05       		.byte	0x5
 1864 0722 6502     		.2byte	0x265
 1865 0724 4C000000 		.4byte	0x4c
 1866 0728 02       		.byte	0x2
 1867 0729 23       		.byte	0x23
 1868 072a 00       		.uleb128 0x0
 1869 072b 15       		.uleb128 0x15
 1870 072c 53020000 		.4byte	.LASF94
 1871 0730 05       		.byte	0x5
 1872 0731 6602     		.2byte	0x266
 1873 0733 D2050000 		.4byte	0x5d2
 1874 0737 02       		.byte	0x2
 1875 0738 23       		.byte	0x23
 1876 0739 04       		.uleb128 0x4
 1877 073a 15       		.uleb128 0x15
 1878 073b 92030000 		.4byte	.LASF95
 1879 073f 05       		.byte	0x5
 1880 0740 6702     		.2byte	0x267
 1881 0742 43080000 		.4byte	0x843
 1882 0746 02       		.byte	0x2
 1883 0747 23       		.byte	0x23
 1884 0748 08       		.uleb128 0x8
 1885 0749 15       		.uleb128 0x15
 1886 074a 9C070000 		.4byte	.LASF96
 1887 074e 05       		.byte	0x5
 1888 074f 6802     		.2byte	0x268
 1889 0751 7D010000 		.4byte	0x17d
 1890 0755 02       		.byte	0x2
 1891 0756 23       		.byte	0x23
 1892 0757 24       		.uleb128 0x24
 1893 0758 15       		.uleb128 0x15
 1894 0759 9C040000 		.4byte	.LASF97
 1895 075d 05       		.byte	0x5
 1896 075e 6902     		.2byte	0x269
 1897 0760 45000000 		.4byte	0x45
 1898 0764 02       		.byte	0x2
 1899 0765 23       		.byte	0x23
 1900 0766 48       		.uleb128 0x48
ARM GAS  /tmp/ccXWoaLx.s 			page 39


 1901 0767 15       		.uleb128 0x15
 1902 0768 69030000 		.4byte	.LASF98
 1903 076c 05       		.byte	0x5
 1904 076d 6A02     		.2byte	0x26a
 1905 076f 5A000000 		.4byte	0x5a
 1906 0773 02       		.byte	0x2
 1907 0774 23       		.byte	0x23
 1908 0775 50       		.uleb128 0x50
 1909 0776 15       		.uleb128 0x15
 1910 0777 BD070000 		.4byte	.LASF99
 1911 077b 05       		.byte	0x5
 1912 077c 6B02     		.2byte	0x26b
 1913 077e C8060000 		.4byte	0x6c8
 1914 0782 02       		.byte	0x2
 1915 0783 23       		.byte	0x23
 1916 0784 58       		.uleb128 0x58
 1917 0785 15       		.uleb128 0x15
 1918 0786 A6050000 		.4byte	.LASF100
 1919 078a 05       		.byte	0x5
 1920 078b 6C02     		.2byte	0x26c
 1921 078d DE000000 		.4byte	0xde
 1922 0791 02       		.byte	0x2
 1923 0792 23       		.byte	0x23
 1924 0793 68       		.uleb128 0x68
 1925 0794 15       		.uleb128 0x15
 1926 0795 D6070000 		.4byte	.LASF101
 1927 0799 05       		.byte	0x5
 1928 079a 6D02     		.2byte	0x26d
 1929 079c DE000000 		.4byte	0xde
 1930 07a0 02       		.byte	0x2
 1931 07a1 23       		.byte	0x23
 1932 07a2 70       		.uleb128 0x70
 1933 07a3 15       		.uleb128 0x15
 1934 07a4 E0000000 		.4byte	.LASF102
 1935 07a8 05       		.byte	0x5
 1936 07a9 6E02     		.2byte	0x26e
 1937 07ab DE000000 		.4byte	0xde
 1938 07af 02       		.byte	0x2
 1939 07b0 23       		.byte	0x23
 1940 07b1 78       		.uleb128 0x78
 1941 07b2 15       		.uleb128 0x15
 1942 07b3 4E070000 		.4byte	.LASF103
 1943 07b7 05       		.byte	0x5
 1944 07b8 6F02     		.2byte	0x26f
 1945 07ba 53080000 		.4byte	0x853
 1946 07be 03       		.byte	0x3
 1947 07bf 23       		.byte	0x23
 1948 07c0 8001     		.uleb128 0x80
 1949 07c2 15       		.uleb128 0x15
 1950 07c3 86030000 		.4byte	.LASF104
 1951 07c7 05       		.byte	0x5
 1952 07c8 7002     		.2byte	0x270
 1953 07ca 63080000 		.4byte	0x863
 1954 07ce 03       		.byte	0x3
 1955 07cf 23       		.byte	0x23
 1956 07d0 8801     		.uleb128 0x88
 1957 07d2 15       		.uleb128 0x15
ARM GAS  /tmp/ccXWoaLx.s 			page 40


 1958 07d3 DA060000 		.4byte	.LASF105
 1959 07d7 05       		.byte	0x5
 1960 07d8 7102     		.2byte	0x271
 1961 07da 45000000 		.4byte	0x45
 1962 07de 03       		.byte	0x3
 1963 07df 23       		.byte	0x23
 1964 07e0 A001     		.uleb128 0xa0
 1965 07e2 15       		.uleb128 0x15
 1966 07e3 60020000 		.4byte	.LASF106
 1967 07e7 05       		.byte	0x5
 1968 07e8 7202     		.2byte	0x272
 1969 07ea DE000000 		.4byte	0xde
 1970 07ee 03       		.byte	0x3
 1971 07ef 23       		.byte	0x23
 1972 07f0 A401     		.uleb128 0xa4
 1973 07f2 15       		.uleb128 0x15
 1974 07f3 E7060000 		.4byte	.LASF107
 1975 07f7 05       		.byte	0x5
 1976 07f8 7302     		.2byte	0x273
 1977 07fa DE000000 		.4byte	0xde
 1978 07fe 03       		.byte	0x3
 1979 07ff 23       		.byte	0x23
 1980 0800 AC01     		.uleb128 0xac
 1981 0802 15       		.uleb128 0x15
 1982 0803 42020000 		.4byte	.LASF108
 1983 0807 05       		.byte	0x5
 1984 0808 7402     		.2byte	0x274
 1985 080a DE000000 		.4byte	0xde
 1986 080e 03       		.byte	0x3
 1987 080f 23       		.byte	0x23
 1988 0810 B401     		.uleb128 0xb4
 1989 0812 15       		.uleb128 0x15
 1990 0813 B3060000 		.4byte	.LASF109
 1991 0817 05       		.byte	0x5
 1992 0818 7502     		.2byte	0x275
 1993 081a DE000000 		.4byte	0xde
 1994 081e 03       		.byte	0x3
 1995 081f 23       		.byte	0x23
 1996 0820 BC01     		.uleb128 0xbc
 1997 0822 15       		.uleb128 0x15
 1998 0823 77000000 		.4byte	.LASF110
 1999 0827 05       		.byte	0x5
 2000 0828 7602     		.2byte	0x276
 2001 082a DE000000 		.4byte	0xde
 2002 082e 03       		.byte	0x3
 2003 082f 23       		.byte	0x23
 2004 0830 C401     		.uleb128 0xc4
 2005 0832 15       		.uleb128 0x15
 2006 0833 47050000 		.4byte	.LASF111
 2007 0837 05       		.byte	0x5
 2008 0838 7702     		.2byte	0x277
 2009 083a 45000000 		.4byte	0x45
 2010 083e 03       		.byte	0x3
 2011 083f 23       		.byte	0x23
 2012 0840 CC01     		.uleb128 0xcc
 2013 0842 00       		.byte	0x0
 2014 0843 08       		.uleb128 0x8
ARM GAS  /tmp/ccXWoaLx.s 			page 41


 2015 0844 D8050000 		.4byte	0x5d8
 2016 0848 53080000 		.4byte	0x853
 2017 084c 09       		.uleb128 0x9
 2018 084d 4C000000 		.4byte	0x4c
 2019 0851 19       		.byte	0x19
 2020 0852 00       		.byte	0x0
 2021 0853 08       		.uleb128 0x8
 2022 0854 D8050000 		.4byte	0x5d8
 2023 0858 63080000 		.4byte	0x863
 2024 085c 09       		.uleb128 0x9
 2025 085d 4C000000 		.4byte	0x4c
 2026 0861 07       		.byte	0x7
 2027 0862 00       		.byte	0x0
 2028 0863 08       		.uleb128 0x8
 2029 0864 D8050000 		.4byte	0x5d8
 2030 0868 73080000 		.4byte	0x873
 2031 086c 09       		.uleb128 0x9
 2032 086d 4C000000 		.4byte	0x4c
 2033 0871 17       		.byte	0x17
 2034 0872 00       		.byte	0x0
 2035 0873 18       		.uleb128 0x18
 2036 0874 F0       		.byte	0xf0
 2037 0875 05       		.byte	0x5
 2038 0876 7C02     		.2byte	0x27c
 2039 0878 9B080000 		.4byte	0x89b
 2040 087c 15       		.uleb128 0x15
 2041 087d 5D040000 		.4byte	.LASF112
 2042 0881 05       		.byte	0x5
 2043 0882 7F02     		.2byte	0x27f
 2044 0884 9B080000 		.4byte	0x89b
 2045 0888 02       		.byte	0x2
 2046 0889 23       		.byte	0x23
 2047 088a 00       		.uleb128 0x0
 2048 088b 15       		.uleb128 0x15
 2049 088c 0C040000 		.4byte	.LASF113
 2050 0890 05       		.byte	0x5
 2051 0891 8002     		.2byte	0x280
 2052 0893 AB080000 		.4byte	0x8ab
 2053 0897 02       		.byte	0x2
 2054 0898 23       		.byte	0x23
 2055 0899 78       		.uleb128 0x78
 2056 089a 00       		.byte	0x0
 2057 089b 08       		.uleb128 0x8
 2058 089c EF020000 		.4byte	0x2ef
 2059 08a0 AB080000 		.4byte	0x8ab
 2060 08a4 09       		.uleb128 0x9
 2061 08a5 4C000000 		.4byte	0x4c
 2062 08a9 1D       		.byte	0x1d
 2063 08aa 00       		.byte	0x0
 2064 08ab 08       		.uleb128 0x8
 2065 08ac 4C000000 		.4byte	0x4c
 2066 08b0 BB080000 		.4byte	0x8bb
 2067 08b4 09       		.uleb128 0x9
 2068 08b5 4C000000 		.4byte	0x4c
 2069 08b9 1D       		.byte	0x1d
 2070 08ba 00       		.byte	0x0
 2071 08bb 19       		.uleb128 0x19
ARM GAS  /tmp/ccXWoaLx.s 			page 42


 2072 08bc F0       		.byte	0xf0
 2073 08bd 05       		.byte	0x5
 2074 08be 6102     		.2byte	0x261
 2075 08c0 DD080000 		.4byte	0x8dd
 2076 08c4 1A       		.uleb128 0x1a
 2077 08c5 DF050000 		.4byte	.LASF62
 2078 08c9 05       		.byte	0x5
 2079 08ca 7802     		.2byte	0x278
 2080 08cc 13070000 		.4byte	0x713
 2081 08d0 1A       		.uleb128 0x1a
 2082 08d1 79070000 		.4byte	.LASF114
 2083 08d5 05       		.byte	0x5
 2084 08d6 8102     		.2byte	0x281
 2085 08d8 73080000 		.4byte	0x873
 2086 08dc 00       		.byte	0x0
 2087 08dd 08       		.uleb128 0x8
 2088 08de D8050000 		.4byte	0x5d8
 2089 08e2 ED080000 		.4byte	0x8ed
 2090 08e6 09       		.uleb128 0x9
 2091 08e7 4C000000 		.4byte	0x4c
 2092 08eb 18       		.byte	0x18
 2093 08ec 00       		.byte	0x0
 2094 08ed 1B       		.uleb128 0x1b
 2095 08ee 01       		.byte	0x1
 2096 08ef F9080000 		.4byte	0x8f9
 2097 08f3 13       		.uleb128 0x13
 2098 08f4 6E040000 		.4byte	0x46e
 2099 08f8 00       		.byte	0x0
 2100 08f9 0F       		.uleb128 0xf
 2101 08fa 04       		.byte	0x4
 2102 08fb ED080000 		.4byte	0x8ed
 2103 08ff 0F       		.uleb128 0xf
 2104 0900 04       		.byte	0x4
 2105 0901 67010000 		.4byte	0x167
 2106 0905 1B       		.uleb128 0x1b
 2107 0906 01       		.byte	0x1
 2108 0907 11090000 		.4byte	0x911
 2109 090b 13       		.uleb128 0x13
 2110 090c 45000000 		.4byte	0x45
 2111 0910 00       		.byte	0x0
 2112 0911 0F       		.uleb128 0xf
 2113 0912 04       		.byte	0x4
 2114 0913 17090000 		.4byte	0x917
 2115 0917 0F       		.uleb128 0xf
 2116 0918 04       		.byte	0x4
 2117 0919 05090000 		.4byte	0x905
 2118 091d 08       		.uleb128 0x8
 2119 091e 75060000 		.4byte	0x675
 2120 0922 2D090000 		.4byte	0x92d
 2121 0926 09       		.uleb128 0x9
 2122 0927 4C000000 		.4byte	0x4c
 2123 092b 02       		.byte	0x2
 2124 092c 00       		.byte	0x0
 2125 092d 04       		.uleb128 0x4
 2126 092e 46070000 		.4byte	.LASF115
 2127 0932 06       		.byte	0x6
 2128 0933 2A       		.byte	0x2a
ARM GAS  /tmp/ccXWoaLx.s 			page 43


 2129 0934 30000000 		.4byte	0x30
 2130 0938 04       		.uleb128 0x4
 2131 0939 06020000 		.4byte	.LASF116
 2132 093d 06       		.byte	0x6
 2133 093e 36       		.byte	0x36
 2134 093f 3E000000 		.4byte	0x3e
 2135 0943 04       		.uleb128 0x4
 2136 0944 08070000 		.4byte	.LASF117
 2137 0948 06       		.byte	0x6
 2138 0949 50       		.byte	0x50
 2139 094a 01010000 		.4byte	0x101
 2140 094e 1C       		.uleb128 0x1c
 2141 094f 01010000 		.4byte	0x101
 2142 0953 16       		.uleb128 0x16
 2143 0954 4E090000 		.4byte	0x94e
 2144 0958 08       		.uleb128 0x8
 2145 0959 01010000 		.4byte	0x101
 2146 095d 68090000 		.4byte	0x968
 2147 0961 09       		.uleb128 0x9
 2148 0962 4C000000 		.4byte	0x4c
 2149 0966 12       		.byte	0x12
 2150 0967 00       		.byte	0x0
 2151 0968 08       		.uleb128 0x8
 2152 0969 01010000 		.4byte	0x101
 2153 096d 78090000 		.4byte	0x978
 2154 0971 09       		.uleb128 0x9
 2155 0972 4C000000 		.4byte	0x4c
 2156 0976 00       		.byte	0x0
 2157 0977 00       		.byte	0x0
 2158 0978 08       		.uleb128 0x8
 2159 0979 01010000 		.4byte	0x101
 2160 097d 88090000 		.4byte	0x988
 2161 0981 09       		.uleb128 0x9
 2162 0982 4C000000 		.4byte	0x4c
 2163 0986 01       		.byte	0x1
 2164 0987 00       		.byte	0x0
 2165 0988 08       		.uleb128 0x8
 2166 0989 01010000 		.4byte	0x101
 2167 098d 98090000 		.4byte	0x998
 2168 0991 09       		.uleb128 0x9
 2169 0992 4C000000 		.4byte	0x4c
 2170 0996 04       		.byte	0x4
 2171 0997 00       		.byte	0x0
 2172 0998 1D       		.uleb128 0x1d
 2173 0999 9001     		.2byte	0x190
 2174 099b 07       		.byte	0x7
 2175 099c E006     		.2byte	0x6e0
 2176 099e 450E0000 		.4byte	0xe45
 2177 09a2 15       		.uleb128 0x15
 2178 09a3 E2020000 		.4byte	.LASF118
 2179 09a7 07       		.byte	0x7
 2180 09a8 E106     		.2byte	0x6e1
 2181 09aa 4E090000 		.4byte	0x94e
 2182 09ae 02       		.byte	0x2
 2183 09af 23       		.byte	0x23
 2184 09b0 00       		.uleb128 0x0
 2185 09b1 15       		.uleb128 0x15
ARM GAS  /tmp/ccXWoaLx.s 			page 44


 2186 09b2 9C010000 		.4byte	.LASF119
 2187 09b6 07       		.byte	0x7
 2188 09b7 E206     		.2byte	0x6e2
 2189 09b9 4E090000 		.4byte	0x94e
 2190 09bd 02       		.byte	0x2
 2191 09be 23       		.byte	0x23
 2192 09bf 04       		.uleb128 0x4
 2193 09c0 15       		.uleb128 0x15
 2194 09c1 2A010000 		.4byte	.LASF120
 2195 09c5 07       		.byte	0x7
 2196 09c6 E306     		.2byte	0x6e3
 2197 09c8 53090000 		.4byte	0x953
 2198 09cc 02       		.byte	0x2
 2199 09cd 23       		.byte	0x23
 2200 09ce 08       		.uleb128 0x8
 2201 09cf 15       		.uleb128 0x15
 2202 09d0 32010000 		.4byte	.LASF121
 2203 09d4 07       		.byte	0x7
 2204 09d5 E406     		.2byte	0x6e4
 2205 09d7 450E0000 		.4byte	0xe45
 2206 09db 02       		.byte	0x2
 2207 09dc 23       		.byte	0x23
 2208 09dd 0C       		.uleb128 0xc
 2209 09de 15       		.uleb128 0x15
 2210 09df 44040000 		.4byte	.LASF122
 2211 09e3 07       		.byte	0x7
 2212 09e4 E506     		.2byte	0x6e5
 2213 09e6 4E090000 		.4byte	0x94e
 2214 09ea 02       		.byte	0x2
 2215 09eb 23       		.byte	0x23
 2216 09ec 10       		.uleb128 0x10
 2217 09ed 15       		.uleb128 0x15
 2218 09ee 38030000 		.4byte	.LASF123
 2219 09f2 07       		.byte	0x7
 2220 09f3 E606     		.2byte	0x6e6
 2221 09f5 4E090000 		.4byte	0x94e
 2222 09f9 02       		.byte	0x2
 2223 09fa 23       		.byte	0x23
 2224 09fb 14       		.uleb128 0x14
 2225 09fc 15       		.uleb128 0x15
 2226 09fd 01030000 		.4byte	.LASF124
 2227 0a01 07       		.byte	0x7
 2228 0a02 E706     		.2byte	0x6e7
 2229 0a04 53090000 		.4byte	0x953
 2230 0a08 02       		.byte	0x2
 2231 0a09 23       		.byte	0x23
 2232 0a0a 18       		.uleb128 0x18
 2233 0a0b 15       		.uleb128 0x15
 2234 0a0c 3C010000 		.4byte	.LASF125
 2235 0a10 07       		.byte	0x7
 2236 0a11 E806     		.2byte	0x6e8
 2237 0a13 4A0E0000 		.4byte	0xe4a
 2238 0a17 02       		.byte	0x2
 2239 0a18 23       		.byte	0x23
 2240 0a19 1C       		.uleb128 0x1c
 2241 0a1a 15       		.uleb128 0x15
 2242 0a1b 80040000 		.4byte	.LASF126
ARM GAS  /tmp/ccXWoaLx.s 			page 45


 2243 0a1f 07       		.byte	0x7
 2244 0a20 E906     		.2byte	0x6e9
 2245 0a22 4E090000 		.4byte	0x94e
 2246 0a26 02       		.byte	0x2
 2247 0a27 23       		.byte	0x23
 2248 0a28 20       		.uleb128 0x20
 2249 0a29 15       		.uleb128 0x15
 2250 0a2a 71050000 		.4byte	.LASF127
 2251 0a2e 07       		.byte	0x7
 2252 0a2f EA06     		.2byte	0x6ea
 2253 0a31 4E090000 		.4byte	0x94e
 2254 0a35 02       		.byte	0x2
 2255 0a36 23       		.byte	0x23
 2256 0a37 24       		.uleb128 0x24
 2257 0a38 15       		.uleb128 0x15
 2258 0a39 3E050000 		.4byte	.LASF128
 2259 0a3d 07       		.byte	0x7
 2260 0a3e EB06     		.2byte	0x6eb
 2261 0a40 53090000 		.4byte	0x953
 2262 0a44 02       		.byte	0x2
 2263 0a45 23       		.byte	0x23
 2264 0a46 28       		.uleb128 0x28
 2265 0a47 15       		.uleb128 0x15
 2266 0a48 46010000 		.4byte	.LASF129
 2267 0a4c 07       		.byte	0x7
 2268 0a4d EC06     		.2byte	0x6ec
 2269 0a4f 4F0E0000 		.4byte	0xe4f
 2270 0a53 02       		.byte	0x2
 2271 0a54 23       		.byte	0x23
 2272 0a55 2C       		.uleb128 0x2c
 2273 0a56 15       		.uleb128 0x15
 2274 0a57 C2070000 		.4byte	.LASF130
 2275 0a5b 07       		.byte	0x7
 2276 0a5c ED06     		.2byte	0x6ed
 2277 0a5e 4E090000 		.4byte	0x94e
 2278 0a62 02       		.byte	0x2
 2279 0a63 23       		.byte	0x23
 2280 0a64 30       		.uleb128 0x30
 2281 0a65 15       		.uleb128 0x15
 2282 0a66 8D050000 		.4byte	.LASF131
 2283 0a6a 07       		.byte	0x7
 2284 0a6b EE06     		.2byte	0x6ee
 2285 0a6d 4E090000 		.4byte	0x94e
 2286 0a71 02       		.byte	0x2
 2287 0a72 23       		.byte	0x23
 2288 0a73 34       		.uleb128 0x34
 2289 0a74 15       		.uleb128 0x15
 2290 0a75 AB040000 		.4byte	.LASF132
 2291 0a79 07       		.byte	0x7
 2292 0a7a EF06     		.2byte	0x6ef
 2293 0a7c 4E090000 		.4byte	0x94e
 2294 0a80 02       		.byte	0x2
 2295 0a81 23       		.byte	0x23
 2296 0a82 38       		.uleb128 0x38
 2297 0a83 15       		.uleb128 0x15
 2298 0a84 2A020000 		.4byte	.LASF133
 2299 0a88 07       		.byte	0x7
ARM GAS  /tmp/ccXWoaLx.s 			page 46


 2300 0a89 F006     		.2byte	0x6f0
 2301 0a8b 53090000 		.4byte	0x953
 2302 0a8f 02       		.byte	0x2
 2303 0a90 23       		.byte	0x23
 2304 0a91 3C       		.uleb128 0x3c
 2305 0a92 15       		.uleb128 0x15
 2306 0a93 DB040000 		.4byte	.LASF134
 2307 0a97 07       		.byte	0x7
 2308 0a98 F106     		.2byte	0x6f1
 2309 0a9a 4E090000 		.4byte	0x94e
 2310 0a9e 02       		.byte	0x2
 2311 0a9f 23       		.byte	0x23
 2312 0aa0 40       		.uleb128 0x40
 2313 0aa1 15       		.uleb128 0x15
 2314 0aa2 E2030000 		.4byte	.LASF135
 2315 0aa6 07       		.byte	0x7
 2316 0aa7 F206     		.2byte	0x6f2
 2317 0aa9 4E090000 		.4byte	0x94e
 2318 0aad 02       		.byte	0x2
 2319 0aae 23       		.byte	0x23
 2320 0aaf 44       		.uleb128 0x44
 2321 0ab0 15       		.uleb128 0x15
 2322 0ab1 9E050000 		.4byte	.LASF136
 2323 0ab5 07       		.byte	0x7
 2324 0ab6 F306     		.2byte	0x6f3
 2325 0ab8 53090000 		.4byte	0x953
 2326 0abc 02       		.byte	0x2
 2327 0abd 23       		.byte	0x23
 2328 0abe 48       		.uleb128 0x48
 2329 0abf 15       		.uleb128 0x15
 2330 0ac0 33020000 		.4byte	.LASF137
 2331 0ac4 07       		.byte	0x7
 2332 0ac5 F406     		.2byte	0x6f4
 2333 0ac7 53090000 		.4byte	0x953
 2334 0acb 02       		.byte	0x2
 2335 0acc 23       		.byte	0x23
 2336 0acd 4C       		.uleb128 0x4c
 2337 0ace 15       		.uleb128 0x15
 2338 0acf F4050000 		.4byte	.LASF138
 2339 0ad3 07       		.byte	0x7
 2340 0ad4 F506     		.2byte	0x6f5
 2341 0ad6 4E090000 		.4byte	0x94e
 2342 0ada 02       		.byte	0x2
 2343 0adb 23       		.byte	0x23
 2344 0adc 50       		.uleb128 0x50
 2345 0add 15       		.uleb128 0x15
 2346 0ade ED040000 		.4byte	.LASF139
 2347 0ae2 07       		.byte	0x7
 2348 0ae3 F606     		.2byte	0x6f6
 2349 0ae5 4E090000 		.4byte	0x94e
 2350 0ae9 02       		.byte	0x2
 2351 0aea 23       		.byte	0x23
 2352 0aeb 54       		.uleb128 0x54
 2353 0aec 15       		.uleb128 0x15
 2354 0aed B4040000 		.4byte	.LASF140
 2355 0af1 07       		.byte	0x7
 2356 0af2 F706     		.2byte	0x6f7
ARM GAS  /tmp/ccXWoaLx.s 			page 47


 2357 0af4 53090000 		.4byte	0x953
 2358 0af8 02       		.byte	0x2
 2359 0af9 23       		.byte	0x23
 2360 0afa 58       		.uleb128 0x58
 2361 0afb 15       		.uleb128 0x15
 2362 0afc 50010000 		.4byte	.LASF141
 2363 0b00 07       		.byte	0x7
 2364 0b01 F806     		.2byte	0x6f8
 2365 0b03 540E0000 		.4byte	0xe54
 2366 0b07 02       		.byte	0x2
 2367 0b08 23       		.byte	0x23
 2368 0b09 5C       		.uleb128 0x5c
 2369 0b0a 15       		.uleb128 0x15
 2370 0b0b B5010000 		.4byte	.LASF142
 2371 0b0f 07       		.byte	0x7
 2372 0b10 F906     		.2byte	0x6f9
 2373 0b12 4E090000 		.4byte	0x94e
 2374 0b16 02       		.byte	0x2
 2375 0b17 23       		.byte	0x23
 2376 0b18 60       		.uleb128 0x60
 2377 0b19 15       		.uleb128 0x15
 2378 0b1a 64040000 		.4byte	.LASF143
 2379 0b1e 07       		.byte	0x7
 2380 0b1f FA06     		.2byte	0x6fa
 2381 0b21 4E090000 		.4byte	0x94e
 2382 0b25 02       		.byte	0x2
 2383 0b26 23       		.byte	0x23
 2384 0b27 64       		.uleb128 0x64
 2385 0b28 15       		.uleb128 0x15
 2386 0b29 D7000000 		.4byte	.LASF144
 2387 0b2d 07       		.byte	0x7
 2388 0b2e FB06     		.2byte	0x6fb
 2389 0b30 53090000 		.4byte	0x953
 2390 0b34 02       		.byte	0x2
 2391 0b35 23       		.byte	0x23
 2392 0b36 68       		.uleb128 0x68
 2393 0b37 15       		.uleb128 0x15
 2394 0b38 55030000 		.4byte	.LASF145
 2395 0b3c 07       		.byte	0x7
 2396 0b3d FC06     		.2byte	0x6fc
 2397 0b3f 590E0000 		.4byte	0xe59
 2398 0b43 02       		.byte	0x2
 2399 0b44 23       		.byte	0x23
 2400 0b45 6C       		.uleb128 0x6c
 2401 0b46 15       		.uleb128 0x15
 2402 0b47 6E020000 		.4byte	.LASF146
 2403 0b4b 07       		.byte	0x7
 2404 0b4c FD06     		.2byte	0x6fd
 2405 0b4e 5E0E0000 		.4byte	0xe5e
 2406 0b52 02       		.byte	0x2
 2407 0b53 23       		.byte	0x23
 2408 0b54 70       		.uleb128 0x70
 2409 0b55 15       		.uleb128 0x15
 2410 0b56 5F030000 		.4byte	.LASF147
 2411 0b5a 07       		.byte	0x7
 2412 0b5b FE06     		.2byte	0x6fe
 2413 0b5d 630E0000 		.4byte	0xe63
ARM GAS  /tmp/ccXWoaLx.s 			page 48


 2414 0b61 02       		.byte	0x2
 2415 0b62 23       		.byte	0x23
 2416 0b63 78       		.uleb128 0x78
 2417 0b64 15       		.uleb128 0x15
 2418 0b65 CB070000 		.4byte	.LASF148
 2419 0b69 07       		.byte	0x7
 2420 0b6a FF06     		.2byte	0x6ff
 2421 0b6c 4E090000 		.4byte	0x94e
 2422 0b70 03       		.byte	0x3
 2423 0b71 23       		.byte	0x23
 2424 0b72 8001     		.uleb128 0x80
 2425 0b74 15       		.uleb128 0x15
 2426 0b75 86070000 		.4byte	.LASF149
 2427 0b79 07       		.byte	0x7
 2428 0b7a 0007     		.2byte	0x700
 2429 0b7c 4E090000 		.4byte	0x94e
 2430 0b80 03       		.byte	0x3
 2431 0b81 23       		.byte	0x23
 2432 0b82 8401     		.uleb128 0x84
 2433 0b84 15       		.uleb128 0x15
 2434 0b85 5A060000 		.4byte	.LASF150
 2435 0b89 07       		.byte	0x7
 2436 0b8a 0107     		.2byte	0x701
 2437 0b8c 53090000 		.4byte	0x953
 2438 0b90 03       		.byte	0x3
 2439 0b91 23       		.byte	0x23
 2440 0b92 8801     		.uleb128 0x88
 2441 0b94 15       		.uleb128 0x15
 2442 0b95 CE000000 		.4byte	.LASF151
 2443 0b99 07       		.byte	0x7
 2444 0b9a 0207     		.2byte	0x702
 2445 0b9c 4E090000 		.4byte	0x94e
 2446 0ba0 03       		.byte	0x3
 2447 0ba1 23       		.byte	0x23
 2448 0ba2 8C01     		.uleb128 0x8c
 2449 0ba4 15       		.uleb128 0x15
 2450 0ba5 CC040000 		.4byte	.LASF152
 2451 0ba9 07       		.byte	0x7
 2452 0baa 0307     		.2byte	0x703
 2453 0bac 4E090000 		.4byte	0x94e
 2454 0bb0 03       		.byte	0x3
 2455 0bb1 23       		.byte	0x23
 2456 0bb2 9001     		.uleb128 0x90
 2457 0bb4 15       		.uleb128 0x15
 2458 0bb5 CD050000 		.4byte	.LASF153
 2459 0bb9 07       		.byte	0x7
 2460 0bba 0407     		.2byte	0x704
 2461 0bbc 4E090000 		.4byte	0x94e
 2462 0bc0 03       		.byte	0x3
 2463 0bc1 23       		.byte	0x23
 2464 0bc2 9401     		.uleb128 0x94
 2465 0bc4 15       		.uleb128 0x15
 2466 0bc5 6D040000 		.4byte	.LASF154
 2467 0bc9 07       		.byte	0x7
 2468 0bca 0507     		.2byte	0x705
 2469 0bcc 53090000 		.4byte	0x953
 2470 0bd0 03       		.byte	0x3
ARM GAS  /tmp/ccXWoaLx.s 			page 49


 2471 0bd1 23       		.byte	0x23
 2472 0bd2 9801     		.uleb128 0x98
 2473 0bd4 15       		.uleb128 0x15
 2474 0bd5 6D010000 		.4byte	.LASF155
 2475 0bd9 07       		.byte	0x7
 2476 0bda 0607     		.2byte	0x706
 2477 0bdc 680E0000 		.4byte	0xe68
 2478 0be0 03       		.byte	0x3
 2479 0be1 23       		.byte	0x23
 2480 0be2 9C01     		.uleb128 0x9c
 2481 0be4 15       		.uleb128 0x15
 2482 0be5 6E000000 		.4byte	.LASF156
 2483 0be9 07       		.byte	0x7
 2484 0bea 0707     		.2byte	0x707
 2485 0bec 4E090000 		.4byte	0x94e
 2486 0bf0 03       		.byte	0x3
 2487 0bf1 23       		.byte	0x23
 2488 0bf2 A001     		.uleb128 0xa0
 2489 0bf4 15       		.uleb128 0x15
 2490 0bf5 B4070000 		.4byte	.LASF157
 2491 0bf9 07       		.byte	0x7
 2492 0bfa 0807     		.2byte	0x708
 2493 0bfc 4E090000 		.4byte	0x94e
 2494 0c00 03       		.byte	0x3
 2495 0c01 23       		.byte	0x23
 2496 0c02 A401     		.uleb128 0xa4
 2497 0c04 15       		.uleb128 0x15
 2498 0c05 6A070000 		.4byte	.LASF158
 2499 0c09 07       		.byte	0x7
 2500 0c0a 0907     		.2byte	0x709
 2501 0c0c 53090000 		.4byte	0x953
 2502 0c10 03       		.byte	0x3
 2503 0c11 23       		.byte	0x23
 2504 0c12 A801     		.uleb128 0xa8
 2505 0c14 15       		.uleb128 0x15
 2506 0c15 7C030000 		.4byte	.LASF159
 2507 0c19 07       		.byte	0x7
 2508 0c1a 0A07     		.2byte	0x70a
 2509 0c1c 6D0E0000 		.4byte	0xe6d
 2510 0c20 03       		.byte	0x3
 2511 0c21 23       		.byte	0x23
 2512 0c22 AC01     		.uleb128 0xac
 2513 0c24 15       		.uleb128 0x15
 2514 0c25 C7030000 		.4byte	.LASF160
 2515 0c29 07       		.byte	0x7
 2516 0c2a 0B07     		.2byte	0x70b
 2517 0c2c 4E090000 		.4byte	0x94e
 2518 0c30 03       		.byte	0x3
 2519 0c31 23       		.byte	0x23
 2520 0c32 B001     		.uleb128 0xb0
 2521 0c34 15       		.uleb128 0x15
 2522 0c35 3D060000 		.4byte	.LASF161
 2523 0c39 07       		.byte	0x7
 2524 0c3a 0C07     		.2byte	0x70c
 2525 0c3c 4E090000 		.4byte	0x94e
 2526 0c40 03       		.byte	0x3
 2527 0c41 23       		.byte	0x23
ARM GAS  /tmp/ccXWoaLx.s 			page 50


 2528 0c42 B401     		.uleb128 0xb4
 2529 0c44 15       		.uleb128 0x15
 2530 0c45 02040000 		.4byte	.LASF162
 2531 0c49 07       		.byte	0x7
 2532 0c4a 0D07     		.2byte	0x70d
 2533 0c4c 53090000 		.4byte	0x953
 2534 0c50 03       		.byte	0x3
 2535 0c51 23       		.byte	0x23
 2536 0c52 B801     		.uleb128 0xb8
 2537 0c54 15       		.uleb128 0x15
 2538 0c55 83010000 		.4byte	.LASF163
 2539 0c59 07       		.byte	0x7
 2540 0c5a 0E07     		.2byte	0x70e
 2541 0c5c 720E0000 		.4byte	0xe72
 2542 0c60 03       		.byte	0x3
 2543 0c61 23       		.byte	0x23
 2544 0c62 BC01     		.uleb128 0xbc
 2545 0c64 15       		.uleb128 0x15
 2546 0c65 11010000 		.4byte	.LASF164
 2547 0c69 07       		.byte	0x7
 2548 0c6a 0F07     		.2byte	0x70f
 2549 0c6c 4E090000 		.4byte	0x94e
 2550 0c70 03       		.byte	0x3
 2551 0c71 23       		.byte	0x23
 2552 0c72 C001     		.uleb128 0xc0
 2553 0c74 15       		.uleb128 0x15
 2554 0c75 79020000 		.4byte	.LASF165
 2555 0c79 07       		.byte	0x7
 2556 0c7a 1007     		.2byte	0x710
 2557 0c7c 4E090000 		.4byte	0x94e
 2558 0c80 03       		.byte	0x3
 2559 0c81 23       		.byte	0x23
 2560 0c82 C401     		.uleb128 0xc4
 2561 0c84 15       		.uleb128 0x15
 2562 0c85 16000000 		.4byte	.LASF166
 2563 0c89 07       		.byte	0x7
 2564 0c8a 1107     		.2byte	0x711
 2565 0c8c 53090000 		.4byte	0x953
 2566 0c90 03       		.byte	0x3
 2567 0c91 23       		.byte	0x23
 2568 0c92 C801     		.uleb128 0xc8
 2569 0c94 15       		.uleb128 0x15
 2570 0c95 1F010000 		.4byte	.LASF167
 2571 0c99 07       		.byte	0x7
 2572 0c9a 1207     		.2byte	0x712
 2573 0c9c 770E0000 		.4byte	0xe77
 2574 0ca0 03       		.byte	0x3
 2575 0ca1 23       		.byte	0x23
 2576 0ca2 CC01     		.uleb128 0xcc
 2577 0ca4 15       		.uleb128 0x15
 2578 0ca5 11050000 		.4byte	.LASF168
 2579 0ca9 07       		.byte	0x7
 2580 0caa 1307     		.2byte	0x713
 2581 0cac 4E090000 		.4byte	0x94e
 2582 0cb0 03       		.byte	0x3
 2583 0cb1 23       		.byte	0x23
 2584 0cb2 D001     		.uleb128 0xd0
ARM GAS  /tmp/ccXWoaLx.s 			page 51


 2585 0cb4 15       		.uleb128 0x15
 2586 0cb5 05060000 		.4byte	.LASF169
 2587 0cb9 07       		.byte	0x7
 2588 0cba 1407     		.2byte	0x714
 2589 0cbc 4E090000 		.4byte	0x94e
 2590 0cc0 03       		.byte	0x3
 2591 0cc1 23       		.byte	0x23
 2592 0cc2 D401     		.uleb128 0xd4
 2593 0cc4 15       		.uleb128 0x15
 2594 0cc5 CF060000 		.4byte	.LASF170
 2595 0cc9 07       		.byte	0x7
 2596 0cca 1507     		.2byte	0x715
 2597 0ccc 53090000 		.4byte	0x953
 2598 0cd0 03       		.byte	0x3
 2599 0cd1 23       		.byte	0x23
 2600 0cd2 D801     		.uleb128 0xd8
 2601 0cd4 15       		.uleb128 0x15
 2602 0cd5 9D020000 		.4byte	.LASF171
 2603 0cd9 07       		.byte	0x7
 2604 0cda 1607     		.2byte	0x716
 2605 0cdc 7C0E0000 		.4byte	0xe7c
 2606 0ce0 03       		.byte	0x3
 2607 0ce1 23       		.byte	0x23
 2608 0ce2 DC01     		.uleb128 0xdc
 2609 0ce4 15       		.uleb128 0x15
 2610 0ce5 B5030000 		.4byte	.LASF172
 2611 0ce9 07       		.byte	0x7
 2612 0cea 1707     		.2byte	0x717
 2613 0cec 53090000 		.4byte	0x953
 2614 0cf0 03       		.byte	0x3
 2615 0cf1 23       		.byte	0x23
 2616 0cf2 E001     		.uleb128 0xe0
 2617 0cf4 15       		.uleb128 0x15
 2618 0cf5 54040000 		.4byte	.LASF173
 2619 0cf9 07       		.byte	0x7
 2620 0cfa 1807     		.2byte	0x718
 2621 0cfc 4E090000 		.4byte	0x94e
 2622 0d00 03       		.byte	0x3
 2623 0d01 23       		.byte	0x23
 2624 0d02 E401     		.uleb128 0xe4
 2625 0d04 15       		.uleb128 0x15
 2626 0d05 CE020000 		.4byte	.LASF174
 2627 0d09 07       		.byte	0x7
 2628 0d0a 1907     		.2byte	0x719
 2629 0d0c 53090000 		.4byte	0x953
 2630 0d10 03       		.byte	0x3
 2631 0d11 23       		.byte	0x23
 2632 0d12 E801     		.uleb128 0xe8
 2633 0d14 15       		.uleb128 0x15
 2634 0d15 A8020000 		.4byte	.LASF175
 2635 0d19 07       		.byte	0x7
 2636 0d1a 1A07     		.2byte	0x71a
 2637 0d1c 810E0000 		.4byte	0xe81
 2638 0d20 03       		.byte	0x3
 2639 0d21 23       		.byte	0x23
 2640 0d22 EC01     		.uleb128 0xec
 2641 0d24 15       		.uleb128 0x15
ARM GAS  /tmp/ccXWoaLx.s 			page 52


 2642 0d25 4B000000 		.4byte	.LASF176
 2643 0d29 07       		.byte	0x7
 2644 0d2a 1B07     		.2byte	0x71b
 2645 0d2c 4E090000 		.4byte	0x94e
 2646 0d30 03       		.byte	0x3
 2647 0d31 23       		.byte	0x23
 2648 0d32 8002     		.uleb128 0x100
 2649 0d34 15       		.uleb128 0x15
 2650 0d35 B3020000 		.4byte	.LASF177
 2651 0d39 07       		.byte	0x7
 2652 0d3a 1C07     		.2byte	0x71c
 2653 0d3c 860E0000 		.4byte	0xe86
 2654 0d40 03       		.byte	0x3
 2655 0d41 23       		.byte	0x23
 2656 0d42 8402     		.uleb128 0x104
 2657 0d44 15       		.uleb128 0x15
 2658 0d45 DB010000 		.4byte	.LASF178
 2659 0d49 07       		.byte	0x7
 2660 0d4a 1D07     		.2byte	0x71d
 2661 0d4c 4E090000 		.4byte	0x94e
 2662 0d50 03       		.byte	0x3
 2663 0d51 23       		.byte	0x23
 2664 0d52 D002     		.uleb128 0x150
 2665 0d54 15       		.uleb128 0x15
 2666 0d55 18020000 		.4byte	.LASF179
 2667 0d59 07       		.byte	0x7
 2668 0d5a 1E07     		.2byte	0x71e
 2669 0d5c 4E090000 		.4byte	0x94e
 2670 0d60 03       		.byte	0x3
 2671 0d61 23       		.byte	0x23
 2672 0d62 D402     		.uleb128 0x154
 2673 0d64 15       		.uleb128 0x15
 2674 0d65 A8000000 		.4byte	.LASF180
 2675 0d69 07       		.byte	0x7
 2676 0d6a 1F07     		.2byte	0x71f
 2677 0d6c 4E090000 		.4byte	0x94e
 2678 0d70 03       		.byte	0x3
 2679 0d71 23       		.byte	0x23
 2680 0d72 D802     		.uleb128 0x158
 2681 0d74 15       		.uleb128 0x15
 2682 0d75 EE010000 		.4byte	.LASF181
 2683 0d79 07       		.byte	0x7
 2684 0d7a 2007     		.2byte	0x720
 2685 0d7c 53090000 		.4byte	0x953
 2686 0d80 03       		.byte	0x3
 2687 0d81 23       		.byte	0x23
 2688 0d82 DC02     		.uleb128 0x15c
 2689 0d84 15       		.uleb128 0x15
 2690 0d85 6F060000 		.4byte	.LASF182
 2691 0d89 07       		.byte	0x7
 2692 0d8a 2107     		.2byte	0x721
 2693 0d8c 53090000 		.4byte	0x953
 2694 0d90 03       		.byte	0x3
 2695 0d91 23       		.byte	0x23
 2696 0d92 E002     		.uleb128 0x160
 2697 0d94 15       		.uleb128 0x15
 2698 0d95 0C000000 		.4byte	.LASF183
ARM GAS  /tmp/ccXWoaLx.s 			page 53


 2699 0d99 07       		.byte	0x7
 2700 0d9a 2207     		.2byte	0x722
 2701 0d9c 53090000 		.4byte	0x953
 2702 0da0 03       		.byte	0x3
 2703 0da1 23       		.byte	0x23
 2704 0da2 E402     		.uleb128 0x164
 2705 0da4 15       		.uleb128 0x15
 2706 0da5 9F030000 		.4byte	.LASF184
 2707 0da9 07       		.byte	0x7
 2708 0daa 2307     		.2byte	0x723
 2709 0dac 4E090000 		.4byte	0x94e
 2710 0db0 03       		.byte	0x3
 2711 0db1 23       		.byte	0x23
 2712 0db2 E802     		.uleb128 0x168
 2713 0db4 15       		.uleb128 0x15
 2714 0db5 96050000 		.4byte	.LASF185
 2715 0db9 07       		.byte	0x7
 2716 0dba 2407     		.2byte	0x724
 2717 0dbc 4E090000 		.4byte	0x94e
 2718 0dc0 03       		.byte	0x3
 2719 0dc1 23       		.byte	0x23
 2720 0dc2 EC02     		.uleb128 0x16c
 2721 0dc4 15       		.uleb128 0x15
 2722 0dc5 3A000000 		.4byte	.LASF186
 2723 0dc9 07       		.byte	0x7
 2724 0dca 2507     		.2byte	0x725
 2725 0dcc 4E090000 		.4byte	0x94e
 2726 0dd0 03       		.byte	0x3
 2727 0dd1 23       		.byte	0x23
 2728 0dd2 F002     		.uleb128 0x170
 2729 0dd4 15       		.uleb128 0x15
 2730 0dd5 F1020000 		.4byte	.LASF187
 2731 0dd9 07       		.byte	0x7
 2732 0dda 2607     		.2byte	0x726
 2733 0ddc 4E090000 		.4byte	0x94e
 2734 0de0 03       		.byte	0x3
 2735 0de1 23       		.byte	0x23
 2736 0de2 F402     		.uleb128 0x174
 2737 0de4 15       		.uleb128 0x15
 2738 0de5 97060000 		.4byte	.LASF188
 2739 0de9 07       		.byte	0x7
 2740 0dea 2707     		.2byte	0x727
 2741 0dec 4E090000 		.4byte	0x94e
 2742 0df0 03       		.byte	0x3
 2743 0df1 23       		.byte	0x23
 2744 0df2 F802     		.uleb128 0x178
 2745 0df4 15       		.uleb128 0x15
 2746 0df5 B8000000 		.4byte	.LASF189
 2747 0df9 07       		.byte	0x7
 2748 0dfa 2807     		.2byte	0x728
 2749 0dfc 4E090000 		.4byte	0x94e
 2750 0e00 03       		.byte	0x3
 2751 0e01 23       		.byte	0x23
 2752 0e02 FC02     		.uleb128 0x17c
 2753 0e04 15       		.uleb128 0x15
 2754 0e05 F6040000 		.4byte	.LASF190
 2755 0e09 07       		.byte	0x7
ARM GAS  /tmp/ccXWoaLx.s 			page 54


 2756 0e0a 2907     		.2byte	0x729
 2757 0e0c 4E090000 		.4byte	0x94e
 2758 0e10 03       		.byte	0x3
 2759 0e11 23       		.byte	0x23
 2760 0e12 8003     		.uleb128 0x180
 2761 0e14 15       		.uleb128 0x15
 2762 0e15 3D070000 		.4byte	.LASF191
 2763 0e19 07       		.byte	0x7
 2764 0e1a 2A07     		.2byte	0x72a
 2765 0e1c 4E090000 		.4byte	0x94e
 2766 0e20 03       		.byte	0x3
 2767 0e21 23       		.byte	0x23
 2768 0e22 8403     		.uleb128 0x184
 2769 0e24 15       		.uleb128 0x15
 2770 0e25 0F020000 		.4byte	.LASF192
 2771 0e29 07       		.byte	0x7
 2772 0e2a 2B07     		.2byte	0x72b
 2773 0e2c 4E090000 		.4byte	0x94e
 2774 0e30 03       		.byte	0x3
 2775 0e31 23       		.byte	0x23
 2776 0e32 8803     		.uleb128 0x188
 2777 0e34 15       		.uleb128 0x15
 2778 0e35 23030000 		.4byte	.LASF193
 2779 0e39 07       		.byte	0x7
 2780 0e3a 2C07     		.2byte	0x72c
 2781 0e3c 53090000 		.4byte	0x953
 2782 0e40 03       		.byte	0x3
 2783 0e41 23       		.byte	0x23
 2784 0e42 8C03     		.uleb128 0x18c
 2785 0e44 00       		.byte	0x0
 2786 0e45 1C       		.uleb128 0x1c
 2787 0e46 68090000 		.4byte	0x968
 2788 0e4a 1C       		.uleb128 0x1c
 2789 0e4b 68090000 		.4byte	0x968
 2790 0e4f 1C       		.uleb128 0x1c
 2791 0e50 68090000 		.4byte	0x968
 2792 0e54 1C       		.uleb128 0x1c
 2793 0e55 68090000 		.4byte	0x968
 2794 0e59 1C       		.uleb128 0x1c
 2795 0e5a 68090000 		.4byte	0x968
 2796 0e5e 1C       		.uleb128 0x1c
 2797 0e5f 78090000 		.4byte	0x978
 2798 0e63 1C       		.uleb128 0x1c
 2799 0e64 78090000 		.4byte	0x978
 2800 0e68 1C       		.uleb128 0x1c
 2801 0e69 68090000 		.4byte	0x968
 2802 0e6d 1C       		.uleb128 0x1c
 2803 0e6e 68090000 		.4byte	0x968
 2804 0e72 1C       		.uleb128 0x1c
 2805 0e73 68090000 		.4byte	0x968
 2806 0e77 1C       		.uleb128 0x1c
 2807 0e78 68090000 		.4byte	0x968
 2808 0e7c 1C       		.uleb128 0x1c
 2809 0e7d 68090000 		.4byte	0x968
 2810 0e81 1C       		.uleb128 0x1c
 2811 0e82 88090000 		.4byte	0x988
 2812 0e86 1C       		.uleb128 0x1c
ARM GAS  /tmp/ccXWoaLx.s 			page 55


 2813 0e87 58090000 		.4byte	0x958
 2814 0e8b 1E       		.uleb128 0x1e
 2815 0e8c 50696F00 		.ascii	"Pio\000"
 2816 0e90 07       		.byte	0x7
 2817 0e91 2D07     		.2byte	0x72d
 2818 0e93 98090000 		.4byte	0x998
 2819 0e97 18       		.uleb128 0x18
 2820 0e98 0C       		.byte	0xc
 2821 0e99 07       		.byte	0x7
 2822 0e9a 7C19     		.2byte	0x197c
 2823 0e9c CE0E0000 		.4byte	0xece
 2824 0ea0 15       		.uleb128 0x15
 2825 0ea1 0A010000 		.4byte	.LASF194
 2826 0ea5 07       		.byte	0x7
 2827 0ea6 7D19     		.2byte	0x197d
 2828 0ea8 4E090000 		.4byte	0x94e
 2829 0eac 02       		.byte	0x2
 2830 0ead 23       		.byte	0x23
 2831 0eae 00       		.uleb128 0x0
 2832 0eaf 15       		.uleb128 0x15
 2833 0eb0 EA030000 		.4byte	.LASF195
 2834 0eb4 07       		.byte	0x7
 2835 0eb5 7E19     		.2byte	0x197e
 2836 0eb7 4E090000 		.4byte	0x94e
 2837 0ebb 02       		.byte	0x2
 2838 0ebc 23       		.byte	0x23
 2839 0ebd 04       		.uleb128 0x4
 2840 0ebe 15       		.uleb128 0x15
 2841 0ebf 3B020000 		.4byte	.LASF196
 2842 0ec3 07       		.byte	0x7
 2843 0ec4 7F19     		.2byte	0x197f
 2844 0ec6 53090000 		.4byte	0x953
 2845 0eca 02       		.byte	0x2
 2846 0ecb 23       		.byte	0x23
 2847 0ecc 08       		.uleb128 0x8
 2848 0ecd 00       		.byte	0x0
 2849 0ece 1E       		.uleb128 0x1e
 2850 0ecf 57647400 		.ascii	"Wdt\000"
 2851 0ed3 07       		.byte	0x7
 2852 0ed4 8019     		.2byte	0x1980
 2853 0ed6 970E0000 		.4byte	0xe97
 2854 0eda 0D       		.uleb128 0xd
 2855 0edb D6040000 		.4byte	.LASF197
 2856 0edf 0C       		.byte	0xc
 2857 0ee0 08       		.byte	0x8
 2858 0ee1 A7       		.byte	0xa7
 2859 0ee2 2C0F0000 		.4byte	0xf2c
 2860 0ee6 0B       		.uleb128 0xb
 2861 0ee7 86020000 		.4byte	.LASF198
 2862 0eeb 08       		.byte	0x8
 2863 0eec AA       		.byte	0xaa
 2864 0eed 43090000 		.4byte	0x943
 2865 0ef1 02       		.byte	0x2
 2866 0ef2 23       		.byte	0x23
 2867 0ef3 00       		.uleb128 0x0
 2868 0ef4 0E       		.uleb128 0xe
 2869 0ef5 70696F00 		.ascii	"pio\000"
ARM GAS  /tmp/ccXWoaLx.s 			page 56


 2870 0ef9 08       		.byte	0x8
 2871 0efa AC       		.byte	0xac
 2872 0efb 2C0F0000 		.4byte	0xf2c
 2873 0eff 02       		.byte	0x2
 2874 0f00 23       		.byte	0x23
 2875 0f01 04       		.uleb128 0x4
 2876 0f02 0E       		.uleb128 0xe
 2877 0f03 696400   		.ascii	"id\000"
 2878 0f06 08       		.byte	0x8
 2879 0f07 AE       		.byte	0xae
 2880 0f08 2D090000 		.4byte	0x92d
 2881 0f0c 02       		.byte	0x2
 2882 0f0d 23       		.byte	0x23
 2883 0f0e 08       		.uleb128 0x8
 2884 0f0f 0B       		.uleb128 0xb
 2885 0f10 69000000 		.4byte	.LASF199
 2886 0f14 08       		.byte	0x8
 2887 0f15 B0       		.byte	0xb0
 2888 0f16 2D090000 		.4byte	0x92d
 2889 0f1a 02       		.byte	0x2
 2890 0f1b 23       		.byte	0x23
 2891 0f1c 09       		.uleb128 0x9
 2892 0f1d 0B       		.uleb128 0xb
 2893 0f1e 26050000 		.4byte	.LASF200
 2894 0f22 08       		.byte	0x8
 2895 0f23 B2       		.byte	0xb2
 2896 0f24 2D090000 		.4byte	0x92d
 2897 0f28 02       		.byte	0x2
 2898 0f29 23       		.byte	0x23
 2899 0f2a 0A       		.uleb128 0xa
 2900 0f2b 00       		.byte	0x0
 2901 0f2c 0F       		.uleb128 0xf
 2902 0f2d 04       		.byte	0x4
 2903 0f2e 8B0E0000 		.4byte	0xe8b
 2904 0f32 1F       		.uleb128 0x1f
 2905 0f33 50696E00 		.ascii	"Pin\000"
 2906 0f37 08       		.byte	0x8
 2907 0f38 B3       		.byte	0xb3
 2908 0f39 DA0E0000 		.4byte	0xeda
 2909 0f3d 20       		.uleb128 0x20
 2910 0f3e 01       		.byte	0x1
 2911 0f3f E9070000 		.4byte	.LASF209
 2912 0f43 01       		.byte	0x1
 2913 0f44 1F       		.byte	0x1f
 2914 0f45 45000000 		.4byte	0x45
 2915 0f49 00000000 		.4byte	.LFB35
 2916 0f4d 10030000 		.4byte	.LFE35
 2917 0f51 00000000 		.4byte	.LLST0
 2918 0f55 AF0F0000 		.4byte	0xfaf
 2919 0f59 21       		.uleb128 0x21
 2920 0f5a 7400     		.ascii	"t\000"
 2921 0f5c 01       		.byte	0x1
 2922 0f5d 21       		.byte	0x21
 2923 0f5e 45000000 		.4byte	0x45
 2924 0f62 02       		.byte	0x2
 2925 0f63 91       		.byte	0x91
 2926 0f64 6C       		.sleb128 -20
ARM GAS  /tmp/ccXWoaLx.s 			page 57


 2927 0f65 22       		.uleb128 0x22
 2928 0f66 81070000 		.4byte	.LASF201
 2929 0f6a 01       		.byte	0x1
 2930 0f6b 22       		.byte	0x22
 2931 0f6c 45000000 		.4byte	0x45
 2932 0f70 02       		.byte	0x2
 2933 0f71 91       		.byte	0x91
 2934 0f72 68       		.sleb128 -24
 2935 0f73 22       		.uleb128 0x22
 2936 0f74 16070000 		.4byte	.LASF202
 2937 0f78 01       		.byte	0x1
 2938 0f79 23       		.byte	0x23
 2939 0f7a AF0F0000 		.4byte	0xfaf
 2940 0f7e 02       		.byte	0x2
 2941 0f7f 91       		.byte	0x91
 2942 0f80 5C       		.sleb128 -36
 2943 0f81 22       		.uleb128 0x22
 2944 0f82 81060000 		.4byte	.LASF203
 2945 0f86 01       		.byte	0x1
 2946 0f87 24       		.byte	0x24
 2947 0f88 BF0F0000 		.4byte	0xfbf
 2948 0f8c 03       		.byte	0x3
 2949 0f8d 91       		.byte	0x91
 2950 0f8e BC7F     		.sleb128 -68
 2951 0f90 21       		.uleb128 0x21
 2952 0f91 636D6400 		.ascii	"cmd\000"
 2953 0f95 01       		.byte	0x1
 2954 0f96 25       		.byte	0x25
 2955 0f97 D8050000 		.4byte	0x5d8
 2956 0f9b 03       		.byte	0x3
 2957 0f9c 91       		.byte	0x91
 2958 0f9d BB7F     		.sleb128 -69
 2959 0f9f 22       		.uleb128 0x22
 2960 0fa0 74030000 		.4byte	.LASF204
 2961 0fa4 01       		.byte	0x1
 2962 0fa5 26       		.byte	0x26
 2963 0fa6 DF0F0000 		.4byte	0xfdf
 2964 0faa 03       		.byte	0x3
 2965 0fab 91       		.byte	0x91
 2966 0fac A07F     		.sleb128 -96
 2967 0fae 00       		.byte	0x0
 2968 0faf 08       		.uleb128 0x8
 2969 0fb0 45000000 		.4byte	0x45
 2970 0fb4 BF0F0000 		.4byte	0xfbf
 2971 0fb8 09       		.uleb128 0x9
 2972 0fb9 4C000000 		.4byte	0x4c
 2973 0fbd 02       		.byte	0x2
 2974 0fbe 00       		.byte	0x0
 2975 0fbf 08       		.uleb128 0x8
 2976 0fc0 D8050000 		.4byte	0x5d8
 2977 0fc4 CF0F0000 		.4byte	0xfcf
 2978 0fc8 09       		.uleb128 0x9
 2979 0fc9 4C000000 		.4byte	0x4c
 2980 0fcd 1F       		.byte	0x1f
 2981 0fce 00       		.byte	0x0
 2982 0fcf 08       		.uleb128 0x8
 2983 0fd0 320F0000 		.4byte	0xf32
ARM GAS  /tmp/ccXWoaLx.s 			page 58


 2984 0fd4 DF0F0000 		.4byte	0xfdf
 2985 0fd8 09       		.uleb128 0x9
 2986 0fd9 4C000000 		.4byte	0x4c
 2987 0fdd 01       		.byte	0x1
 2988 0fde 00       		.byte	0x0
 2989 0fdf 16       		.uleb128 0x16
 2990 0fe0 CF0F0000 		.4byte	0xfcf
 2991 0fe4 23       		.uleb128 0x23
 2992 0fe5 01       		.byte	0x1
 2993 0fe6 F5070000 		.4byte	.LASF205
 2994 0fea 01       		.byte	0x1
 2995 0feb 7B       		.byte	0x7b
 2996 0fec 00000000 		.4byte	.LFB36
 2997 0ff0 46000000 		.4byte	.LFE36
 2998 0ff4 3A000000 		.4byte	.LLST1
 2999 0ff8 17100000 		.4byte	0x1017
 3000 0ffc 21       		.uleb128 0x21
 3001 0ffd 707200   		.ascii	"pr\000"
 3002 1000 01       		.byte	0x1
 3003 1001 7D       		.byte	0x7d
 3004 1002 17100000 		.4byte	0x1017
 3005 1006 02       		.byte	0x2
 3006 1007 91       		.byte	0x91
 3007 1008 64       		.sleb128 -28
 3008 1009 21       		.uleb128 0x21
 3009 100a 766E00   		.ascii	"vn\000"
 3010 100d 01       		.byte	0x1
 3011 100e 7E       		.byte	0x7e
 3012 100f 17100000 		.4byte	0x1017
 3013 1013 02       		.byte	0x2
 3014 1014 91       		.byte	0x91
 3015 1015 58       		.sleb128 -40
 3016 1016 00       		.byte	0x0
 3017 1017 16       		.uleb128 0x16
 3018 1018 320F0000 		.4byte	0xf32
 3019 101c 23       		.uleb128 0x23
 3020 101d 01       		.byte	0x1
 3021 101e 86060000 		.4byte	.LASF206
 3022 1022 01       		.byte	0x1
 3023 1023 82       		.byte	0x82
 3024 1024 00000000 		.4byte	.LFB37
 3025 1028 2E000000 		.4byte	.LFE37
 3026 102c 72000000 		.4byte	.LLST2
 3027 1030 43100000 		.4byte	0x1043
 3028 1034 22       		.uleb128 0x22
 3029 1035 11070000 		.4byte	.LASF207
 3030 1039 01       		.byte	0x1
 3031 103a 84       		.byte	0x84
 3032 103b 43100000 		.4byte	0x1043
 3033 103f 02       		.byte	0x2
 3034 1040 91       		.byte	0x91
 3035 1041 58       		.sleb128 -40
 3036 1042 00       		.byte	0x0
 3037 1043 16       		.uleb128 0x16
 3038 1044 CF0F0000 		.4byte	0xfcf
 3039 1048 23       		.uleb128 0x23
 3040 1049 01       		.byte	0x1
ARM GAS  /tmp/ccXWoaLx.s 			page 59


 3041 104a 46030000 		.4byte	.LASF208
 3042 104e 01       		.byte	0x1
 3043 104f 88       		.byte	0x88
 3044 1050 00000000 		.4byte	.LFB38
 3045 1054 46000000 		.4byte	.LFE38
 3046 1058 AA000000 		.4byte	.LLST3
 3047 105c 7B100000 		.4byte	0x107b
 3048 1060 21       		.uleb128 0x21
 3049 1061 707200   		.ascii	"pr\000"
 3050 1064 01       		.byte	0x1
 3051 1065 8A       		.byte	0x8a
 3052 1066 17100000 		.4byte	0x1017
 3053 106a 02       		.byte	0x2
 3054 106b 91       		.byte	0x91
 3055 106c 64       		.sleb128 -28
 3056 106d 21       		.uleb128 0x21
 3057 106e 766E00   		.ascii	"vn\000"
 3058 1071 01       		.byte	0x1
 3059 1072 8B       		.byte	0x8b
 3060 1073 17100000 		.4byte	0x1017
 3061 1077 02       		.byte	0x2
 3062 1078 91       		.byte	0x91
 3063 1079 58       		.sleb128 -40
 3064 107a 00       		.byte	0x0
 3065 107b 24       		.uleb128 0x24
 3066 107c 01       		.byte	0x1
 3067 107d 32030000 		.4byte	.LASF210
 3068 1081 01       		.byte	0x1
 3069 1082 8F       		.byte	0x8f
 3070 1083 01       		.byte	0x1
 3071 1084 00000000 		.4byte	.LFB39
 3072 1088 F0000000 		.4byte	.LFE39
 3073 108c E2000000 		.4byte	.LLST4
 3074 1090 A3100000 		.4byte	0x10a3
 3075 1094 25       		.uleb128 0x25
 3076 1095 6E657700 		.ascii	"new\000"
 3077 1099 01       		.byte	0x1
 3078 109a 8F       		.byte	0x8f
 3079 109b 2D090000 		.4byte	0x92d
 3080 109f 02       		.byte	0x2
 3081 10a0 91       		.byte	0x91
 3082 10a1 77       		.sleb128 -9
 3083 10a2 00       		.byte	0x0
 3084 10a3 26       		.uleb128 0x26
 3085 10a4 91020000 		.4byte	.LASF211
 3086 10a8 05       		.byte	0x5
 3087 10a9 3203     		.2byte	0x332
 3088 10ab 6E040000 		.4byte	0x46e
 3089 10af 01       		.byte	0x1
 3090 10b0 01       		.byte	0x1
 3091 10b1 26       		.uleb128 0x26
 3092 10b2 C1000000 		.4byte	.LASF212
 3093 10b6 09       		.byte	0x9
 3094 10b7 CE06     		.2byte	0x6ce
 3095 10b9 BF100000 		.4byte	0x10bf
 3096 10bd 01       		.byte	0x1
 3097 10be 01       		.byte	0x1
ARM GAS  /tmp/ccXWoaLx.s 			page 60


 3098 10bf 1C       		.uleb128 0x1c
 3099 10c0 45000000 		.4byte	0x45
 3100 10c4 27       		.uleb128 0x27
 3101 10c5 8D010000 		.4byte	.LASF213
 3102 10c9 01       		.byte	0x1
 3103 10ca 12       		.byte	0x12
 3104 10cb 2D090000 		.4byte	0x92d
 3105 10cf 01       		.byte	0x1
 3106 10d0 01       		.byte	0x1
 3107 10d1 08       		.uleb128 0x8
 3108 10d2 38090000 		.4byte	0x938
 3109 10d6 E1100000 		.4byte	0x10e1
 3110 10da 09       		.uleb128 0x9
 3111 10db 4C000000 		.4byte	0x4c
 3112 10df 02       		.byte	0x2
 3113 10e0 00       		.byte	0x0
 3114 10e1 27       		.uleb128 0x27
 3115 10e2 C4040000 		.4byte	.LASF214
 3116 10e6 01       		.byte	0x1
 3117 10e7 14       		.byte	0x14
 3118 10e8 D1100000 		.4byte	0x10d1
 3119 10ec 01       		.byte	0x1
 3120 10ed 01       		.byte	0x1
 3121 10ee 27       		.uleb128 0x27
 3122 10ef 57000000 		.4byte	.LASF215
 3123 10f3 01       		.byte	0x1
 3124 10f4 15       		.byte	0x15
 3125 10f5 D1100000 		.4byte	0x10d1
 3126 10f9 01       		.byte	0x1
 3127 10fa 01       		.byte	0x1
 3128 10fb 26       		.uleb128 0x26
 3129 10fc 91020000 		.4byte	.LASF211
 3130 1100 05       		.byte	0x5
 3131 1101 3203     		.2byte	0x332
 3132 1103 6E040000 		.4byte	0x46e
 3133 1107 01       		.byte	0x1
 3134 1108 01       		.byte	0x1
 3135 1109 26       		.uleb128 0x26
 3136 110a C1000000 		.4byte	.LASF212
 3137 110e 09       		.byte	0x9
 3138 110f CE06     		.2byte	0x6ce
 3139 1111 BF100000 		.4byte	0x10bf
 3140 1115 01       		.byte	0x1
 3141 1116 01       		.byte	0x1
 3142 1117 28       		.uleb128 0x28
 3143 1118 8D010000 		.4byte	.LASF213
 3144 111c 01       		.byte	0x1
 3145 111d 12       		.byte	0x12
 3146 111e 2D090000 		.4byte	0x92d
 3147 1122 01       		.byte	0x1
 3148 1123 05       		.byte	0x5
 3149 1124 03       		.byte	0x3
 3150 1125 00000000 		.4byte	_state
 3151 1129 27       		.uleb128 0x27
 3152 112a C4040000 		.4byte	.LASF214
 3153 112e 01       		.byte	0x1
 3154 112f 14       		.byte	0x14
ARM GAS  /tmp/ccXWoaLx.s 			page 61


 3155 1130 D1100000 		.4byte	0x10d1
 3156 1134 01       		.byte	0x1
 3157 1135 01       		.byte	0x1
 3158 1136 27       		.uleb128 0x27
 3159 1137 57000000 		.4byte	.LASF215
 3160 113b 01       		.byte	0x1
 3161 113c 15       		.byte	0x15
 3162 113d D1100000 		.4byte	0x10d1
 3163 1141 01       		.byte	0x1
 3164 1142 01       		.byte	0x1
 3165 1143 00       		.byte	0x0
 3166              		.section	.debug_abbrev
 3167 0000 01       		.uleb128 0x1
 3168 0001 11       		.uleb128 0x11
 3169 0002 01       		.byte	0x1
 3170 0003 25       		.uleb128 0x25
 3171 0004 0E       		.uleb128 0xe
 3172 0005 13       		.uleb128 0x13
 3173 0006 0B       		.uleb128 0xb
 3174 0007 03       		.uleb128 0x3
 3175 0008 0E       		.uleb128 0xe
 3176 0009 1B       		.uleb128 0x1b
 3177 000a 0E       		.uleb128 0xe
 3178 000b 11       		.uleb128 0x11
 3179 000c 01       		.uleb128 0x1
 3180 000d 52       		.uleb128 0x52
 3181 000e 01       		.uleb128 0x1
 3182 000f 55       		.uleb128 0x55
 3183 0010 06       		.uleb128 0x6
 3184 0011 10       		.uleb128 0x10
 3185 0012 06       		.uleb128 0x6
 3186 0013 00       		.byte	0x0
 3187 0014 00       		.byte	0x0
 3188 0015 02       		.uleb128 0x2
 3189 0016 24       		.uleb128 0x24
 3190 0017 00       		.byte	0x0
 3191 0018 0B       		.uleb128 0xb
 3192 0019 0B       		.uleb128 0xb
 3193 001a 3E       		.uleb128 0x3e
 3194 001b 0B       		.uleb128 0xb
 3195 001c 03       		.uleb128 0x3
 3196 001d 0E       		.uleb128 0xe
 3197 001e 00       		.byte	0x0
 3198 001f 00       		.byte	0x0
 3199 0020 03       		.uleb128 0x3
 3200 0021 24       		.uleb128 0x24
 3201 0022 00       		.byte	0x0
 3202 0023 0B       		.uleb128 0xb
 3203 0024 0B       		.uleb128 0xb
 3204 0025 3E       		.uleb128 0x3e
 3205 0026 0B       		.uleb128 0xb
 3206 0027 03       		.uleb128 0x3
 3207 0028 08       		.uleb128 0x8
 3208 0029 00       		.byte	0x0
 3209 002a 00       		.byte	0x0
 3210 002b 04       		.uleb128 0x4
 3211 002c 16       		.uleb128 0x16
ARM GAS  /tmp/ccXWoaLx.s 			page 62


 3212 002d 00       		.byte	0x0
 3213 002e 03       		.uleb128 0x3
 3214 002f 0E       		.uleb128 0xe
 3215 0030 3A       		.uleb128 0x3a
 3216 0031 0B       		.uleb128 0xb
 3217 0032 3B       		.uleb128 0x3b
 3218 0033 0B       		.uleb128 0xb
 3219 0034 49       		.uleb128 0x49
 3220 0035 13       		.uleb128 0x13
 3221 0036 00       		.byte	0x0
 3222 0037 00       		.byte	0x0
 3223 0038 05       		.uleb128 0x5
 3224 0039 16       		.uleb128 0x16
 3225 003a 00       		.byte	0x0
 3226 003b 03       		.uleb128 0x3
 3227 003c 0E       		.uleb128 0xe
 3228 003d 3A       		.uleb128 0x3a
 3229 003e 0B       		.uleb128 0xb
 3230 003f 3B       		.uleb128 0x3b
 3231 0040 05       		.uleb128 0x5
 3232 0041 49       		.uleb128 0x49
 3233 0042 13       		.uleb128 0x13
 3234 0043 00       		.byte	0x0
 3235 0044 00       		.byte	0x0
 3236 0045 06       		.uleb128 0x6
 3237 0046 17       		.uleb128 0x17
 3238 0047 01       		.byte	0x1
 3239 0048 0B       		.uleb128 0xb
 3240 0049 0B       		.uleb128 0xb
 3241 004a 3A       		.uleb128 0x3a
 3242 004b 0B       		.uleb128 0xb
 3243 004c 3B       		.uleb128 0x3b
 3244 004d 0B       		.uleb128 0xb
 3245 004e 01       		.uleb128 0x1
 3246 004f 13       		.uleb128 0x13
 3247 0050 00       		.byte	0x0
 3248 0051 00       		.byte	0x0
 3249 0052 07       		.uleb128 0x7
 3250 0053 0D       		.uleb128 0xd
 3251 0054 00       		.byte	0x0
 3252 0055 03       		.uleb128 0x3
 3253 0056 0E       		.uleb128 0xe
 3254 0057 3A       		.uleb128 0x3a
 3255 0058 0B       		.uleb128 0xb
 3256 0059 3B       		.uleb128 0x3b
 3257 005a 0B       		.uleb128 0xb
 3258 005b 49       		.uleb128 0x49
 3259 005c 13       		.uleb128 0x13
 3260 005d 00       		.byte	0x0
 3261 005e 00       		.byte	0x0
 3262 005f 08       		.uleb128 0x8
 3263 0060 01       		.uleb128 0x1
 3264 0061 01       		.byte	0x1
 3265 0062 49       		.uleb128 0x49
 3266 0063 13       		.uleb128 0x13
 3267 0064 01       		.uleb128 0x1
 3268 0065 13       		.uleb128 0x13
ARM GAS  /tmp/ccXWoaLx.s 			page 63


 3269 0066 00       		.byte	0x0
 3270 0067 00       		.byte	0x0
 3271 0068 09       		.uleb128 0x9
 3272 0069 21       		.uleb128 0x21
 3273 006a 00       		.byte	0x0
 3274 006b 49       		.uleb128 0x49
 3275 006c 13       		.uleb128 0x13
 3276 006d 2F       		.uleb128 0x2f
 3277 006e 0B       		.uleb128 0xb
 3278 006f 00       		.byte	0x0
 3279 0070 00       		.byte	0x0
 3280 0071 0A       		.uleb128 0xa
 3281 0072 13       		.uleb128 0x13
 3282 0073 01       		.byte	0x1
 3283 0074 0B       		.uleb128 0xb
 3284 0075 0B       		.uleb128 0xb
 3285 0076 3A       		.uleb128 0x3a
 3286 0077 0B       		.uleb128 0xb
 3287 0078 3B       		.uleb128 0x3b
 3288 0079 0B       		.uleb128 0xb
 3289 007a 01       		.uleb128 0x1
 3290 007b 13       		.uleb128 0x13
 3291 007c 00       		.byte	0x0
 3292 007d 00       		.byte	0x0
 3293 007e 0B       		.uleb128 0xb
 3294 007f 0D       		.uleb128 0xd
 3295 0080 00       		.byte	0x0
 3296 0081 03       		.uleb128 0x3
 3297 0082 0E       		.uleb128 0xe
 3298 0083 3A       		.uleb128 0x3a
 3299 0084 0B       		.uleb128 0xb
 3300 0085 3B       		.uleb128 0x3b
 3301 0086 0B       		.uleb128 0xb
 3302 0087 49       		.uleb128 0x49
 3303 0088 13       		.uleb128 0x13
 3304 0089 38       		.uleb128 0x38
 3305 008a 0A       		.uleb128 0xa
 3306 008b 00       		.byte	0x0
 3307 008c 00       		.byte	0x0
 3308 008d 0C       		.uleb128 0xc
 3309 008e 0F       		.uleb128 0xf
 3310 008f 00       		.byte	0x0
 3311 0090 0B       		.uleb128 0xb
 3312 0091 0B       		.uleb128 0xb
 3313 0092 00       		.byte	0x0
 3314 0093 00       		.byte	0x0
 3315 0094 0D       		.uleb128 0xd
 3316 0095 13       		.uleb128 0x13
 3317 0096 01       		.byte	0x1
 3318 0097 03       		.uleb128 0x3
 3319 0098 0E       		.uleb128 0xe
 3320 0099 0B       		.uleb128 0xb
 3321 009a 0B       		.uleb128 0xb
 3322 009b 3A       		.uleb128 0x3a
 3323 009c 0B       		.uleb128 0xb
 3324 009d 3B       		.uleb128 0x3b
 3325 009e 0B       		.uleb128 0xb
ARM GAS  /tmp/ccXWoaLx.s 			page 64


 3326 009f 01       		.uleb128 0x1
 3327 00a0 13       		.uleb128 0x13
 3328 00a1 00       		.byte	0x0
 3329 00a2 00       		.byte	0x0
 3330 00a3 0E       		.uleb128 0xe
 3331 00a4 0D       		.uleb128 0xd
 3332 00a5 00       		.byte	0x0
 3333 00a6 03       		.uleb128 0x3
 3334 00a7 08       		.uleb128 0x8
 3335 00a8 3A       		.uleb128 0x3a
 3336 00a9 0B       		.uleb128 0xb
 3337 00aa 3B       		.uleb128 0x3b
 3338 00ab 0B       		.uleb128 0xb
 3339 00ac 49       		.uleb128 0x49
 3340 00ad 13       		.uleb128 0x13
 3341 00ae 38       		.uleb128 0x38
 3342 00af 0A       		.uleb128 0xa
 3343 00b0 00       		.byte	0x0
 3344 00b1 00       		.byte	0x0
 3345 00b2 0F       		.uleb128 0xf
 3346 00b3 0F       		.uleb128 0xf
 3347 00b4 00       		.byte	0x0
 3348 00b5 0B       		.uleb128 0xb
 3349 00b6 0B       		.uleb128 0xb
 3350 00b7 49       		.uleb128 0x49
 3351 00b8 13       		.uleb128 0x13
 3352 00b9 00       		.byte	0x0
 3353 00ba 00       		.byte	0x0
 3354 00bb 10       		.uleb128 0x10
 3355 00bc 13       		.uleb128 0x13
 3356 00bd 01       		.byte	0x1
 3357 00be 03       		.uleb128 0x3
 3358 00bf 0E       		.uleb128 0xe
 3359 00c0 0B       		.uleb128 0xb
 3360 00c1 05       		.uleb128 0x5
 3361 00c2 3A       		.uleb128 0x3a
 3362 00c3 0B       		.uleb128 0xb
 3363 00c4 3B       		.uleb128 0x3b
 3364 00c5 0B       		.uleb128 0xb
 3365 00c6 01       		.uleb128 0x1
 3366 00c7 13       		.uleb128 0x13
 3367 00c8 00       		.byte	0x0
 3368 00c9 00       		.byte	0x0
 3369 00ca 11       		.uleb128 0x11
 3370 00cb 15       		.uleb128 0x15
 3371 00cc 00       		.byte	0x0
 3372 00cd 27       		.uleb128 0x27
 3373 00ce 0C       		.uleb128 0xc
 3374 00cf 00       		.byte	0x0
 3375 00d0 00       		.byte	0x0
 3376 00d1 12       		.uleb128 0x12
 3377 00d2 15       		.uleb128 0x15
 3378 00d3 01       		.byte	0x1
 3379 00d4 27       		.uleb128 0x27
 3380 00d5 0C       		.uleb128 0xc
 3381 00d6 49       		.uleb128 0x49
 3382 00d7 13       		.uleb128 0x13
ARM GAS  /tmp/ccXWoaLx.s 			page 65


 3383 00d8 01       		.uleb128 0x1
 3384 00d9 13       		.uleb128 0x13
 3385 00da 00       		.byte	0x0
 3386 00db 00       		.byte	0x0
 3387 00dc 13       		.uleb128 0x13
 3388 00dd 05       		.uleb128 0x5
 3389 00de 00       		.byte	0x0
 3390 00df 49       		.uleb128 0x49
 3391 00e0 13       		.uleb128 0x13
 3392 00e1 00       		.byte	0x0
 3393 00e2 00       		.byte	0x0
 3394 00e3 14       		.uleb128 0x14
 3395 00e4 13       		.uleb128 0x13
 3396 00e5 01       		.byte	0x1
 3397 00e6 03       		.uleb128 0x3
 3398 00e7 0E       		.uleb128 0xe
 3399 00e8 0B       		.uleb128 0xb
 3400 00e9 05       		.uleb128 0x5
 3401 00ea 3A       		.uleb128 0x3a
 3402 00eb 0B       		.uleb128 0xb
 3403 00ec 3B       		.uleb128 0x3b
 3404 00ed 05       		.uleb128 0x5
 3405 00ee 01       		.uleb128 0x1
 3406 00ef 13       		.uleb128 0x13
 3407 00f0 00       		.byte	0x0
 3408 00f1 00       		.byte	0x0
 3409 00f2 15       		.uleb128 0x15
 3410 00f3 0D       		.uleb128 0xd
 3411 00f4 00       		.byte	0x0
 3412 00f5 03       		.uleb128 0x3
 3413 00f6 0E       		.uleb128 0xe
 3414 00f7 3A       		.uleb128 0x3a
 3415 00f8 0B       		.uleb128 0xb
 3416 00f9 3B       		.uleb128 0x3b
 3417 00fa 05       		.uleb128 0x5
 3418 00fb 49       		.uleb128 0x49
 3419 00fc 13       		.uleb128 0x13
 3420 00fd 38       		.uleb128 0x38
 3421 00fe 0A       		.uleb128 0xa
 3422 00ff 00       		.byte	0x0
 3423 0100 00       		.byte	0x0
 3424 0101 16       		.uleb128 0x16
 3425 0102 26       		.uleb128 0x26
 3426 0103 00       		.byte	0x0
 3427 0104 49       		.uleb128 0x49
 3428 0105 13       		.uleb128 0x13
 3429 0106 00       		.byte	0x0
 3430 0107 00       		.byte	0x0
 3431 0108 17       		.uleb128 0x17
 3432 0109 13       		.uleb128 0x13
 3433 010a 01       		.byte	0x1
 3434 010b 03       		.uleb128 0x3
 3435 010c 0E       		.uleb128 0xe
 3436 010d 0B       		.uleb128 0xb
 3437 010e 0B       		.uleb128 0xb
 3438 010f 3A       		.uleb128 0x3a
 3439 0110 0B       		.uleb128 0xb
ARM GAS  /tmp/ccXWoaLx.s 			page 66


 3440 0111 3B       		.uleb128 0x3b
 3441 0112 05       		.uleb128 0x5
 3442 0113 01       		.uleb128 0x1
 3443 0114 13       		.uleb128 0x13
 3444 0115 00       		.byte	0x0
 3445 0116 00       		.byte	0x0
 3446 0117 18       		.uleb128 0x18
 3447 0118 13       		.uleb128 0x13
 3448 0119 01       		.byte	0x1
 3449 011a 0B       		.uleb128 0xb
 3450 011b 0B       		.uleb128 0xb
 3451 011c 3A       		.uleb128 0x3a
 3452 011d 0B       		.uleb128 0xb
 3453 011e 3B       		.uleb128 0x3b
 3454 011f 05       		.uleb128 0x5
 3455 0120 01       		.uleb128 0x1
 3456 0121 13       		.uleb128 0x13
 3457 0122 00       		.byte	0x0
 3458 0123 00       		.byte	0x0
 3459 0124 19       		.uleb128 0x19
 3460 0125 17       		.uleb128 0x17
 3461 0126 01       		.byte	0x1
 3462 0127 0B       		.uleb128 0xb
 3463 0128 0B       		.uleb128 0xb
 3464 0129 3A       		.uleb128 0x3a
 3465 012a 0B       		.uleb128 0xb
 3466 012b 3B       		.uleb128 0x3b
 3467 012c 05       		.uleb128 0x5
 3468 012d 01       		.uleb128 0x1
 3469 012e 13       		.uleb128 0x13
 3470 012f 00       		.byte	0x0
 3471 0130 00       		.byte	0x0
 3472 0131 1A       		.uleb128 0x1a
 3473 0132 0D       		.uleb128 0xd
 3474 0133 00       		.byte	0x0
 3475 0134 03       		.uleb128 0x3
 3476 0135 0E       		.uleb128 0xe
 3477 0136 3A       		.uleb128 0x3a
 3478 0137 0B       		.uleb128 0xb
 3479 0138 3B       		.uleb128 0x3b
 3480 0139 05       		.uleb128 0x5
 3481 013a 49       		.uleb128 0x49
 3482 013b 13       		.uleb128 0x13
 3483 013c 00       		.byte	0x0
 3484 013d 00       		.byte	0x0
 3485 013e 1B       		.uleb128 0x1b
 3486 013f 15       		.uleb128 0x15
 3487 0140 01       		.byte	0x1
 3488 0141 27       		.uleb128 0x27
 3489 0142 0C       		.uleb128 0xc
 3490 0143 01       		.uleb128 0x1
 3491 0144 13       		.uleb128 0x13
 3492 0145 00       		.byte	0x0
 3493 0146 00       		.byte	0x0
 3494 0147 1C       		.uleb128 0x1c
 3495 0148 35       		.uleb128 0x35
 3496 0149 00       		.byte	0x0
ARM GAS  /tmp/ccXWoaLx.s 			page 67


 3497 014a 49       		.uleb128 0x49
 3498 014b 13       		.uleb128 0x13
 3499 014c 00       		.byte	0x0
 3500 014d 00       		.byte	0x0
 3501 014e 1D       		.uleb128 0x1d
 3502 014f 13       		.uleb128 0x13
 3503 0150 01       		.byte	0x1
 3504 0151 0B       		.uleb128 0xb
 3505 0152 05       		.uleb128 0x5
 3506 0153 3A       		.uleb128 0x3a
 3507 0154 0B       		.uleb128 0xb
 3508 0155 3B       		.uleb128 0x3b
 3509 0156 05       		.uleb128 0x5
 3510 0157 01       		.uleb128 0x1
 3511 0158 13       		.uleb128 0x13
 3512 0159 00       		.byte	0x0
 3513 015a 00       		.byte	0x0
 3514 015b 1E       		.uleb128 0x1e
 3515 015c 16       		.uleb128 0x16
 3516 015d 00       		.byte	0x0
 3517 015e 03       		.uleb128 0x3
 3518 015f 08       		.uleb128 0x8
 3519 0160 3A       		.uleb128 0x3a
 3520 0161 0B       		.uleb128 0xb
 3521 0162 3B       		.uleb128 0x3b
 3522 0163 05       		.uleb128 0x5
 3523 0164 49       		.uleb128 0x49
 3524 0165 13       		.uleb128 0x13
 3525 0166 00       		.byte	0x0
 3526 0167 00       		.byte	0x0
 3527 0168 1F       		.uleb128 0x1f
 3528 0169 16       		.uleb128 0x16
 3529 016a 00       		.byte	0x0
 3530 016b 03       		.uleb128 0x3
 3531 016c 08       		.uleb128 0x8
 3532 016d 3A       		.uleb128 0x3a
 3533 016e 0B       		.uleb128 0xb
 3534 016f 3B       		.uleb128 0x3b
 3535 0170 0B       		.uleb128 0xb
 3536 0171 49       		.uleb128 0x49
 3537 0172 13       		.uleb128 0x13
 3538 0173 00       		.byte	0x0
 3539 0174 00       		.byte	0x0
 3540 0175 20       		.uleb128 0x20
 3541 0176 2E       		.uleb128 0x2e
 3542 0177 01       		.byte	0x1
 3543 0178 3F       		.uleb128 0x3f
 3544 0179 0C       		.uleb128 0xc
 3545 017a 03       		.uleb128 0x3
 3546 017b 0E       		.uleb128 0xe
 3547 017c 3A       		.uleb128 0x3a
 3548 017d 0B       		.uleb128 0xb
 3549 017e 3B       		.uleb128 0x3b
 3550 017f 0B       		.uleb128 0xb
 3551 0180 49       		.uleb128 0x49
 3552 0181 13       		.uleb128 0x13
 3553 0182 11       		.uleb128 0x11
ARM GAS  /tmp/ccXWoaLx.s 			page 68


 3554 0183 01       		.uleb128 0x1
 3555 0184 12       		.uleb128 0x12
 3556 0185 01       		.uleb128 0x1
 3557 0186 40       		.uleb128 0x40
 3558 0187 06       		.uleb128 0x6
 3559 0188 01       		.uleb128 0x1
 3560 0189 13       		.uleb128 0x13
 3561 018a 00       		.byte	0x0
 3562 018b 00       		.byte	0x0
 3563 018c 21       		.uleb128 0x21
 3564 018d 34       		.uleb128 0x34
 3565 018e 00       		.byte	0x0
 3566 018f 03       		.uleb128 0x3
 3567 0190 08       		.uleb128 0x8
 3568 0191 3A       		.uleb128 0x3a
 3569 0192 0B       		.uleb128 0xb
 3570 0193 3B       		.uleb128 0x3b
 3571 0194 0B       		.uleb128 0xb
 3572 0195 49       		.uleb128 0x49
 3573 0196 13       		.uleb128 0x13
 3574 0197 02       		.uleb128 0x2
 3575 0198 0A       		.uleb128 0xa
 3576 0199 00       		.byte	0x0
 3577 019a 00       		.byte	0x0
 3578 019b 22       		.uleb128 0x22
 3579 019c 34       		.uleb128 0x34
 3580 019d 00       		.byte	0x0
 3581 019e 03       		.uleb128 0x3
 3582 019f 0E       		.uleb128 0xe
 3583 01a0 3A       		.uleb128 0x3a
 3584 01a1 0B       		.uleb128 0xb
 3585 01a2 3B       		.uleb128 0x3b
 3586 01a3 0B       		.uleb128 0xb
 3587 01a4 49       		.uleb128 0x49
 3588 01a5 13       		.uleb128 0x13
 3589 01a6 02       		.uleb128 0x2
 3590 01a7 0A       		.uleb128 0xa
 3591 01a8 00       		.byte	0x0
 3592 01a9 00       		.byte	0x0
 3593 01aa 23       		.uleb128 0x23
 3594 01ab 2E       		.uleb128 0x2e
 3595 01ac 01       		.byte	0x1
 3596 01ad 3F       		.uleb128 0x3f
 3597 01ae 0C       		.uleb128 0xc
 3598 01af 03       		.uleb128 0x3
 3599 01b0 0E       		.uleb128 0xe
 3600 01b1 3A       		.uleb128 0x3a
 3601 01b2 0B       		.uleb128 0xb
 3602 01b3 3B       		.uleb128 0x3b
 3603 01b4 0B       		.uleb128 0xb
 3604 01b5 11       		.uleb128 0x11
 3605 01b6 01       		.uleb128 0x1
 3606 01b7 12       		.uleb128 0x12
 3607 01b8 01       		.uleb128 0x1
 3608 01b9 40       		.uleb128 0x40
 3609 01ba 06       		.uleb128 0x6
 3610 01bb 01       		.uleb128 0x1
ARM GAS  /tmp/ccXWoaLx.s 			page 69


 3611 01bc 13       		.uleb128 0x13
 3612 01bd 00       		.byte	0x0
 3613 01be 00       		.byte	0x0
 3614 01bf 24       		.uleb128 0x24
 3615 01c0 2E       		.uleb128 0x2e
 3616 01c1 01       		.byte	0x1
 3617 01c2 3F       		.uleb128 0x3f
 3618 01c3 0C       		.uleb128 0xc
 3619 01c4 03       		.uleb128 0x3
 3620 01c5 0E       		.uleb128 0xe
 3621 01c6 3A       		.uleb128 0x3a
 3622 01c7 0B       		.uleb128 0xb
 3623 01c8 3B       		.uleb128 0x3b
 3624 01c9 0B       		.uleb128 0xb
 3625 01ca 27       		.uleb128 0x27
 3626 01cb 0C       		.uleb128 0xc
 3627 01cc 11       		.uleb128 0x11
 3628 01cd 01       		.uleb128 0x1
 3629 01ce 12       		.uleb128 0x12
 3630 01cf 01       		.uleb128 0x1
 3631 01d0 40       		.uleb128 0x40
 3632 01d1 06       		.uleb128 0x6
 3633 01d2 01       		.uleb128 0x1
 3634 01d3 13       		.uleb128 0x13
 3635 01d4 00       		.byte	0x0
 3636 01d5 00       		.byte	0x0
 3637 01d6 25       		.uleb128 0x25
 3638 01d7 05       		.uleb128 0x5
 3639 01d8 00       		.byte	0x0
 3640 01d9 03       		.uleb128 0x3
 3641 01da 08       		.uleb128 0x8
 3642 01db 3A       		.uleb128 0x3a
 3643 01dc 0B       		.uleb128 0xb
 3644 01dd 3B       		.uleb128 0x3b
 3645 01de 0B       		.uleb128 0xb
 3646 01df 49       		.uleb128 0x49
 3647 01e0 13       		.uleb128 0x13
 3648 01e1 02       		.uleb128 0x2
 3649 01e2 0A       		.uleb128 0xa
 3650 01e3 00       		.byte	0x0
 3651 01e4 00       		.byte	0x0
 3652 01e5 26       		.uleb128 0x26
 3653 01e6 34       		.uleb128 0x34
 3654 01e7 00       		.byte	0x0
 3655 01e8 03       		.uleb128 0x3
 3656 01e9 0E       		.uleb128 0xe
 3657 01ea 3A       		.uleb128 0x3a
 3658 01eb 0B       		.uleb128 0xb
 3659 01ec 3B       		.uleb128 0x3b
 3660 01ed 05       		.uleb128 0x5
 3661 01ee 49       		.uleb128 0x49
 3662 01ef 13       		.uleb128 0x13
 3663 01f0 3F       		.uleb128 0x3f
 3664 01f1 0C       		.uleb128 0xc
 3665 01f2 3C       		.uleb128 0x3c
 3666 01f3 0C       		.uleb128 0xc
 3667 01f4 00       		.byte	0x0
ARM GAS  /tmp/ccXWoaLx.s 			page 70


 3668 01f5 00       		.byte	0x0
 3669 01f6 27       		.uleb128 0x27
 3670 01f7 34       		.uleb128 0x34
 3671 01f8 00       		.byte	0x0
 3672 01f9 03       		.uleb128 0x3
 3673 01fa 0E       		.uleb128 0xe
 3674 01fb 3A       		.uleb128 0x3a
 3675 01fc 0B       		.uleb128 0xb
 3676 01fd 3B       		.uleb128 0x3b
 3677 01fe 0B       		.uleb128 0xb
 3678 01ff 49       		.uleb128 0x49
 3679 0200 13       		.uleb128 0x13
 3680 0201 3F       		.uleb128 0x3f
 3681 0202 0C       		.uleb128 0xc
 3682 0203 3C       		.uleb128 0x3c
 3683 0204 0C       		.uleb128 0xc
 3684 0205 00       		.byte	0x0
 3685 0206 00       		.byte	0x0
 3686 0207 28       		.uleb128 0x28
 3687 0208 34       		.uleb128 0x34
 3688 0209 00       		.byte	0x0
 3689 020a 03       		.uleb128 0x3
 3690 020b 0E       		.uleb128 0xe
 3691 020c 3A       		.uleb128 0x3a
 3692 020d 0B       		.uleb128 0xb
 3693 020e 3B       		.uleb128 0x3b
 3694 020f 0B       		.uleb128 0xb
 3695 0210 49       		.uleb128 0x49
 3696 0211 13       		.uleb128 0x13
 3697 0212 3F       		.uleb128 0x3f
 3698 0213 0C       		.uleb128 0xc
 3699 0214 02       		.uleb128 0x2
 3700 0215 0A       		.uleb128 0xa
 3701 0216 00       		.byte	0x0
 3702 0217 00       		.byte	0x0
 3703 0218 00       		.byte	0x0
 3704              		.section	.debug_pubnames,"",%progbits
 3705 0000 51000000 		.4byte	0x51
 3706 0004 0200     		.2byte	0x2
 3707 0006 00000000 		.4byte	.Ldebug_info0
 3708 000a 44110000 		.4byte	0x1144
 3709 000e 3D0F0000 		.4byte	0xf3d
 3710 0012 6D61696E 		.ascii	"main\000"
 3710      00
 3711 0017 E40F0000 		.4byte	0xfe4
 3712 001b 646F5F70 		.ascii	"do_press\000"
 3712      72657373 
 3712      00
 3713 0024 1C100000 		.4byte	0x101c
 3714 0028 646F5F68 		.ascii	"do_hold\000"
 3714      6F6C6400 
 3715 0030 48100000 		.4byte	0x1048
 3716 0034 646F5F76 		.ascii	"do_vent\000"
 3716      656E7400 
 3717 003c 7B100000 		.4byte	0x107b
 3718 0040 656E7465 		.ascii	"enter\000"
 3718      7200
ARM GAS  /tmp/ccXWoaLx.s 			page 71


 3719 0046 17110000 		.4byte	0x1117
 3720 004a 5F737461 		.ascii	"_state\000"
 3720      746500
 3721 0051 00000000 		.4byte	0x0
 3722              		.section	.debug_pubtypes,"",%progbits
 3723 0000 20010000 		.4byte	0x120
 3724 0004 0200     		.2byte	0x2
 3725 0006 00000000 		.4byte	.Ldebug_info0
 3726 000a 44110000 		.4byte	0x1144
 3727 000e 61000000 		.4byte	0x61
 3728 0012 5F4C4F43 		.ascii	"_LOCK_RECURSIVE_T\000"
 3728      4B5F5245 
 3728      43555253 
 3728      4956455F 
 3728      5400
 3729 0024 73000000 		.4byte	0x73
 3730 0028 5F66706F 		.ascii	"_fpos_t\000"
 3730      735F7400 
 3731 0030 7E000000 		.4byte	0x7e
 3732 0034 77696E74 		.ascii	"wint_t\000"
 3732      5F7400
 3733 003b DE000000 		.4byte	0xde
 3734 003f 5F6D6273 		.ascii	"_mbstate_t\000"
 3734      74617465 
 3734      5F7400
 3735 004a E9000000 		.4byte	0xe9
 3736 004e 5F666C6F 		.ascii	"_flock_t\000"
 3736      636B5F74 
 3736      00
 3737 0057 F6000000 		.4byte	0xf6
 3738 005b 5F5F554C 		.ascii	"__ULong\000"
 3738      6F6E6700 
 3739 0063 08010000 		.4byte	0x108
 3740 0067 5F426967 		.ascii	"_Bigint\000"
 3740      696E7400 
 3741 006f 7D010000 		.4byte	0x17d
 3742 0073 5F5F746D 		.ascii	"__tm\000"
 3742      00
 3743 0078 08020000 		.4byte	0x208
 3744 007c 5F6F6E5F 		.ascii	"_on_exit_args\000"
 3744      65786974 
 3744      5F617267 
 3744      7300
 3745 008a 61020000 		.4byte	0x261
 3746 008e 5F617465 		.ascii	"_atexit\000"
 3746      78697400 
 3747 0096 C6020000 		.4byte	0x2c6
 3748 009a 5F5F7362 		.ascii	"__sbuf\000"
 3748      756600
 3749 00a1 F5020000 		.4byte	0x2f5
 3750 00a5 5F5F7346 		.ascii	"__sFILE\000"
 3750      494C4500 
 3751 00ad 75060000 		.4byte	0x675
 3752 00b1 5F5F4649 		.ascii	"__FILE\000"
 3752      4C4500
 3753 00b8 81060000 		.4byte	0x681
 3754 00bc 5F676C75 		.ascii	"_glue\000"
ARM GAS  /tmp/ccXWoaLx.s 			page 72


 3754      6500
 3755 00c2 C8060000 		.4byte	0x6c8
 3756 00c6 5F72616E 		.ascii	"_rand48\000"
 3756      64343800 
 3757 00ce 74040000 		.4byte	0x474
 3758 00d2 5F726565 		.ascii	"_reent\000"
 3758      6E7400
 3759 00d9 2D090000 		.4byte	0x92d
 3760 00dd 75696E74 		.ascii	"uint8_t\000"
 3760      385F7400 
 3761 00e5 38090000 		.4byte	0x938
 3762 00e9 75696E74 		.ascii	"uint16_t\000"
 3762      31365F74 
 3762      00
 3763 00f2 43090000 		.4byte	0x943
 3764 00f6 75696E74 		.ascii	"uint32_t\000"
 3764      33325F74 
 3764      00
 3765 00ff 8B0E0000 		.4byte	0xe8b
 3766 0103 50696F00 		.ascii	"Pio\000"
 3767 0107 CE0E0000 		.4byte	0xece
 3768 010b 57647400 		.ascii	"Wdt\000"
 3769 010f DA0E0000 		.4byte	0xeda
 3770 0113 5F50696E 		.ascii	"_Pin\000"
 3770      00
 3771 0118 320F0000 		.4byte	0xf32
 3772 011c 50696E00 		.ascii	"Pin\000"
 3773 0120 00000000 		.4byte	0x0
 3774              		.section	.debug_aranges,"",%progbits
 3775 0000 3C000000 		.4byte	0x3c
 3776 0004 0200     		.2byte	0x2
 3777 0006 00000000 		.4byte	.Ldebug_info0
 3778 000a 04       		.byte	0x4
 3779 000b 00       		.byte	0x0
 3780 000c 0000     		.2byte	0x0
 3781 000e 0000     		.2byte	0x0
 3782 0010 00000000 		.4byte	.LFB35
 3783 0014 10030000 		.4byte	.LFE35-.LFB35
 3784 0018 00000000 		.4byte	.LFB36
 3785 001c 46000000 		.4byte	.LFE36-.LFB36
 3786 0020 00000000 		.4byte	.LFB37
 3787 0024 2E000000 		.4byte	.LFE37-.LFB37
 3788 0028 00000000 		.4byte	.LFB38
 3789 002c 46000000 		.4byte	.LFE38-.LFB38
 3790 0030 00000000 		.4byte	.LFB39
 3791 0034 F0000000 		.4byte	.LFE39-.LFB39
 3792 0038 00000000 		.4byte	0x0
 3793 003c 00000000 		.4byte	0x0
 3794              		.section	.debug_ranges,"",%progbits
 3795              	.Ldebug_ranges0:
 3796 0000 00000000 		.4byte	.LFB35
 3797 0004 10030000 		.4byte	.LFE35
 3798 0008 00000000 		.4byte	.LFB36
 3799 000c 46000000 		.4byte	.LFE36
 3800 0010 00000000 		.4byte	.LFB37
 3801 0014 2E000000 		.4byte	.LFE37
 3802 0018 00000000 		.4byte	.LFB38
ARM GAS  /tmp/ccXWoaLx.s 			page 73


 3803 001c 46000000 		.4byte	.LFE38
 3804 0020 00000000 		.4byte	.LFB39
 3805 0024 F0000000 		.4byte	.LFE39
 3806 0028 00000000 		.4byte	0x0
 3807 002c 00000000 		.4byte	0x0
 3808              		.section	.debug_str,"MS",%progbits,1
 3809              	.LASF36:
 3810 0000 5F64736F 		.ascii	"_dso_handle\000"
 3810      5F68616E 
 3810      646C6500 
 3811              	.LASF183:
 3812 000c 50494F5F 		.ascii	"PIO_PCRHR\000"
 3812      50435248 
 3812      5200
 3813              	.LASF166:
 3814 0016 50494F5F 		.ascii	"PIO_ELSR\000"
 3814      454C5352 
 3814      00
 3815              	.LASF35:
 3816 001f 5F666E61 		.ascii	"_fnargs\000"
 3816      72677300 
 3817              	.LASF89:
 3818 0027 5F72616E 		.ascii	"_rand48\000"
 3818      64343800 
 3819              	.LASF68:
 3820 002f 5F656D65 		.ascii	"_emergency\000"
 3820      7267656E 
 3820      637900
 3821              	.LASF186:
 3822 003a 50494F5F 		.ascii	"PIO_TPR\000"
 3822      54505200 
 3823              	.LASF60:
 3824 0042 5F6D6273 		.ascii	"_mbstate\000"
 3824      74617465 
 3824      00
 3825              	.LASF176:
 3826 004b 50494F5F 		.ascii	"PIO_SCHMITT\000"
 3826      5343484D 
 3826      49545400 
 3827              	.LASF215:
 3828 0057 70726576 		.ascii	"previous\000"
 3828      696F7573 
 3828      00
 3829              	.LASF80:
 3830 0060 5F617465 		.ascii	"_atexit0\000"
 3830      78697430 
 3830      00
 3831              	.LASF199:
 3832 0069 74797065 		.ascii	"type\000"
 3832      00
 3833              	.LASF156:
 3834 006e 50494F5F 		.ascii	"PIO_OWER\000"
 3834      4F574552 
 3834      00
 3835              	.LASF110:
 3836 0077 5F776373 		.ascii	"_wcsrtombs_state\000"
 3836      72746F6D 
ARM GAS  /tmp/ccXWoaLx.s 			page 74


 3836      62735F73 
 3836      74617465 
 3836      00
 3837              	.LASF6:
 3838 0088 6C6F6E67 		.ascii	"long long unsigned int\000"
 3838      206C6F6E 
 3838      6720756E 
 3838      7369676E 
 3838      65642069 
 3839              	.LASF48:
 3840 009f 5F6C6266 		.ascii	"_lbfsize\000"
 3840      73697A65 
 3840      00
 3841              	.LASF180:
 3842 00a8 50494F5F 		.ascii	"PIO_PCIDR\000"
 3842      50434944 
 3842      5200
 3843              	.LASF43:
 3844 00b2 5F626173 		.ascii	"_base\000"
 3844      6500
 3845              	.LASF189:
 3846 00b8 50494F5F 		.ascii	"PIO_RNCR\000"
 3846      524E4352 
 3846      00
 3847              	.LASF212:
 3848 00c1 49544D5F 		.ascii	"ITM_RxBuffer\000"
 3848      52784275 
 3848      66666572 
 3848      00
 3849              	.LASF151:
 3850 00ce 50494F5F 		.ascii	"PIO_SCDR\000"
 3850      53434452 
 3850      00
 3851              	.LASF144:
 3852 00d7 50494F5F 		.ascii	"PIO_PUSR\000"
 3852      50555352 
 3852      00
 3853              	.LASF102:
 3854 00e0 5F776374 		.ascii	"_wctomb_state\000"
 3854      6F6D625F 
 3854      73746174 
 3854      6500
 3855              	.LASF25:
 3856 00ee 5F5F746D 		.ascii	"__tm_sec\000"
 3856      5F736563 
 3856      00
 3857              	.LASF53:
 3858 00f7 5F636C6F 		.ascii	"_close\000"
 3858      736500
 3859              	.LASF0:
 3860 00fe 7369676E 		.ascii	"signed char\000"
 3860      65642063 
 3860      68617200 
 3861              	.LASF194:
 3862 010a 5744545F 		.ascii	"WDT_CR\000"
 3862      435200
 3863              	.LASF164:
ARM GAS  /tmp/ccXWoaLx.s 			page 75


 3864 0111 50494F5F 		.ascii	"PIO_ESR\000"
 3864      45535200 
 3865              	.LASF54:
 3866 0119 5F756275 		.ascii	"_ubuf\000"
 3866      6600
 3867              	.LASF167:
 3868 011f 52657365 		.ascii	"Reserved10\000"
 3868      72766564 
 3868      313000
 3869              	.LASF120:
 3870 012a 50494F5F 		.ascii	"PIO_PSR\000"
 3870      50535200 
 3871              	.LASF121:
 3872 0132 52657365 		.ascii	"Reserved1\000"
 3872      72766564 
 3872      3100
 3873              	.LASF125:
 3874 013c 52657365 		.ascii	"Reserved2\000"
 3874      72766564 
 3874      3200
 3875              	.LASF129:
 3876 0146 52657365 		.ascii	"Reserved3\000"
 3876      72766564 
 3876      3300
 3877              	.LASF141:
 3878 0150 52657365 		.ascii	"Reserved4\000"
 3878      72766564 
 3878      3400
 3879              	.LASF83:
 3880 015a 5F5F7366 		.ascii	"__sf\000"
 3880      00
 3881              	.LASF34:
 3882 015f 5F6F6E5F 		.ascii	"_on_exit_args\000"
 3882      65786974 
 3882      5F617267 
 3882      7300
 3883              	.LASF155:
 3884 016d 52657365 		.ascii	"Reserved7\000"
 3884      72766564 
 3884      3700
 3885              	.LASF216:
 3886 0177 474E5520 		.ascii	"GNU C 4.5.2\000"
 3886      4320342E 
 3886      352E3200 
 3887              	.LASF163:
 3888 0183 52657365 		.ascii	"Reserved9\000"
 3888      72766564 
 3888      3900
 3889              	.LASF213:
 3890 018d 5F737461 		.ascii	"_state\000"
 3890      746500
 3891              	.LASF49:
 3892 0194 5F636F6F 		.ascii	"_cookie\000"
 3892      6B696500 
 3893              	.LASF119:
 3894 019c 50494F5F 		.ascii	"PIO_PDR\000"
 3894      50445200 
ARM GAS  /tmp/ccXWoaLx.s 			page 76


 3895              	.LASF82:
 3896 01a4 5F5F7367 		.ascii	"__sglue\000"
 3896      6C756500 
 3897              	.LASF7:
 3898 01ac 6C6F6E67 		.ascii	"long int\000"
 3898      20696E74 
 3898      00
 3899              	.LASF142:
 3900 01b5 50494F5F 		.ascii	"PIO_PUDR\000"
 3900      50554452 
 3900      00
 3901              	.LASF46:
 3902 01be 5F666C61 		.ascii	"_flags\000"
 3902      677300
 3903              	.LASF38:
 3904 01c5 5F69735F 		.ascii	"_is_cxa\000"
 3904      63786100 
 3905              	.LASF64:
 3906 01cd 5F737464 		.ascii	"_stdin\000"
 3906      696E00
 3907              	.LASF85:
 3908 01d4 5F5F4649 		.ascii	"__FILE\000"
 3908      4C4500
 3909              	.LASF178:
 3910 01db 50494F5F 		.ascii	"PIO_PCMR\000"
 3910      50434D52 
 3910      00
 3911              	.LASF74:
 3912 01e4 5F726573 		.ascii	"_result_k\000"
 3912      756C745F 
 3912      6B00
 3913              	.LASF181:
 3914 01ee 50494F5F 		.ascii	"PIO_PCIMR\000"
 3914      5043494D 
 3914      5200
 3915              	.LASF5:
 3916 01f8 6C6F6E67 		.ascii	"long long int\000"
 3916      206C6F6E 
 3916      6720696E 
 3916      7400
 3917              	.LASF116:
 3918 0206 75696E74 		.ascii	"uint16_t\000"
 3918      31365F74 
 3918      00
 3919              	.LASF192:
 3920 020f 50494F5F 		.ascii	"PIO_PTCR\000"
 3920      50544352 
 3920      00
 3921              	.LASF179:
 3922 0218 50494F5F 		.ascii	"PIO_PCIER\000"
 3922      50434945 
 3922      5200
 3923              	.LASF78:
 3924 0222 5F637674 		.ascii	"_cvtbuf\000"
 3924      62756600 
 3925              	.LASF133:
 3926 022a 50494F5F 		.ascii	"PIO_PDSR\000"
ARM GAS  /tmp/ccXWoaLx.s 			page 77


 3926      50445352 
 3926      00
 3927              	.LASF137:
 3928 0233 50494F5F 		.ascii	"PIO_ISR\000"
 3928      49535200 
 3929              	.LASF196:
 3930 023b 5744545F 		.ascii	"WDT_SR\000"
 3930      535200
 3931              	.LASF108:
 3932 0242 5F6D6273 		.ascii	"_mbsrtowcs_state\000"
 3932      72746F77 
 3932      63735F73 
 3932      74617465 
 3932      00
 3933              	.LASF94:
 3934 0253 5F737472 		.ascii	"_strtok_last\000"
 3934      746F6B5F 
 3934      6C617374 
 3934      00
 3935              	.LASF106:
 3936 0260 5F6D6272 		.ascii	"_mbrlen_state\000"
 3936      6C656E5F 
 3936      73746174 
 3936      6500
 3937              	.LASF146:
 3938 026e 50494F5F 		.ascii	"PIO_ABCDSR\000"
 3938      41424344 
 3938      535200
 3939              	.LASF165:
 3940 0279 50494F5F 		.ascii	"PIO_LSR\000"
 3940      4C535200 
 3941              	.LASF41:
 3942 0281 5F666E73 		.ascii	"_fns\000"
 3942      00
 3943              	.LASF198:
 3944 0286 6D61736B 		.ascii	"mask\000"
 3944      00
 3945              	.LASF21:
 3946 028b 5F736967 		.ascii	"_sign\000"
 3946      6E00
 3947              	.LASF211:
 3948 0291 5F696D70 		.ascii	"_impure_ptr\000"
 3948      7572655F 
 3948      70747200 
 3949              	.LASF171:
 3950 029d 52657365 		.ascii	"Reserved11\000"
 3950      72766564 
 3950      313100
 3951              	.LASF175:
 3952 02a8 52657365 		.ascii	"Reserved12\000"
 3952      72766564 
 3952      313200
 3953              	.LASF177:
 3954 02b3 52657365 		.ascii	"Reserved13\000"
 3954      72766564 
 3954      313300
 3955              	.LASF19:
ARM GAS  /tmp/ccXWoaLx.s 			page 78


 3956 02be 5F6E6578 		.ascii	"_next\000"
 3956      7400
 3957              	.LASF27:
 3958 02c4 5F5F746D 		.ascii	"__tm_hour\000"
 3958      5F686F75 
 3958      7200
 3959              	.LASF174:
 3960 02ce 50494F5F 		.ascii	"PIO_WPSR\000"
 3960      57505352 
 3960      00
 3961              	.LASF50:
 3962 02d7 5F726561 		.ascii	"_read\000"
 3962      6400
 3963              	.LASF24:
 3964 02dd 5F5F746D 		.ascii	"__tm\000"
 3964      00
 3965              	.LASF118:
 3966 02e2 50494F5F 		.ascii	"PIO_PER\000"
 3966      50455200 
 3967              	.LASF12:
 3968 02ea 5F5F7763 		.ascii	"__wchb\000"
 3968      686200
 3969              	.LASF187:
 3970 02f1 50494F5F 		.ascii	"PIO_TCR\000"
 3970      54435200 
 3971              	.LASF65:
 3972 02f9 5F737464 		.ascii	"_stdout\000"
 3972      6F757400 
 3973              	.LASF124:
 3974 0301 50494F5F 		.ascii	"PIO_OSR\000"
 3974      4F535200 
 3975              	.LASF77:
 3976 0309 5F637674 		.ascii	"_cvtlen\000"
 3976      6C656E00 
 3977              	.LASF18:
 3978 0311 6C6F6E67 		.ascii	"long unsigned int\000"
 3978      20756E73 
 3978      69676E65 
 3978      6420696E 
 3978      7400
 3979              	.LASF193:
 3980 0323 50494F5F 		.ascii	"PIO_PTSR\000"
 3980      50545352 
 3980      00
 3981              	.LASF47:
 3982 032c 5F66696C 		.ascii	"_file\000"
 3982      6500
 3983              	.LASF210:
 3984 0332 656E7465 		.ascii	"enter\000"
 3984      7200
 3985              	.LASF123:
 3986 0338 50494F5F 		.ascii	"PIO_ODR\000"
 3986      4F445200 
 3987              	.LASF58:
 3988 0340 5F646174 		.ascii	"_data\000"
 3988      6100
 3989              	.LASF208:
ARM GAS  /tmp/ccXWoaLx.s 			page 79


 3990 0346 646F5F76 		.ascii	"do_vent\000"
 3990      656E7400 
 3991              	.LASF87:
 3992 034e 5F6E696F 		.ascii	"_niobs\000"
 3992      627300
 3993              	.LASF145:
 3994 0355 52657365 		.ascii	"Reserved5\000"
 3994      72766564 
 3994      3500
 3995              	.LASF147:
 3996 035f 52657365 		.ascii	"Reserved6\000"
 3996      72766564 
 3996      3600
 3997              	.LASF98:
 3998 0369 5F72616E 		.ascii	"_rand_next\000"
 3998      645F6E65 
 3998      787400
 3999              	.LASF204:
 4000 0374 70696E73 		.ascii	"pinsout\000"
 4000      6F757400 
 4001              	.LASF159:
 4002 037c 52657365 		.ascii	"Reserved8\000"
 4002      72766564 
 4002      3800
 4003              	.LASF104:
 4004 0386 5F736967 		.ascii	"_signal_buf\000"
 4004      6E616C5F 
 4004      62756600 
 4005              	.LASF95:
 4006 0392 5F617363 		.ascii	"_asctime_buf\000"
 4006      74696D65 
 4006      5F627566 
 4006      00
 4007              	.LASF184:
 4008 039f 50494F5F 		.ascii	"PIO_RPR\000"
 4008      52505200 
 4009              	.LASF73:
 4010 03a7 5F726573 		.ascii	"_result\000"
 4010      756C7400 
 4011              	.LASF11:
 4012 03af 5F5F7763 		.ascii	"__wch\000"
 4012      6800
 4013              	.LASF172:
 4014 03b5 50494F5F 		.ascii	"PIO_LOCKSR\000"
 4014      4C4F434B 
 4014      535200
 4015              	.LASF217:
 4016 03c0 6D61696E 		.ascii	"main.c\000"
 4016      2E6300
 4017              	.LASF160:
 4018 03c7 50494F5F 		.ascii	"PIO_AIMER\000"
 4018      41494D45 
 4018      5200
 4019              	.LASF79:
 4020 03d1 5F6E6577 		.ascii	"_new\000"
 4020      00
 4021              	.LASF59:
ARM GAS  /tmp/ccXWoaLx.s 			page 80


 4022 03d6 5F6C6F63 		.ascii	"_lock\000"
 4022      6B00
 4023              	.LASF91:
 4024 03dc 5F6D756C 		.ascii	"_mult\000"
 4024      7400
 4025              	.LASF135:
 4026 03e2 50494F5F 		.ascii	"PIO_IDR\000"
 4026      49445200 
 4027              	.LASF195:
 4028 03ea 5744545F 		.ascii	"WDT_MR\000"
 4028      4D5200
 4029              	.LASF51:
 4030 03f1 5F777269 		.ascii	"_write\000"
 4030      746500
 4031              	.LASF30:
 4032 03f8 5F5F746D 		.ascii	"__tm_year\000"
 4032      5F796561 
 4032      7200
 4033              	.LASF162:
 4034 0402 50494F5F 		.ascii	"PIO_AIMMR\000"
 4034      41494D4D 
 4034      5200
 4035              	.LASF113:
 4036 040c 5F6E6D61 		.ascii	"_nmalloc\000"
 4036      6C6C6F63 
 4036      00
 4037              	.LASF218:
 4038 0415 2F686F6D 		.ascii	"/home/mo/doc/studium/aktuell/Diplomarbeit/code\000"
 4038      652F6D6F 
 4038      2F646F63 
 4038      2F737475 
 4038      6469756D 
 4039              	.LASF122:
 4040 0444 50494F5F 		.ascii	"PIO_OER\000"
 4040      4F455200 
 4041              	.LASF57:
 4042 044c 5F6F6666 		.ascii	"_offset\000"
 4042      73657400 
 4043              	.LASF173:
 4044 0454 50494F5F 		.ascii	"PIO_WPMR\000"
 4044      57504D52 
 4044      00
 4045              	.LASF112:
 4046 045d 5F6E6578 		.ascii	"_nextf\000"
 4046      746600
 4047              	.LASF143:
 4048 0464 50494F5F 		.ascii	"PIO_PUER\000"
 4048      50554552 
 4048      00
 4049              	.LASF154:
 4050 046d 50494F5F 		.ascii	"PIO_PPDSR\000"
 4050      50504453 
 4050      5200
 4051              	.LASF29:
 4052 0477 5F5F746D 		.ascii	"__tm_mon\000"
 4052      5F6D6F6E 
 4052      00
ARM GAS  /tmp/ccXWoaLx.s 			page 81


 4053              	.LASF126:
 4054 0480 50494F5F 		.ascii	"PIO_IFER\000"
 4054      49464552 
 4054      00
 4055              	.LASF39:
 4056 0489 5F617465 		.ascii	"_atexit\000"
 4056      78697400 
 4057              	.LASF71:
 4058 0491 5F5F7364 		.ascii	"__sdidinit\000"
 4058      6964696E 
 4058      697400
 4059              	.LASF97:
 4060 049c 5F67616D 		.ascii	"_gamma_signgam\000"
 4060      6D615F73 
 4060      69676E67 
 4060      616D00
 4061              	.LASF132:
 4062 04ab 50494F5F 		.ascii	"PIO_ODSR\000"
 4062      4F445352 
 4062      00
 4063              	.LASF140:
 4064 04b4 50494F5F 		.ascii	"PIO_MDSR\000"
 4064      4D445352 
 4064      00
 4065              	.LASF10:
 4066 04bd 77696E74 		.ascii	"wint_t\000"
 4066      5F7400
 4067              	.LASF214:
 4068 04c4 63757272 		.ascii	"current\000"
 4068      656E7400 
 4069              	.LASF152:
 4070 04cc 50494F5F 		.ascii	"PIO_PPDDR\000"
 4070      50504444 
 4070      5200
 4071              	.LASF197:
 4072 04d6 5F50696E 		.ascii	"_Pin\000"
 4072      00
 4073              	.LASF134:
 4074 04db 50494F5F 		.ascii	"PIO_IER\000"
 4074      49455200 
 4075              	.LASF76:
 4076 04e3 5F667265 		.ascii	"_freelist\000"
 4076      656C6973 
 4076      7400
 4077              	.LASF139:
 4078 04ed 50494F5F 		.ascii	"PIO_MDDR\000"
 4078      4D444452 
 4078      00
 4079              	.LASF190:
 4080 04f6 50494F5F 		.ascii	"PIO_TNPR\000"
 4080      544E5052 
 4080      00
 4081              	.LASF8:
 4082 04ff 5F4C4F43 		.ascii	"_LOCK_RECURSIVE_T\000"
 4082      4B5F5245 
 4082      43555253 
 4082      4956455F 
ARM GAS  /tmp/ccXWoaLx.s 			page 82


 4082      5400
 4083              	.LASF168:
 4084 0511 50494F5F 		.ascii	"PIO_FELLSR\000"
 4084      46454C4C 
 4084      535200
 4085              	.LASF28:
 4086 051c 5F5F746D 		.ascii	"__tm_mday\000"
 4086      5F6D6461 
 4086      7900
 4087              	.LASF200:
 4088 0526 61747472 		.ascii	"attribute\000"
 4088      69627574 
 4088      6500
 4089              	.LASF1:
 4090 0530 756E7369 		.ascii	"unsigned char\000"
 4090      676E6564 
 4090      20636861 
 4090      7200
 4091              	.LASF128:
 4092 053e 50494F5F 		.ascii	"PIO_IFSR\000"
 4092      49465352 
 4092      00
 4093              	.LASF111:
 4094 0547 5F685F65 		.ascii	"_h_errno\000"
 4094      72726E6F 
 4094      00
 4095              	.LASF16:
 4096 0550 5F666C6F 		.ascii	"_flock_t\000"
 4096      636B5F74 
 4096      00
 4097              	.LASF32:
 4098 0559 5F5F746D 		.ascii	"__tm_yday\000"
 4098      5F796461 
 4098      7900
 4099              	.LASF61:
 4100 0563 5F666C61 		.ascii	"_flags2\000"
 4100      67733200 
 4101              	.LASF88:
 4102 056b 5F696F62 		.ascii	"_iobs\000"
 4102      7300
 4103              	.LASF127:
 4104 0571 50494F5F 		.ascii	"PIO_IFDR\000"
 4104      49464452 
 4104      00
 4105              	.LASF15:
 4106 057a 5F6D6273 		.ascii	"_mbstate_t\000"
 4106      74617465 
 4106      5F7400
 4107              	.LASF45:
 4108 0585 5F5F7346 		.ascii	"__sFILE\000"
 4108      494C4500 
 4109              	.LASF131:
 4110 058d 50494F5F 		.ascii	"PIO_CODR\000"
 4110      434F4452 
 4110      00
 4111              	.LASF185:
 4112 0596 50494F5F 		.ascii	"PIO_RCR\000"
ARM GAS  /tmp/ccXWoaLx.s 			page 83


 4112      52435200 
 4113              	.LASF136:
 4114 059e 50494F5F 		.ascii	"PIO_IMR\000"
 4114      494D5200 
 4115              	.LASF100:
 4116 05a6 5F6D626C 		.ascii	"_mblen_state\000"
 4116      656E5F73 
 4116      74617465 
 4116      00
 4117              	.LASF67:
 4118 05b3 5F696E63 		.ascii	"_inc\000"
 4118      00
 4119              	.LASF40:
 4120 05b8 5F696E64 		.ascii	"_ind\000"
 4120      00
 4121              	.LASF70:
 4122 05bd 5F637572 		.ascii	"_current_locale\000"
 4122      72656E74 
 4122      5F6C6F63 
 4122      616C6500 
 4123              	.LASF153:
 4124 05cd 50494F5F 		.ascii	"PIO_PPDER\000"
 4124      50504445 
 4124      5200
 4125              	.LASF20:
 4126 05d7 5F6D6178 		.ascii	"_maxwds\000"
 4126      77647300 
 4127              	.LASF62:
 4128 05df 5F726565 		.ascii	"_reent\000"
 4128      6E7400
 4129              	.LASF90:
 4130 05e6 5F736565 		.ascii	"_seed\000"
 4130      6400
 4131              	.LASF13:
 4132 05ec 5F5F636F 		.ascii	"__count\000"
 4132      756E7400 
 4133              	.LASF138:
 4134 05f4 50494F5F 		.ascii	"PIO_MDER\000"
 4134      4D444552 
 4134      00
 4135              	.LASF14:
 4136 05fd 5F5F7661 		.ascii	"__value\000"
 4136      6C756500 
 4137              	.LASF169:
 4138 0605 50494F5F 		.ascii	"PIO_REHLSR\000"
 4138      5245484C 
 4138      535200
 4139              	.LASF52:
 4140 0610 5F736565 		.ascii	"_seek\000"
 4140      6B00
 4141              	.LASF31:
 4142 0616 5F5F746D 		.ascii	"__tm_wday\000"
 4142      5F776461 
 4142      7900
 4143              	.LASF9:
 4144 0620 5F66706F 		.ascii	"_fpos_t\000"
 4144      735F7400 
ARM GAS  /tmp/ccXWoaLx.s 			page 84


 4145              	.LASF63:
 4146 0628 5F657272 		.ascii	"_errno\000"
 4146      6E6F00
 4147              	.LASF84:
 4148 062f 63686172 		.ascii	"char\000"
 4148      00
 4149              	.LASF56:
 4150 0634 5F626C6B 		.ascii	"_blksize\000"
 4150      73697A65 
 4150      00
 4151              	.LASF161:
 4152 063d 50494F5F 		.ascii	"PIO_AIMDR\000"
 4152      41494D44 
 4152      5200
 4153              	.LASF44:
 4154 0647 5F73697A 		.ascii	"_size\000"
 4154      6500
 4155              	.LASF4:
 4156 064d 756E7369 		.ascii	"unsigned int\000"
 4156      676E6564 
 4156      20696E74 
 4156      00
 4157              	.LASF150:
 4158 065a 50494F5F 		.ascii	"PIO_IFSCSR\000"
 4158      49465343 
 4158      535200
 4159              	.LASF2:
 4160 0665 73686F72 		.ascii	"short int\000"
 4160      7420696E 
 4160      7400
 4161              	.LASF182:
 4162 066f 50494F5F 		.ascii	"PIO_PCISR\000"
 4162      50434953 
 4162      5200
 4163              	.LASF66:
 4164 0679 5F737464 		.ascii	"_stderr\000"
 4164      65727200 
 4165              	.LASF203:
 4166 0681 6C696E65 		.ascii	"line\000"
 4166      00
 4167              	.LASF206:
 4168 0686 646F5F68 		.ascii	"do_hold\000"
 4168      6F6C6400 
 4169              	.LASF37:
 4170 068e 5F666E74 		.ascii	"_fntypes\000"
 4170      79706573 
 4170      00
 4171              	.LASF188:
 4172 0697 50494F5F 		.ascii	"PIO_RNPR\000"
 4172      524E5052 
 4172      00
 4173              	.LASF3:
 4174 06a0 73686F72 		.ascii	"short unsigned int\000"
 4174      7420756E 
 4174      7369676E 
 4174      65642069 
 4174      6E7400
ARM GAS  /tmp/ccXWoaLx.s 			page 85


 4175              	.LASF109:
 4176 06b3 5F776372 		.ascii	"_wcrtomb_state\000"
 4176      746F6D62 
 4176      5F737461 
 4176      746500
 4177              	.LASF92:
 4178 06c2 5F616464 		.ascii	"_add\000"
 4178      00
 4179              	.LASF17:
 4180 06c7 5F5F554C 		.ascii	"__ULong\000"
 4180      6F6E6700 
 4181              	.LASF170:
 4182 06cf 50494F5F 		.ascii	"PIO_FRLHSR\000"
 4182      46524C48 
 4182      535200
 4183              	.LASF105:
 4184 06da 5F676574 		.ascii	"_getdate_err\000"
 4184      64617465 
 4184      5F657272 
 4184      00
 4185              	.LASF107:
 4186 06e7 5F6D6272 		.ascii	"_mbrtowc_state\000"
 4186      746F7763 
 4186      5F737461 
 4186      746500
 4187              	.LASF69:
 4188 06f6 5F637572 		.ascii	"_current_category\000"
 4188      72656E74 
 4188      5F636174 
 4188      65676F72 
 4188      7900
 4189              	.LASF117:
 4190 0708 75696E74 		.ascii	"uint32_t\000"
 4190      33325F74 
 4190      00
 4191              	.LASF207:
 4192 0711 70696E73 		.ascii	"pins\000"
 4192      00
 4193              	.LASF202:
 4194 0716 61726776 		.ascii	"argv\000"
 4194      00
 4195              	.LASF93:
 4196 071b 5F756E75 		.ascii	"_unused_rand\000"
 4196      7365645F 
 4196      72616E64 
 4196      00
 4197              	.LASF72:
 4198 0728 5F5F636C 		.ascii	"__cleanup\000"
 4198      65616E75 
 4198      7000
 4199              	.LASF22:
 4200 0732 5F776473 		.ascii	"_wds\000"
 4200      00
 4201              	.LASF86:
 4202 0737 5F676C75 		.ascii	"_glue\000"
 4202      6500
 4203              	.LASF191:
ARM GAS  /tmp/ccXWoaLx.s 			page 86


 4204 073d 50494F5F 		.ascii	"PIO_TNCR\000"
 4204      544E4352 
 4204      00
 4205              	.LASF115:
 4206 0746 75696E74 		.ascii	"uint8_t\000"
 4206      385F7400 
 4207              	.LASF103:
 4208 074e 5F6C3634 		.ascii	"_l64a_buf\000"
 4208      615F6275 
 4208      6600
 4209              	.LASF23:
 4210 0758 5F426967 		.ascii	"_Bigint\000"
 4210      696E7400 
 4211              	.LASF81:
 4212 0760 5F736967 		.ascii	"_sig_func\000"
 4212      5F66756E 
 4212      6300
 4213              	.LASF158:
 4214 076a 50494F5F 		.ascii	"PIO_OWSR\000"
 4214      4F575352 
 4214      00
 4215              	.LASF55:
 4216 0773 5F6E6275 		.ascii	"_nbuf\000"
 4216      6600
 4217              	.LASF114:
 4218 0779 5F756E75 		.ascii	"_unused\000"
 4218      73656400 
 4219              	.LASF201:
 4220 0781 61726763 		.ascii	"argc\000"
 4220      00
 4221              	.LASF149:
 4222 0786 50494F5F 		.ascii	"PIO_IFSCER\000"
 4222      49465343 
 4222      455200
 4223              	.LASF33:
 4224 0791 5F5F746D 		.ascii	"__tm_isdst\000"
 4224      5F697364 
 4224      737400
 4225              	.LASF96:
 4226 079c 5F6C6F63 		.ascii	"_localtime_buf\000"
 4226      616C7469 
 4226      6D655F62 
 4226      756600
 4227              	.LASF26:
 4228 07ab 5F5F746D 		.ascii	"__tm_min\000"
 4228      5F6D696E 
 4228      00
 4229              	.LASF157:
 4230 07b4 50494F5F 		.ascii	"PIO_OWDR\000"
 4230      4F574452 
 4230      00
 4231              	.LASF99:
 4232 07bd 5F723438 		.ascii	"_r48\000"
 4232      00
 4233              	.LASF130:
 4234 07c2 50494F5F 		.ascii	"PIO_SODR\000"
 4234      534F4452 
ARM GAS  /tmp/ccXWoaLx.s 			page 87


 4234      00
 4235              	.LASF148:
 4236 07cb 50494F5F 		.ascii	"PIO_IFSCDR\000"
 4236      49465343 
 4236      445200
 4237              	.LASF101:
 4238 07d6 5F6D6274 		.ascii	"_mbtowc_state\000"
 4238      6F77635F 
 4238      73746174 
 4238      6500
 4239              	.LASF75:
 4240 07e4 5F703573 		.ascii	"_p5s\000"
 4240      00
 4241              	.LASF209:
 4242 07e9 6D61696E 		.ascii	"main\000"
 4242      00
 4243              	.LASF42:
 4244 07ee 5F5F7362 		.ascii	"__sbuf\000"
 4244      756600
 4245              	.LASF205:
 4246 07f5 646F5F70 		.ascii	"do_press\000"
 4246      72657373 
 4246      00
 4247              		.ident	"GCC: (Linaro GCC 4.5-2011.02-0) 4.5.2"
ARM GAS  /tmp/ccXWoaLx.s 			page 88


DEFINED SYMBOLS
                            *ABS*:0000000000000000 main.c
     /tmp/ccXWoaLx.s:27     .data:0000000000000000 _state
     /tmp/ccXWoaLx.s:30     .rodata:0000000000000000 $d
     /tmp/ccXWoaLx.s:31     .rodata:0000000000000000 .LC0
     /tmp/ccXWoaLx.s:34     .rodata:0000000000000018 .LC1
     /tmp/ccXWoaLx.s:37     .rodata:0000000000000044 .LC2
     /tmp/ccXWoaLx.s:40     .rodata:0000000000000058 .LC3
     /tmp/ccXWoaLx.s:43     .rodata:000000000000006c .LC4
     /tmp/ccXWoaLx.s:46     .rodata:0000000000000080 .LC5
     /tmp/ccXWoaLx.s:49     .rodata:000000000000008c .LC6
     /tmp/ccXWoaLx.s:52     .rodata:00000000000000a8 .LC7
     /tmp/ccXWoaLx.s:55     .text.main:0000000000000000 $t
     /tmp/ccXWoaLx.s:60     .text.main:0000000000000000 main
     /tmp/ccXWoaLx.s:764    .rodata:0000000000000180 C.10.6306
     /tmp/ccXWoaLx.s:582    .text.enter:0000000000000000 enter
     /tmp/ccXWoaLx.s:298    .text.main:0000000000000218 $d
     /tmp/ccXWoaLx.s:304    .text.main:0000000000000228 $t
     /tmp/ccXWoaLx.s:416    .text.do_press:0000000000000000 $t
     /tmp/ccXWoaLx.s:421    .text.do_press:0000000000000000 do_press
     /tmp/ccXWoaLx.s:744    .rodata:0000000000000168 C.8.6304
     /tmp/ccXWoaLx.s:754    .rodata:0000000000000174 C.9.6305
     /tmp/ccXWoaLx.s:466    .text.do_hold:0000000000000000 $t
     /tmp/ccXWoaLx.s:471    .text.do_hold:0000000000000000 do_hold
     /tmp/ccXWoaLx.s:728    .rodata:0000000000000150 C.7.6303
     /tmp/ccXWoaLx.s:511    .text.do_vent:0000000000000000 $t
     /tmp/ccXWoaLx.s:516    .text.do_vent:0000000000000000 do_vent
     /tmp/ccXWoaLx.s:708    .rodata:0000000000000138 C.5.6301
     /tmp/ccXWoaLx.s:718    .rodata:0000000000000144 C.6.6302
     /tmp/ccXWoaLx.s:562    .rodata:00000000000000bc .LC8
     /tmp/ccXWoaLx.s:565    .rodata:00000000000000d4 .LC9
     /tmp/ccXWoaLx.s:568    .rodata:00000000000000f0 .LC10
     /tmp/ccXWoaLx.s:571    .rodata:0000000000000108 .LC11
     /tmp/ccXWoaLx.s:574    .rodata:0000000000000120 .LC12
     /tmp/ccXWoaLx.s:577    .text.enter:0000000000000000 $t
     /tmp/ccXWoaLx.s:615    .text.enter:0000000000000028 $d
     /tmp/ccXWoaLx.s:621    .text.enter:0000000000000038 $t
                     .debug_frame:0000000000000010 $d

UNDEFINED SYMBOLS
_impure_ptr
fiprintf
TimeTick_Configure
LEDs_configure
LED_blink
PIO_Configure
input_init
USBC_Configure
USBC_isConfigured
setbuf
LED_blinkstop
current
USBC_hasData
gets
siscanf
previous
GetTickCount
ARM GAS  /tmp/ccXWoaLx.s 			page 89


LED_blinking
PIO_Clear
PIO_Set
LED_clr
