ARM GAS  /tmp/ccna6WhB.s 			page 1


   1              		.syntax unified
   2              		.cpu cortex-m3
   3              		.fpu softvfp
   4              		.eabi_attribute 20, 1
   5              		.eabi_attribute 21, 1
   6              		.eabi_attribute 23, 3
   7              		.eabi_attribute 24, 1
   8              		.eabi_attribute 25, 1
   9              		.eabi_attribute 26, 1
  10              		.eabi_attribute 30, 6
  11              		.eabi_attribute 18, 4
  12              		.thumb
  13              		.file	"main.c"
  14              		.section	.debug_abbrev,"",%progbits
  15              	.Ldebug_abbrev0:
  16              		.section	.debug_info,"",%progbits
  17              	.Ldebug_info0:
  18              		.section	.debug_line,"",%progbits
  19              	.Ldebug_line0:
  20 0000 21020000 		.text
  20      02006101 
  20      00000201 
  20      FB0E0D00 
  20      01010101 
  21              	.Ltext0:
  22              		.cfi_sections	.debug_frame
  23              		.global	_state
  24              		.data
  25              		.type	_state, %object
  26              		.size	_state, 1
  27              	_state:
  28 0000 01       		.byte	1
  29              		.section	.rodata
  30              		.align	2
  31              	.LC0:
  32 0000 2D492D20 		.ascii	"-I- Running at %i MHz\012\000"
  32      52756E6E 
  32      696E6720 
  32      61742025 
  32      69204D48 
  33 0017 00       		.align	2
  34              	.LC1:
  35 0018 2D442D20 		.ascii	"-D- waiting until USB is fully configured\012\000"
  35      77616974 
  35      696E6720 
  35      756E7469 
  35      6C205553 
  36 0043 00       		.align	2
  37              	.LC2:
  38 0044 25632025 		.ascii	"%c %u %u %u\000"
  38      75202575 
  38      20257500 
  39              		.align	2
  40              	.LC3:
  41 0050 2D442D20 		.ascii	"-D- got %i valid arguments\012\000"
  41      676F7420 
  41      25692076 
ARM GAS  /tmp/ccna6WhB.s 			page 2


  41      616C6964 
  41      20617267 
  42              		.align	2
  43              	.LC4:
  44 006c 2D452D20 		.ascii	"-E- invalid state\012\000"
  44      696E7661 
  44      6C696420 
  44      73746174 
  44      650A00
  45              		.section	.text.main,"ax",%progbits
  46              		.align	2
  47              		.global	main
  48              		.thumb
  49              		.thumb_func
  50              		.type	main, %function
  51              	main:
  52              	.LFB35:
  53              		.file 1 "main.c"
   1:main.c        **** #include <string.h>
   2:main.c        **** #include "conf.h"
   3:main.c        **** 
   4:main.c        **** #define IDLE  0
   5:main.c        **** #define READY 1
   6:main.c        **** #define SET   2
   7:main.c        **** #define GO    3
   8:main.c        **** 
   9:main.c        **** uint8_t _state = READY;
  10:main.c        **** 
  11:main.c        **** extern void input_init();
  12:main.c        **** 
  13:main.c        **** void do_press();
  14:main.c        **** void do_hold();
  15:main.c        **** void do_vent();
  16:main.c        **** 
  17:main.c        **** void enter(uint8_t new);
  18:main.c        **** 
  19:main.c        **** int main() 
  20:main.c        **** {
  54              		.loc 1 20 0
  55              		.cfi_startproc
  56              		@ args = 0, pretend = 0, frame = 80
  57              		@ frame_needed = 1, uses_anonymous_args = 0
  58 0000 B0B5     		push	{r4, r5, r7, lr}
  59              	.LCFI0:
  60              		.cfi_def_cfa_offset 16
  61 0002 96B0     		sub	sp, sp, #88
  62              	.LCFI1:
  63              		.cfi_def_cfa_offset 104
  64 0004 02AF     		add	r7, sp, #8
  65              		.cfi_offset 14, -4
  66              		.cfi_offset 7, -8
  67              		.cfi_offset 5, -12
  68              		.cfi_offset 4, -16
  69              	.LCFI2:
  70              		.cfi_def_cfa 7, 96
  21:main.c        **** 	int t = 0;
  71              		.loc 1 21 0
ARM GAS  /tmp/ccna6WhB.s 			page 3


  72 0006 4FF00003 		mov	r3, #0
  73 000a FB64     		str	r3, [r7, #76]
  22:main.c        **** 	int argc;
  23:main.c        **** 	int argv[3];
  24:main.c        **** 	char line[32];
  25:main.c        **** 	char cmd = 0;
  74              		.loc 1 25 0
  75 000c 4FF00003 		mov	r3, #0
  76 0010 FB76     		strb	r3, [r7, #27]
  26:main.c        **** 	const Pin pinsout[] = {PINS_VAL};
  77              		.loc 1 26 0
  78 0012 40F20003 		movw	r3, #:lower16:C.10.6302
  79 0016 C0F20003 		movt	r3, #:upper16:C.10.6302
  80 001a 3C46     		mov	r4, r7
  81 001c 1D46     		mov	r5, r3
  82 001e 0FCD     		ldmia	r5!, {r0, r1, r2, r3}
  83 0020 0FC4     		stmia	r4!, {r0, r1, r2, r3}
  84 0022 95E80300 		ldmia	r5, {r0, r1}
  85 0026 84E80300 		stmia	r4, {r0, r1}
  27:main.c        **** 
  28:main.c        **** 	TRACE_INFO("Running at %i MHz\n", BOARD_MCK/1000000);
  86              		.loc 1 28 0
  87 002a 40F20003 		movw	r3, #:lower16:_impure_ptr
  88 002e C0F20003 		movt	r3, #:upper16:_impure_ptr
  89 0032 1B68     		ldr	r3, [r3, #0]
  90 0034 DB68     		ldr	r3, [r3, #12]
  91 0036 1846     		mov	r0, r3
  92 0038 40F20001 		movw	r1, #:lower16:.LC0
  93 003c C0F20001 		movt	r1, #:upper16:.LC0
  94 0040 4FF03002 		mov	r2, #48
  95 0044 FFF7FEFF 		bl	fiprintf
  29:main.c        **** 
  30:main.c        ****     WDT->WDT_MR = WDT_MR_WDDIS;
  96              		.loc 1 30 0
  97 0048 41F25043 		movw	r3, #5200
  98 004c C4F20E03 		movt	r3, 16398
  99 0050 4FF40042 		mov	r2, #32768
 100 0054 5A60     		str	r2, [r3, #4]
  31:main.c        **** 	TimeTick_Configure(BOARD_MCK);
 101              		.loc 1 31 0
 102 0056 4FF4D840 		mov	r0, #27648
 103 005a C0F2DC20 		movt	r0, 732
 104 005e FFF7FEFF 		bl	TimeTick_Configure
  32:main.c        **** 	LEDs_configure();
 105              		.loc 1 32 0
 106 0062 FFF7FEFF 		bl	LEDs_configure
  33:main.c        **** 
  34:main.c        **** 	/* configure hardware */
  35:main.c        **** 	LED_blink(STATUS, FOREVER);
 107              		.loc 1 35 0
 108 0066 4FF00000 		mov	r0, #0
 109 006a 4FF0FF31 		mov	r1, #-1
 110 006e FFF7FEFF 		bl	LED_blink
  36:main.c        **** 	PIO_Configure(pinsout, PIO_LISTSIZE(pinsout));
 111              		.loc 1 36 0
 112 0072 3B46     		mov	r3, r7
 113 0074 1846     		mov	r0, r3
ARM GAS  /tmp/ccna6WhB.s 			page 4


 114 0076 4FF00201 		mov	r1, #2
 115 007a FFF7FEFF 		bl	PIO_Configure
  37:main.c        **** 	input_init();
 116              		.loc 1 37 0
 117 007e FFF7FEFF 		bl	input_init
  38:main.c        **** 	USBC_Configure();
 118              		.loc 1 38 0
 119 0082 FFF7FEFF 		bl	USBC_Configure
  39:main.c        **** 	TRACE_DEBUG("waiting until USB is fully configured\n");
 120              		.loc 1 39 0
 121 0086 40F20003 		movw	r3, #:lower16:_impure_ptr
 122 008a C0F20003 		movt	r3, #:upper16:_impure_ptr
 123 008e 1B68     		ldr	r3, [r3, #0]
 124 0090 DB68     		ldr	r3, [r3, #12]
 125 0092 1846     		mov	r0, r3
 126 0094 40F20001 		movw	r1, #:lower16:.LC1
 127 0098 C0F20001 		movt	r1, #:upper16:.LC1
 128 009c FFF7FEFF 		bl	fiprintf
  40:main.c        **** 	while (!USBC_isConfigured());
 129              		.loc 1 40 0
 130 00a0 00BF     		nop
 131              	.L2:
 132              		.loc 1 40 0 is_stmt 0 discriminator 1
 133 00a2 FFF7FEFF 		bl	USBC_isConfigured
 134 00a6 0346     		mov	r3, r0
 135 00a8 002B     		cmp	r3, #0
 136 00aa FAD0     		beq	.L2
  41:main.c        **** 	setbuf(stdout, NULL);
 137              		.loc 1 41 0 is_stmt 1
 138 00ac 40F20003 		movw	r3, #:lower16:_impure_ptr
 139 00b0 C0F20003 		movt	r3, #:upper16:_impure_ptr
 140 00b4 1B68     		ldr	r3, [r3, #0]
 141 00b6 9B68     		ldr	r3, [r3, #8]
 142 00b8 1846     		mov	r0, r3
 143 00ba 4FF00001 		mov	r1, #0
 144 00be FFF7FEFF 		bl	setbuf
  42:main.c        **** 	LED_blinkstop(STATUS);
 145              		.loc 1 42 0
 146 00c2 4FF00000 		mov	r0, #0
 147 00c6 FFF7FEFF 		bl	LED_blinkstop
  43:main.c        **** 
  44:main.c        **** 	enter(IDLE);
 148              		.loc 1 44 0
 149 00ca 4FF00000 		mov	r0, #0
 150 00ce FFF7FEFF 		bl	enter
 151 00d2 02E0     		b	.L14
 152              	.L18:
  45:main.c        **** 
  46:main.c        **** 	while (1) {
  47:main.c        **** 		//TODO always check input limits
  48:main.c        **** 
  49:main.c        **** 		/* Parse command line */
  50:main.c        **** 		cmd = 0;
  51:main.c        **** 		argc = 0;
  52:main.c        **** 		if (USBC_hasData()) {
  53:main.c        **** 			gets(line);
  54:main.c        **** 			if (*line > 0 && *line != 10) {
ARM GAS  /tmp/ccna6WhB.s 			page 5


  55:main.c        **** 				argc = sscanf(line, "%c %u %u %u", &cmd, argv, argv+1, argv+2);
  56:main.c        **** 				if (argc > 0) {
  57:main.c        **** 					TRACE_DEBUG("got %i valid arguments\n", argc);
  58:main.c        **** 
  59:main.c        **** 					if (cmd == 'a') // abort
  60:main.c        **** 						enter(IDLE);
  61:main.c        **** 				}
  62:main.c        **** 			}
  63:main.c        **** 		}
  64:main.c        **** 		
  65:main.c        **** 		/* Handle state */
  66:main.c        **** 		switch (_state) {
  67:main.c        **** 			case IDLE:
  68:main.c        **** 				if (cmd == 's') // start
  69:main.c        **** 					enter(READY);
  70:main.c        **** 				//TODO else if ()  // some configuration
  71:main.c        **** 				break;
  72:main.c        **** 
  73:main.c        **** 			case READY:
  74:main.c        **** 				//TODO if p > pset: enter(SET)
  75:main.c        **** 				break;
  76:main.c        **** 
  77:main.c        **** 			case SET:
  78:main.c        **** 				if (cmd == 's') // start/continue
  79:main.c        **** 					enter(GO);
  80:main.c        **** 				break;
  81:main.c        **** 
  82:main.c        **** 			case GO:
  83:main.c        **** 				//TODO if F > Ftrig: enter(IDLE)
  84:main.c        **** 				break;
  85:main.c        **** 
  86:main.c        **** 			default:
  87:main.c        **** 				TRACE_ERROR("invalid state\n");
  88:main.c        **** 				enter(IDLE);
  89:main.c        **** 		}
  90:main.c        **** 		
  91:main.c        **** 		/* Display state */
  92:main.c        **** 		if ((t=GetTickCount()) % 1000 == 0 && !LED_blinking(STATUS)) 
  93:main.c        **** 			LED_blink(STATUS, _state);
  94:main.c        **** 	}
 153              		.loc 1 94 0
 154 00d4 00BF     		nop
 155 00d6 00E0     		b	.L14
 156              	.L19:
 157 00d8 00BF     		nop
 158              	.L14:
  50:main.c        **** 		cmd = 0;
 159              		.loc 1 50 0
 160 00da 4FF00003 		mov	r3, #0
 161 00de FB76     		strb	r3, [r7, #27]
  51:main.c        **** 		argc = 0;
 162              		.loc 1 51 0
 163 00e0 4FF00003 		mov	r3, #0
 164 00e4 BB64     		str	r3, [r7, #72]
  52:main.c        **** 		if (USBC_hasData()) {
 165              		.loc 1 52 0
 166 00e6 FFF7FEFF 		bl	USBC_hasData
ARM GAS  /tmp/ccna6WhB.s 			page 6


 167 00ea 0346     		mov	r3, r0
 168 00ec 002B     		cmp	r3, #0
 169 00ee 3AD0     		beq	.L3
  53:main.c        **** 			gets(line);
 170              		.loc 1 53 0
 171 00f0 07F11C03 		add	r3, r7, #28
 172 00f4 1846     		mov	r0, r3
 173 00f6 FFF7FEFF 		bl	gets
  54:main.c        **** 			if (*line > 0 && *line != 10) {
 174              		.loc 1 54 0
 175 00fa 3B7F     		ldrb	r3, [r7, #28]	@ zero_extendqisi2
 176 00fc 002B     		cmp	r3, #0
 177 00fe 32D0     		beq	.L3
  54:main.c        **** 			if (*line > 0 && *line != 10) {
 178              		.loc 1 54 0 is_stmt 0 discriminator 1
 179 0100 3B7F     		ldrb	r3, [r7, #28]	@ zero_extendqisi2
 180 0102 0A2B     		cmp	r3, #10
 181 0104 2FD0     		beq	.L3
  55:main.c        **** 				argc = sscanf(line, "%c %u %u %u", &cmd, argv, argv+1, argv+2);
 182              		.loc 1 55 0 is_stmt 1
 183 0106 07F11C01 		add	r1, r7, #28
 184 010a 07F11B02 		add	r2, r7, #27
 185 010e 07F13C03 		add	r3, r7, #60
 186 0112 07F13C00 		add	r0, r7, #60
 187 0116 00F10400 		add	r0, r0, #4
 188 011a 0090     		str	r0, [sp, #0]
 189 011c 07F13C00 		add	r0, r7, #60
 190 0120 00F10800 		add	r0, r0, #8
 191 0124 0190     		str	r0, [sp, #4]
 192 0126 0846     		mov	r0, r1
 193 0128 40F20001 		movw	r1, #:lower16:.LC2
 194 012c C0F20001 		movt	r1, #:upper16:.LC2
 195 0130 FFF7FEFF 		bl	siscanf
 196 0134 B864     		str	r0, [r7, #72]
  56:main.c        **** 				if (argc > 0) {
 197              		.loc 1 56 0
 198 0136 BB6C     		ldr	r3, [r7, #72]
 199 0138 002B     		cmp	r3, #0
 200 013a 14DD     		ble	.L3
  57:main.c        **** 					TRACE_DEBUG("got %i valid arguments\n", argc);
 201              		.loc 1 57 0
 202 013c 40F20003 		movw	r3, #:lower16:_impure_ptr
 203 0140 C0F20003 		movt	r3, #:upper16:_impure_ptr
 204 0144 1B68     		ldr	r3, [r3, #0]
 205 0146 DB68     		ldr	r3, [r3, #12]
 206 0148 1846     		mov	r0, r3
 207 014a 40F20001 		movw	r1, #:lower16:.LC3
 208 014e C0F20001 		movt	r1, #:upper16:.LC3
 209 0152 BA6C     		ldr	r2, [r7, #72]
 210 0154 FFF7FEFF 		bl	fiprintf
  59:main.c        **** 					if (cmd == 'a') // abort
 211              		.loc 1 59 0
 212 0158 FB7E     		ldrb	r3, [r7, #27]	@ zero_extendqisi2
 213 015a 612B     		cmp	r3, #97
 214 015c 03D1     		bne	.L3
  60:main.c        **** 						enter(IDLE);
 215              		.loc 1 60 0
ARM GAS  /tmp/ccna6WhB.s 			page 7


 216 015e 4FF00000 		mov	r0, #0
 217 0162 FFF7FEFF 		bl	enter
 218              	.L3:
  66:main.c        **** 		switch (_state) {
 219              		.loc 1 66 0
 220 0166 40F20003 		movw	r3, #:lower16:_state
 221 016a C0F20003 		movt	r3, #:upper16:_state
 222 016e 1B78     		ldrb	r3, [r3, #0]	@ zero_extendqisi2
 223 0170 032B     		cmp	r3, #3
 224 0172 1BD8     		bhi	.L4
 225 0174 01A1     		adr	r1, .L9
 226 0176 51F823F0 		ldr	pc, [r1, r3, lsl #2]
 227 017a 00BF     		.align	2
 228              	.L9:
 229 017c 8D010000 		.word	.L5+1
 230 0180 D1010000 		.word	.L15+1
 231 0184 9D010000 		.word	.L7+1
 232 0188 D1010000 		.word	.L15+1
 233              	.L5:
  68:main.c        **** 				if (cmd == 's') // start
 234              		.loc 1 68 0
 235 018c FB7E     		ldrb	r3, [r7, #27]	@ zero_extendqisi2
 236 018e 732B     		cmp	r3, #115
 237 0190 20D1     		bne	.L16
  69:main.c        **** 					enter(READY);
 238              		.loc 1 69 0
 239 0192 4FF00100 		mov	r0, #1
 240 0196 FFF7FEFF 		bl	enter
  71:main.c        **** 				break;
 241              		.loc 1 71 0
 242 019a 1EE0     		b	.L11
 243              	.L7:
  78:main.c        **** 				if (cmd == 's') // start/continue
 244              		.loc 1 78 0
 245 019c FB7E     		ldrb	r3, [r7, #27]	@ zero_extendqisi2
 246 019e 732B     		cmp	r3, #115
 247 01a0 1AD1     		bne	.L17
  79:main.c        **** 					enter(GO);
 248              		.loc 1 79 0
 249 01a2 4FF00300 		mov	r0, #3
 250 01a6 FFF7FEFF 		bl	enter
  80:main.c        **** 				break;
 251              		.loc 1 80 0
 252 01aa 16E0     		b	.L11
 253              	.L4:
  87:main.c        **** 				TRACE_ERROR("invalid state\n");
 254              		.loc 1 87 0
 255 01ac 40F20003 		movw	r3, #:lower16:_impure_ptr
 256 01b0 C0F20003 		movt	r3, #:upper16:_impure_ptr
 257 01b4 1B68     		ldr	r3, [r3, #0]
 258 01b6 DB68     		ldr	r3, [r3, #12]
 259 01b8 1846     		mov	r0, r3
 260 01ba 40F20001 		movw	r1, #:lower16:.LC4
 261 01be C0F20001 		movt	r1, #:upper16:.LC4
 262 01c2 FFF7FEFF 		bl	fiprintf
  88:main.c        **** 				enter(IDLE);
 263              		.loc 1 88 0
ARM GAS  /tmp/ccna6WhB.s 			page 8


 264 01c6 4FF00000 		mov	r0, #0
 265 01ca FFF7FEFF 		bl	enter
 266 01ce 04E0     		b	.L11
 267              	.L15:
  75:main.c        **** 				break;
 268              		.loc 1 75 0
 269 01d0 00BF     		nop
 270 01d2 02E0     		b	.L11
 271              	.L16:
  71:main.c        **** 				break;
 272              		.loc 1 71 0
 273 01d4 00BF     		nop
 274 01d6 00E0     		b	.L11
 275              	.L17:
  80:main.c        **** 				break;
 276              		.loc 1 80 0
 277 01d8 00BF     		nop
 278              	.L11:
  92:main.c        **** 		if ((t=GetTickCount()) % 1000 == 0 && !LED_blinking(STATUS)) 
 279              		.loc 1 92 0
 280 01da FFF7FEFF 		bl	GetTickCount
 281 01de 0346     		mov	r3, r0
 282 01e0 FB64     		str	r3, [r7, #76]
 283 01e2 FA6C     		ldr	r2, [r7, #76]
 284 01e4 44F6D353 		movw	r3, #19923
 285 01e8 C1F26203 		movt	r3, 4194
 286 01ec 83FB0213 		smull	r1, r3, r3, r2
 287 01f0 4FEAA311 		asr	r1, r3, #6
 288 01f4 4FEAE273 		asr	r3, r2, #31
 289 01f8 CB1A     		subs	r3, r1, r3
 290 01fa 4FF47A71 		mov	r1, #1000
 291 01fe 01FB03F3 		mul	r3, r1, r3
 292 0202 D31A     		subs	r3, r2, r3
 293 0204 002B     		cmp	r3, #0
 294 0206 7FF465AF 		bne	.L18
  92:main.c        **** 		if ((t=GetTickCount()) % 1000 == 0 && !LED_blinking(STATUS)) 
 295              		.loc 1 92 0 is_stmt 0 discriminator 1
 296 020a 4FF00000 		mov	r0, #0
 297 020e FFF7FEFF 		bl	LED_blinking
 298 0212 0346     		mov	r3, r0
 299 0214 002B     		cmp	r3, #0
 300 0216 7FF45FAF 		bne	.L19
  93:main.c        **** 			LED_blink(STATUS, _state);
 301              		.loc 1 93 0 is_stmt 1
 302 021a 40F20003 		movw	r3, #:lower16:_state
 303 021e C0F20003 		movt	r3, #:upper16:_state
 304 0222 1B78     		ldrb	r3, [r3, #0]	@ zero_extendqisi2
 305 0224 4FF00000 		mov	r0, #0
 306 0228 1946     		mov	r1, r3
 307 022a FFF7FEFF 		bl	LED_blink
 308              		.loc 1 94 0
 309 022e 54E7     		b	.L14
 310              		.cfi_endproc
 311              	.LFE35:
 312              		.size	main, .-main
 313              		.section	.text.do_press,"ax",%progbits
 314              		.align	2
ARM GAS  /tmp/ccna6WhB.s 			page 9


 315              		.global	do_press
 316              		.thumb
 317              		.thumb_func
 318              		.type	do_press, %function
 319              	do_press:
 320              	.LFB36:
  95:main.c        **** 	return 0;
  96:main.c        **** }
  97:main.c        **** 
  98:main.c        **** void do_press() 
  99:main.c        **** {
 321              		.loc 1 99 0
 322              		.cfi_startproc
 323              		@ args = 0, pretend = 0, frame = 24
 324              		@ frame_needed = 1, uses_anonymous_args = 0
 325 0000 90B5     		push	{r4, r7, lr}
 326              	.LCFI3:
 327              		.cfi_def_cfa_offset 12
 328 0002 87B0     		sub	sp, sp, #28
 329              	.LCFI4:
 330              		.cfi_def_cfa_offset 40
 331 0004 00AF     		add	r7, sp, #0
 332              		.cfi_offset 14, -4
 333              		.cfi_offset 7, -8
 334              		.cfi_offset 4, -12
 335              	.LCFI5:
 336              		.cfi_def_cfa_register 7
 100:main.c        **** 	const Pin p = PIN_VAL_press;
 337              		.loc 1 100 0
 338 0006 40F20003 		movw	r3, #:lower16:C.8.6300
 339 000a C0F20003 		movt	r3, #:upper16:C.8.6300
 340 000e 07F10C04 		add	r4, r7, #12
 341 0012 93E80700 		ldmia	r3, {r0, r1, r2}
 342 0016 84E80700 		stmia	r4, {r0, r1, r2}
 101:main.c        **** 	const Pin v = PIN_VAL_vent;
 343              		.loc 1 101 0
 344 001a 40F20003 		movw	r3, #:lower16:C.9.6301
 345 001e C0F20003 		movt	r3, #:upper16:C.9.6301
 346 0022 3C46     		mov	r4, r7
 347 0024 93E80700 		ldmia	r3, {r0, r1, r2}
 348 0028 84E80700 		stmia	r4, {r0, r1, r2}
 102:main.c        **** 	PIO_Clear(&v); PIO_Set(&p);
 349              		.loc 1 102 0
 350 002c 3B46     		mov	r3, r7
 351 002e 1846     		mov	r0, r3
 352 0030 FFF7FEFF 		bl	PIO_Clear
 353 0034 07F10C03 		add	r3, r7, #12
 354 0038 1846     		mov	r0, r3
 355 003a FFF7FEFF 		bl	PIO_Set
 103:main.c        **** }
 356              		.loc 1 103 0
 357 003e 07F11C07 		add	r7, r7, #28
 358 0042 BD46     		mov	sp, r7
 359 0044 90BD     		pop	{r4, r7, pc}
 360              		.cfi_endproc
 361              	.LFE36:
 362              		.size	do_press, .-do_press
ARM GAS  /tmp/ccna6WhB.s 			page 10


 363 0046 00BF     		.section	.text.do_hold,"ax",%progbits
 364              		.align	2
 365              		.global	do_hold
 366              		.thumb
 367              		.thumb_func
 368              		.type	do_hold, %function
 369              	do_hold:
 370              	.LFB37:
 104:main.c        **** 
 105:main.c        **** void do_hold()
 106:main.c        **** {
 371              		.loc 1 106 0
 372              		.cfi_startproc
 373              		@ args = 0, pretend = 0, frame = 24
 374              		@ frame_needed = 1, uses_anonymous_args = 0
 375 0000 B0B5     		push	{r4, r5, r7, lr}
 376              	.LCFI6:
 377              		.cfi_def_cfa_offset 16
 378 0002 86B0     		sub	sp, sp, #24
 379              	.LCFI7:
 380              		.cfi_def_cfa_offset 40
 381 0004 00AF     		add	r7, sp, #0
 382              		.cfi_offset 14, -4
 383              		.cfi_offset 7, -8
 384              		.cfi_offset 5, -12
 385              		.cfi_offset 4, -16
 386              	.LCFI8:
 387              		.cfi_def_cfa_register 7
 107:main.c        **** 	const Pin pins[] = {PINS_VAL};
 388              		.loc 1 107 0
 389 0006 40F20003 		movw	r3, #:lower16:C.7.6299
 390 000a C0F20003 		movt	r3, #:upper16:C.7.6299
 391 000e 3C46     		mov	r4, r7
 392 0010 1D46     		mov	r5, r3
 393 0012 0FCD     		ldmia	r5!, {r0, r1, r2, r3}
 394 0014 0FC4     		stmia	r4!, {r0, r1, r2, r3}
 395 0016 95E80300 		ldmia	r5, {r0, r1}
 396 001a 84E80300 		stmia	r4, {r0, r1}
 108:main.c        **** 	PIO_Clear(pins);
 397              		.loc 1 108 0
 398 001e 3B46     		mov	r3, r7
 399 0020 1846     		mov	r0, r3
 400 0022 FFF7FEFF 		bl	PIO_Clear
 109:main.c        **** }
 401              		.loc 1 109 0
 402 0026 07F11807 		add	r7, r7, #24
 403 002a BD46     		mov	sp, r7
 404 002c B0BD     		pop	{r4, r5, r7, pc}
 405              		.cfi_endproc
 406              	.LFE37:
 407              		.size	do_hold, .-do_hold
 408 002e 00BF     		.section	.text.do_vent,"ax",%progbits
 409              		.align	2
 410              		.global	do_vent
 411              		.thumb
 412              		.thumb_func
 413              		.type	do_vent, %function
ARM GAS  /tmp/ccna6WhB.s 			page 11


 414              	do_vent:
 415              	.LFB38:
 110:main.c        **** 
 111:main.c        **** void do_vent()
 112:main.c        **** {
 416              		.loc 1 112 0
 417              		.cfi_startproc
 418              		@ args = 0, pretend = 0, frame = 24
 419              		@ frame_needed = 1, uses_anonymous_args = 0
 420 0000 90B5     		push	{r4, r7, lr}
 421              	.LCFI9:
 422              		.cfi_def_cfa_offset 12
 423 0002 87B0     		sub	sp, sp, #28
 424              	.LCFI10:
 425              		.cfi_def_cfa_offset 40
 426 0004 00AF     		add	r7, sp, #0
 427              		.cfi_offset 14, -4
 428              		.cfi_offset 7, -8
 429              		.cfi_offset 4, -12
 430              	.LCFI11:
 431              		.cfi_def_cfa_register 7
 113:main.c        **** 	const Pin p = PIN_VAL_press;
 432              		.loc 1 113 0
 433 0006 40F20003 		movw	r3, #:lower16:C.5.6297
 434 000a C0F20003 		movt	r3, #:upper16:C.5.6297
 435 000e 07F10C04 		add	r4, r7, #12
 436 0012 93E80700 		ldmia	r3, {r0, r1, r2}
 437 0016 84E80700 		stmia	r4, {r0, r1, r2}
 114:main.c        **** 	const Pin v = PIN_VAL_vent;
 438              		.loc 1 114 0
 439 001a 40F20003 		movw	r3, #:lower16:C.6.6298
 440 001e C0F20003 		movt	r3, #:upper16:C.6.6298
 441 0022 3C46     		mov	r4, r7
 442 0024 93E80700 		ldmia	r3, {r0, r1, r2}
 443 0028 84E80700 		stmia	r4, {r0, r1, r2}
 115:main.c        **** 	PIO_Clear(&p); PIO_Set(&v);
 444              		.loc 1 115 0
 445 002c 07F10C03 		add	r3, r7, #12
 446 0030 1846     		mov	r0, r3
 447 0032 FFF7FEFF 		bl	PIO_Clear
 448 0036 3B46     		mov	r3, r7
 449 0038 1846     		mov	r0, r3
 450 003a FFF7FEFF 		bl	PIO_Set
 116:main.c        **** }
 451              		.loc 1 116 0
 452 003e 07F11C07 		add	r7, r7, #28
 453 0042 BD46     		mov	sp, r7
 454 0044 90BD     		pop	{r4, r7, pc}
 455              		.cfi_endproc
 456              	.LFE38:
 457              		.size	do_vent, .-do_vent
 458 0046 00BF     		.section	.rodata
 459 007f 00       		.align	2
 460              	.LC5:
 461 0080 2D442D20 		.ascii	"-D- entered state IDLE\012\000"
 461      656E7465 
 461      72656420 
ARM GAS  /tmp/ccna6WhB.s 			page 12


 461      73746174 
 461      65204944 
 462              		.align	2
 463              	.LC6:
 464 0098 2D442D20 		.ascii	"-D- entered state READY\012\000"
 464      656E7465 
 464      72656420 
 464      73746174 
 464      65205245 
 465 00b1 000000   		.align	2
 466              	.LC7:
 467 00b4 2D442D20 		.ascii	"-D- entered state SET\012\000"
 467      656E7465 
 467      72656420 
 467      73746174 
 467      65205345 
 468 00cb 00       		.align	2
 469              	.LC8:
 470 00cc 2D442D20 		.ascii	"-D- entered state GO\012\000"
 470      656E7465 
 470      72656420 
 470      73746174 
 470      6520474F 
 471 00e2 0000     		.align	2
 472              	.LC9:
 473 00e4 2D442D20 		.ascii	"-D- got invalid state\012\000"
 473      676F7420 
 473      696E7661 
 473      6C696420 
 473      73746174 
 474              		.section	.text.enter,"ax",%progbits
 475              		.align	2
 476              		.global	enter
 477              		.thumb
 478              		.thumb_func
 479              		.type	enter, %function
 480              	enter:
 481              	.LFB39:
 117:main.c        **** 
 118:main.c        **** void enter(uint8_t new) 
 119:main.c        **** {
 482              		.loc 1 119 0
 483              		.cfi_startproc
 484              		@ args = 0, pretend = 0, frame = 8
 485              		@ frame_needed = 1, uses_anonymous_args = 0
 486 0000 80B5     		push	{r7, lr}
 487              	.LCFI12:
 488              		.cfi_def_cfa_offset 8
 489 0002 82B0     		sub	sp, sp, #8
 490              	.LCFI13:
 491              		.cfi_def_cfa_offset 16
 492 0004 00AF     		add	r7, sp, #0
 493              		.cfi_offset 14, -4
 494              		.cfi_offset 7, -8
 495              	.LCFI14:
 496              		.cfi_def_cfa_register 7
 497 0006 0346     		mov	r3, r0
ARM GAS  /tmp/ccna6WhB.s 			page 13


 498 0008 FB71     		strb	r3, [r7, #7]
 120:main.c        **** 	LED_blinkstop(STATUS);
 499              		.loc 1 120 0
 500 000a 4FF00000 		mov	r0, #0
 501 000e FFF7FEFF 		bl	LED_blinkstop
 121:main.c        **** 	LED_clr(STATUS);
 502              		.loc 1 121 0
 503 0012 4FF00000 		mov	r0, #0
 504 0016 FFF7FEFF 		bl	LED_clr
 122:main.c        **** 	switch (new) {
 505              		.loc 1 122 0
 506 001a FB79     		ldrb	r3, [r7, #7]	@ zero_extendqisi2
 507 001c 032B     		cmp	r3, #3
 508 001e 4BD8     		bhi	.L24
 509 0020 01A2     		adr	r2, .L29
 510 0022 52F823F0 		ldr	pc, [r2, r3, lsl #2]
 511 0026 00BF     		.align	2
 512              	.L29:
 513 0028 39000000 		.word	.L25+1
 514 002c 59000000 		.word	.L26+1
 515 0030 79000000 		.word	.L27+1
 516 0034 99000000 		.word	.L28+1
 517              	.L25:
 123:main.c        **** 		case IDLE:
 124:main.c        **** 			do_vent();
 518              		.loc 1 124 0
 519 0038 FFF7FEFF 		bl	do_vent
 125:main.c        **** 			TRACE_DEBUG("entered state IDLE\n");
 520              		.loc 1 125 0
 521 003c 40F20003 		movw	r3, #:lower16:_impure_ptr
 522 0040 C0F20003 		movt	r3, #:upper16:_impure_ptr
 523 0044 1B68     		ldr	r3, [r3, #0]
 524 0046 DB68     		ldr	r3, [r3, #12]
 525 0048 1846     		mov	r0, r3
 526 004a 40F20001 		movw	r1, #:lower16:.LC5
 527 004e C0F20001 		movt	r1, #:upper16:.LC5
 528 0052 FFF7FEFF 		bl	fiprintf
 126:main.c        **** 			break;
 529              		.loc 1 126 0
 530 0056 41E0     		b	.L30
 531              	.L26:
 127:main.c        **** 		case READY:
 128:main.c        **** 			do_press();
 532              		.loc 1 128 0
 533 0058 FFF7FEFF 		bl	do_press
 129:main.c        **** 			TRACE_DEBUG("entered state READY\n");
 534              		.loc 1 129 0
 535 005c 40F20003 		movw	r3, #:lower16:_impure_ptr
 536 0060 C0F20003 		movt	r3, #:upper16:_impure_ptr
 537 0064 1B68     		ldr	r3, [r3, #0]
 538 0066 DB68     		ldr	r3, [r3, #12]
 539 0068 1846     		mov	r0, r3
 540 006a 40F20001 		movw	r1, #:lower16:.LC6
 541 006e C0F20001 		movt	r1, #:upper16:.LC6
 542 0072 FFF7FEFF 		bl	fiprintf
 130:main.c        **** 			break;
 543              		.loc 1 130 0
ARM GAS  /tmp/ccna6WhB.s 			page 14


 544 0076 31E0     		b	.L30
 545              	.L27:
 131:main.c        **** 		case SET:
 132:main.c        **** 			do_hold();
 546              		.loc 1 132 0
 547 0078 FFF7FEFF 		bl	do_hold
 133:main.c        **** 			TRACE_DEBUG("entered state SET\n");
 548              		.loc 1 133 0
 549 007c 40F20003 		movw	r3, #:lower16:_impure_ptr
 550 0080 C0F20003 		movt	r3, #:upper16:_impure_ptr
 551 0084 1B68     		ldr	r3, [r3, #0]
 552 0086 DB68     		ldr	r3, [r3, #12]
 553 0088 1846     		mov	r0, r3
 554 008a 40F20001 		movw	r1, #:lower16:.LC7
 555 008e C0F20001 		movt	r1, #:upper16:.LC7
 556 0092 FFF7FEFF 		bl	fiprintf
 134:main.c        **** 			break;
 557              		.loc 1 134 0
 558 0096 21E0     		b	.L30
 559              	.L28:
 135:main.c        **** 		case GO:
 136:main.c        **** 			do_press();
 560              		.loc 1 136 0
 561 0098 FFF7FEFF 		bl	do_press
 137:main.c        **** 			TRACE_DEBUG("entered state GO\n");
 562              		.loc 1 137 0
 563 009c 40F20003 		movw	r3, #:lower16:_impure_ptr
 564 00a0 C0F20003 		movt	r3, #:upper16:_impure_ptr
 565 00a4 1B68     		ldr	r3, [r3, #0]
 566 00a6 DB68     		ldr	r3, [r3, #12]
 567 00a8 1846     		mov	r0, r3
 568 00aa 40F20001 		movw	r1, #:lower16:.LC8
 569 00ae C0F20001 		movt	r1, #:upper16:.LC8
 570 00b2 FFF7FEFF 		bl	fiprintf
 138:main.c        **** 			break;
 571              		.loc 1 138 0
 572 00b6 11E0     		b	.L30
 573              	.L24:
 139:main.c        **** 		default:
 140:main.c        **** 			TRACE_DEBUG("got invalid state\n");
 574              		.loc 1 140 0
 575 00b8 40F20003 		movw	r3, #:lower16:_impure_ptr
 576 00bc C0F20003 		movt	r3, #:upper16:_impure_ptr
 577 00c0 1B68     		ldr	r3, [r3, #0]
 578 00c2 DB68     		ldr	r3, [r3, #12]
 579 00c4 1846     		mov	r0, r3
 580 00c6 40F20001 		movw	r1, #:lower16:.LC9
 581 00ca C0F20001 		movt	r1, #:upper16:.LC9
 582 00ce FFF7FEFF 		bl	fiprintf
 141:main.c        **** 			enter(IDLE);
 583              		.loc 1 141 0
 584 00d2 4FF00000 		mov	r0, #0
 585 00d6 FFF7FEFF 		bl	enter
 142:main.c        **** 			return;
 586              		.loc 1 142 0
 587 00da 05E0     		b	.L23
 588              	.L30:
ARM GAS  /tmp/ccna6WhB.s 			page 15


 143:main.c        **** 	}
 144:main.c        **** 	_state = new;
 589              		.loc 1 144 0
 590 00dc 40F20003 		movw	r3, #:lower16:_state
 591 00e0 C0F20003 		movt	r3, #:upper16:_state
 592 00e4 FA79     		ldrb	r2, [r7, #7]
 593 00e6 1A70     		strb	r2, [r3, #0]
 594              	.L23:
 145:main.c        **** }
 595              		.loc 1 145 0
 596 00e8 07F10807 		add	r7, r7, #8
 597 00ec BD46     		mov	sp, r7
 598 00ee 80BD     		pop	{r7, pc}
 599              		.cfi_endproc
 600              	.LFE39:
 601              		.size	enter, .-enter
 602              		.section	.rodata
 603 00fb 00       		.align	2
 604              		.type	C.5.6297, %object
 605              		.size	C.5.6297, 12
 606              	C.5.6297:
 607 00fc 08000000 		.word	8
 608 0100 000E0E40 		.word	1074662912
 609 0104 0B       		.byte	11
 610 0105 05       		.byte	5
 611 0106 00       		.byte	0
 612 0107 00       		.space	1
 613              		.align	2
 614              		.type	C.6.6298, %object
 615              		.size	C.6.6298, 12
 616              	C.6.6298:
 617 0108 04000000 		.word	4
 618 010c 000E0E40 		.word	1074662912
 619 0110 0B       		.byte	11
 620 0111 05       		.byte	5
 621 0112 00       		.byte	0
 622 0113 00       		.space	1
 623              		.align	2
 624              		.type	C.7.6299, %object
 625              		.size	C.7.6299, 24
 626              	C.7.6299:
 627 0114 04000000 		.word	4
 628 0118 000E0E40 		.word	1074662912
 629 011c 0B       		.byte	11
 630 011d 05       		.byte	5
 631 011e 00       		.byte	0
 632 011f 00       		.space	1
 633 0120 08000000 		.word	8
 634 0124 000E0E40 		.word	1074662912
 635 0128 0B       		.byte	11
 636 0129 05       		.byte	5
 637 012a 00       		.byte	0
 638 012b 00       		.space	1
 639              		.align	2
 640              		.type	C.8.6300, %object
 641              		.size	C.8.6300, 12
 642              	C.8.6300:
ARM GAS  /tmp/ccna6WhB.s 			page 16


 643 012c 08000000 		.word	8
 644 0130 000E0E40 		.word	1074662912
 645 0134 0B       		.byte	11
 646 0135 05       		.byte	5
 647 0136 00       		.byte	0
 648 0137 00       		.space	1
 649              		.align	2
 650              		.type	C.9.6301, %object
 651              		.size	C.9.6301, 12
 652              	C.9.6301:
 653 0138 04000000 		.word	4
 654 013c 000E0E40 		.word	1074662912
 655 0140 0B       		.byte	11
 656 0141 05       		.byte	5
 657 0142 00       		.byte	0
 658 0143 00       		.space	1
 659              		.align	2
 660              		.type	C.10.6302, %object
 661              		.size	C.10.6302, 24
 662              	C.10.6302:
 663 0144 04000000 		.word	4
 664 0148 000E0E40 		.word	1074662912
 665 014c 0B       		.byte	11
 666 014d 05       		.byte	5
 667 014e 00       		.byte	0
 668 014f 00       		.space	1
 669 0150 08000000 		.word	8
 670 0154 000E0E40 		.word	1074662912
 671 0158 0B       		.byte	11
 672 0159 05       		.byte	5
 673 015a 00       		.byte	0
 674 015b 00       		.space	1
 675              		.text
 676              	.Letext0:
 677              		.section	.debug_loc,"",%progbits
 678              	.Ldebug_loc0:
 679              	.LLST0:
 680 0000 00000000 		.4byte	.LFB35
 681 0004 02000000 		.4byte	.LCFI0
 682 0008 0200     		.2byte	0x2
 683 000a 7D       		.byte	0x7d
 684 000b 00       		.sleb128 0
 685 000c 02000000 		.4byte	.LCFI0
 686 0010 04000000 		.4byte	.LCFI1
 687 0014 0200     		.2byte	0x2
 688 0016 7D       		.byte	0x7d
 689 0017 10       		.sleb128 16
 690 0018 04000000 		.4byte	.LCFI1
 691 001c 06000000 		.4byte	.LCFI2
 692 0020 0300     		.2byte	0x3
 693 0022 7D       		.byte	0x7d
 694 0023 E800     		.sleb128 104
 695 0025 06000000 		.4byte	.LCFI2
 696 0029 30020000 		.4byte	.LFE35
 697 002d 0300     		.2byte	0x3
 698 002f 77       		.byte	0x77
 699 0030 E000     		.sleb128 96
ARM GAS  /tmp/ccna6WhB.s 			page 17


 700 0032 00000000 		.4byte	0x0
 701 0036 00000000 		.4byte	0x0
 702              	.LLST1:
 703 003a 00000000 		.4byte	.LFB36
 704 003e 02000000 		.4byte	.LCFI3
 705 0042 0200     		.2byte	0x2
 706 0044 7D       		.byte	0x7d
 707 0045 00       		.sleb128 0
 708 0046 02000000 		.4byte	.LCFI3
 709 004a 04000000 		.4byte	.LCFI4
 710 004e 0200     		.2byte	0x2
 711 0050 7D       		.byte	0x7d
 712 0051 0C       		.sleb128 12
 713 0052 04000000 		.4byte	.LCFI4
 714 0056 06000000 		.4byte	.LCFI5
 715 005a 0200     		.2byte	0x2
 716 005c 7D       		.byte	0x7d
 717 005d 28       		.sleb128 40
 718 005e 06000000 		.4byte	.LCFI5
 719 0062 46000000 		.4byte	.LFE36
 720 0066 0200     		.2byte	0x2
 721 0068 77       		.byte	0x77
 722 0069 28       		.sleb128 40
 723 006a 00000000 		.4byte	0x0
 724 006e 00000000 		.4byte	0x0
 725              	.LLST2:
 726 0072 00000000 		.4byte	.LFB37
 727 0076 02000000 		.4byte	.LCFI6
 728 007a 0200     		.2byte	0x2
 729 007c 7D       		.byte	0x7d
 730 007d 00       		.sleb128 0
 731 007e 02000000 		.4byte	.LCFI6
 732 0082 04000000 		.4byte	.LCFI7
 733 0086 0200     		.2byte	0x2
 734 0088 7D       		.byte	0x7d
 735 0089 10       		.sleb128 16
 736 008a 04000000 		.4byte	.LCFI7
 737 008e 06000000 		.4byte	.LCFI8
 738 0092 0200     		.2byte	0x2
 739 0094 7D       		.byte	0x7d
 740 0095 28       		.sleb128 40
 741 0096 06000000 		.4byte	.LCFI8
 742 009a 2E000000 		.4byte	.LFE37
 743 009e 0200     		.2byte	0x2
 744 00a0 77       		.byte	0x77
 745 00a1 28       		.sleb128 40
 746 00a2 00000000 		.4byte	0x0
 747 00a6 00000000 		.4byte	0x0
 748              	.LLST3:
 749 00aa 00000000 		.4byte	.LFB38
 750 00ae 02000000 		.4byte	.LCFI9
 751 00b2 0200     		.2byte	0x2
 752 00b4 7D       		.byte	0x7d
 753 00b5 00       		.sleb128 0
 754 00b6 02000000 		.4byte	.LCFI9
 755 00ba 04000000 		.4byte	.LCFI10
 756 00be 0200     		.2byte	0x2
ARM GAS  /tmp/ccna6WhB.s 			page 18


 757 00c0 7D       		.byte	0x7d
 758 00c1 0C       		.sleb128 12
 759 00c2 04000000 		.4byte	.LCFI10
 760 00c6 06000000 		.4byte	.LCFI11
 761 00ca 0200     		.2byte	0x2
 762 00cc 7D       		.byte	0x7d
 763 00cd 28       		.sleb128 40
 764 00ce 06000000 		.4byte	.LCFI11
 765 00d2 46000000 		.4byte	.LFE38
 766 00d6 0200     		.2byte	0x2
 767 00d8 77       		.byte	0x77
 768 00d9 28       		.sleb128 40
 769 00da 00000000 		.4byte	0x0
 770 00de 00000000 		.4byte	0x0
 771              	.LLST4:
 772 00e2 00000000 		.4byte	.LFB39
 773 00e6 02000000 		.4byte	.LCFI12
 774 00ea 0200     		.2byte	0x2
 775 00ec 7D       		.byte	0x7d
 776 00ed 00       		.sleb128 0
 777 00ee 02000000 		.4byte	.LCFI12
 778 00f2 04000000 		.4byte	.LCFI13
 779 00f6 0200     		.2byte	0x2
 780 00f8 7D       		.byte	0x7d
 781 00f9 08       		.sleb128 8
 782 00fa 04000000 		.4byte	.LCFI13
 783 00fe 06000000 		.4byte	.LCFI14
 784 0102 0200     		.2byte	0x2
 785 0104 7D       		.byte	0x7d
 786 0105 10       		.sleb128 16
 787 0106 06000000 		.4byte	.LCFI14
 788 010a F0000000 		.4byte	.LFE39
 789 010e 0200     		.2byte	0x2
 790 0110 77       		.byte	0x77
 791 0111 10       		.sleb128 16
 792 0112 00000000 		.4byte	0x0
 793 0116 00000000 		.4byte	0x0
 794              		.file 2 "/usr/local/lib64/gcc/arm-none-eabi/4.5.2/../../../../arm-none-eabi/include/sys/lock.h"
 795              		.file 3 "/usr/local/lib64/gcc/arm-none-eabi/4.5.2/../../../../arm-none-eabi/include/sys/_types.h"
 796              		.file 4 "/usr/local/lib64/gcc/arm-none-eabi/4.5.2/include/stddef.h"
 797              		.file 5 "/usr/local/lib64/gcc/arm-none-eabi/4.5.2/../../../../arm-none-eabi/include/sys/reent.h"
 798              		.file 6 "/usr/local/lib64/gcc/arm-none-eabi/4.5.2/../../../../arm-none-eabi/include/stdint.h"
 799              		.file 7 "libchip/include/SAM3S.h"
 800              		.file 8 "libchip/include/pio.h"
 801              		.file 9 "libchip/cmsis/core_cm3.h"
 802              		.section	.debug_info
 803 0000 ED100000 		.4byte	0x10ed
 804 0004 0200     		.2byte	0x2
 805 0006 00000000 		.4byte	.Ldebug_abbrev0
 806 000a 04       		.byte	0x4
 807 000b 01       		.uleb128 0x1
 808 000c 65010000 		.4byte	.LASF213
 809 0010 01       		.byte	0x1
 810 0011 A5030000 		.4byte	.LASF214
 811 0015 FA030000 		.4byte	.LASF215
 812 0019 00000000 		.4byte	0x0
 813 001d 00000000 		.4byte	0x0
ARM GAS  /tmp/ccna6WhB.s 			page 19


 814 0021 00000000 		.4byte	.Ldebug_ranges0+0x0
 815 0025 00000000 		.4byte	.Ldebug_line0
 816 0029 02       		.uleb128 0x2
 817 002a 01       		.byte	0x1
 818 002b 06       		.byte	0x6
 819 002c EC000000 		.4byte	.LASF0
 820 0030 02       		.uleb128 0x2
 821 0031 01       		.byte	0x1
 822 0032 08       		.byte	0x8
 823 0033 0D050000 		.4byte	.LASF1
 824 0037 02       		.uleb128 0x2
 825 0038 02       		.byte	0x2
 826 0039 05       		.byte	0x5
 827 003a 42060000 		.4byte	.LASF2
 828 003e 02       		.uleb128 0x2
 829 003f 02       		.byte	0x2
 830 0040 07       		.byte	0x7
 831 0041 7D060000 		.4byte	.LASF3
 832 0045 03       		.uleb128 0x3
 833 0046 04       		.byte	0x4
 834 0047 05       		.byte	0x5
 835 0048 696E7400 		.ascii	"int\000"
 836 004c 02       		.uleb128 0x2
 837 004d 04       		.byte	0x4
 838 004e 07       		.byte	0x7
 839 004f 2A060000 		.4byte	.LASF4
 840 0053 02       		.uleb128 0x2
 841 0054 08       		.byte	0x8
 842 0055 05       		.byte	0x5
 843 0056 E6010000 		.4byte	.LASF5
 844 005a 02       		.uleb128 0x2
 845 005b 08       		.byte	0x8
 846 005c 07       		.byte	0x7
 847 005d 76000000 		.4byte	.LASF6
 848 0061 04       		.uleb128 0x4
 849 0062 DC040000 		.4byte	.LASF8
 850 0066 02       		.byte	0x2
 851 0067 07       		.byte	0x7
 852 0068 45000000 		.4byte	0x45
 853 006c 02       		.uleb128 0x2
 854 006d 04       		.byte	0x4
 855 006e 05       		.byte	0x5
 856 006f 9A010000 		.4byte	.LASF7
 857 0073 04       		.uleb128 0x4
 858 0074 FD050000 		.4byte	.LASF9
 859 0078 03       		.byte	0x3
 860 0079 2C       		.byte	0x2c
 861 007a 6C000000 		.4byte	0x6c
 862 007e 05       		.uleb128 0x5
 863 007f A2040000 		.4byte	.LASF10
 864 0083 04       		.byte	0x4
 865 0084 6001     		.2byte	0x160
 866 0086 4C000000 		.4byte	0x4c
 867 008a 06       		.uleb128 0x6
 868 008b 04       		.byte	0x4
 869 008c 03       		.byte	0x3
 870 008d 46       		.byte	0x46
ARM GAS  /tmp/ccna6WhB.s 			page 20


 871 008e A9000000 		.4byte	0xa9
 872 0092 07       		.uleb128 0x7
 873 0093 94030000 		.4byte	.LASF11
 874 0097 03       		.byte	0x3
 875 0098 48       		.byte	0x48
 876 0099 7E000000 		.4byte	0x7e
 877 009d 07       		.uleb128 0x7
 878 009e CF020000 		.4byte	.LASF12
 879 00a2 03       		.byte	0x3
 880 00a3 49       		.byte	0x49
 881 00a4 A9000000 		.4byte	0xa9
 882 00a8 00       		.byte	0x0
 883 00a9 08       		.uleb128 0x8
 884 00aa 30000000 		.4byte	0x30
 885 00ae B9000000 		.4byte	0xb9
 886 00b2 09       		.uleb128 0x9
 887 00b3 4C000000 		.4byte	0x4c
 888 00b7 03       		.byte	0x3
 889 00b8 00       		.byte	0x0
 890 00b9 0A       		.uleb128 0xa
 891 00ba 08       		.byte	0x8
 892 00bb 03       		.byte	0x3
 893 00bc 43       		.byte	0x43
 894 00bd DE000000 		.4byte	0xde
 895 00c1 0B       		.uleb128 0xb
 896 00c2 C9050000 		.4byte	.LASF13
 897 00c6 03       		.byte	0x3
 898 00c7 45       		.byte	0x45
 899 00c8 45000000 		.4byte	0x45
 900 00cc 02       		.byte	0x2
 901 00cd 23       		.byte	0x23
 902 00ce 00       		.uleb128 0x0
 903 00cf 0B       		.uleb128 0xb
 904 00d0 DA050000 		.4byte	.LASF14
 905 00d4 03       		.byte	0x3
 906 00d5 4A       		.byte	0x4a
 907 00d6 8A000000 		.4byte	0x8a
 908 00da 02       		.byte	0x2
 909 00db 23       		.byte	0x23
 910 00dc 04       		.uleb128 0x4
 911 00dd 00       		.byte	0x0
 912 00de 04       		.uleb128 0x4
 913 00df 57050000 		.4byte	.LASF15
 914 00e3 03       		.byte	0x3
 915 00e4 4B       		.byte	0x4b
 916 00e5 B9000000 		.4byte	0xb9
 917 00e9 04       		.uleb128 0x4
 918 00ea 33050000 		.4byte	.LASF16
 919 00ee 03       		.byte	0x3
 920 00ef 4F       		.byte	0x4f
 921 00f0 61000000 		.4byte	0x61
 922 00f4 0C       		.uleb128 0xc
 923 00f5 04       		.byte	0x4
 924 00f6 04       		.uleb128 0x4
 925 00f7 A4060000 		.4byte	.LASF17
 926 00fb 05       		.byte	0x5
 927 00fc 15       		.byte	0x15
ARM GAS  /tmp/ccna6WhB.s 			page 21


 928 00fd 01010000 		.4byte	0x101
 929 0101 02       		.uleb128 0x2
 930 0102 04       		.byte	0x4
 931 0103 07       		.byte	0x7
 932 0104 F6020000 		.4byte	.LASF18
 933 0108 0D       		.uleb128 0xd
 934 0109 3E070000 		.4byte	.LASF23
 935 010d 18       		.byte	0x18
 936 010e 05       		.byte	0x5
 937 010f 2C       		.byte	0x2c
 938 0110 67010000 		.4byte	0x167
 939 0114 0B       		.uleb128 0xb
 940 0115 A3020000 		.4byte	.LASF19
 941 0119 05       		.byte	0x5
 942 011a 2E       		.byte	0x2e
 943 011b 67010000 		.4byte	0x167
 944 011f 02       		.byte	0x2
 945 0120 23       		.byte	0x23
 946 0121 00       		.uleb128 0x0
 947 0122 0E       		.uleb128 0xe
 948 0123 5F6B00   		.ascii	"_k\000"
 949 0126 05       		.byte	0x5
 950 0127 2F       		.byte	0x2f
 951 0128 45000000 		.4byte	0x45
 952 012c 02       		.byte	0x2
 953 012d 23       		.byte	0x23
 954 012e 04       		.uleb128 0x4
 955 012f 0B       		.uleb128 0xb
 956 0130 B4050000 		.4byte	.LASF20
 957 0134 05       		.byte	0x5
 958 0135 2F       		.byte	0x2f
 959 0136 45000000 		.4byte	0x45
 960 013a 02       		.byte	0x2
 961 013b 23       		.byte	0x23
 962 013c 08       		.uleb128 0x8
 963 013d 0B       		.uleb128 0xb
 964 013e 70020000 		.4byte	.LASF21
 965 0142 05       		.byte	0x5
 966 0143 2F       		.byte	0x2f
 967 0144 45000000 		.4byte	0x45
 968 0148 02       		.byte	0x2
 969 0149 23       		.byte	0x23
 970 014a 0C       		.uleb128 0xc
 971 014b 0B       		.uleb128 0xb
 972 014c 18070000 		.4byte	.LASF22
 973 0150 05       		.byte	0x5
 974 0151 2F       		.byte	0x2f
 975 0152 45000000 		.4byte	0x45
 976 0156 02       		.byte	0x2
 977 0157 23       		.byte	0x23
 978 0158 10       		.uleb128 0x10
 979 0159 0E       		.uleb128 0xe
 980 015a 5F7800   		.ascii	"_x\000"
 981 015d 05       		.byte	0x5
 982 015e 30       		.byte	0x30
 983 015f 6D010000 		.4byte	0x16d
 984 0163 02       		.byte	0x2
ARM GAS  /tmp/ccna6WhB.s 			page 22


 985 0164 23       		.byte	0x23
 986 0165 14       		.uleb128 0x14
 987 0166 00       		.byte	0x0
 988 0167 0F       		.uleb128 0xf
 989 0168 04       		.byte	0x4
 990 0169 08010000 		.4byte	0x108
 991 016d 08       		.uleb128 0x8
 992 016e F6000000 		.4byte	0xf6
 993 0172 7D010000 		.4byte	0x17d
 994 0176 09       		.uleb128 0x9
 995 0177 4C000000 		.4byte	0x4c
 996 017b 00       		.byte	0x0
 997 017c 00       		.byte	0x0
 998 017d 0D       		.uleb128 0xd
 999 017e C2020000 		.4byte	.LASF24
 1000 0182 24       		.byte	0x24
 1001 0183 05       		.byte	0x5
 1002 0184 34       		.byte	0x34
 1003 0185 08020000 		.4byte	0x208
 1004 0189 0B       		.uleb128 0xb
 1005 018a DC000000 		.4byte	.LASF25
 1006 018e 05       		.byte	0x5
 1007 018f 36       		.byte	0x36
 1008 0190 45000000 		.4byte	0x45
 1009 0194 02       		.byte	0x2
 1010 0195 23       		.byte	0x23
 1011 0196 00       		.uleb128 0x0
 1012 0197 0B       		.uleb128 0xb
 1013 0198 91070000 		.4byte	.LASF26
 1014 019c 05       		.byte	0x5
 1015 019d 37       		.byte	0x37
 1016 019e 45000000 		.4byte	0x45
 1017 01a2 02       		.byte	0x2
 1018 01a3 23       		.byte	0x23
 1019 01a4 04       		.uleb128 0x4
 1020 01a5 0B       		.uleb128 0xb
 1021 01a6 A9020000 		.4byte	.LASF27
 1022 01aa 05       		.byte	0x5
 1023 01ab 38       		.byte	0x38
 1024 01ac 45000000 		.4byte	0x45
 1025 01b0 02       		.byte	0x2
 1026 01b1 23       		.byte	0x23
 1027 01b2 08       		.uleb128 0x8
 1028 01b3 0B       		.uleb128 0xb
 1029 01b4 F9040000 		.4byte	.LASF28
 1030 01b8 05       		.byte	0x5
 1031 01b9 39       		.byte	0x39
 1032 01ba 45000000 		.4byte	0x45
 1033 01be 02       		.byte	0x2
 1034 01bf 23       		.byte	0x23
 1035 01c0 0C       		.uleb128 0xc
 1036 01c1 0B       		.uleb128 0xb
 1037 01c2 5C040000 		.4byte	.LASF29
 1038 01c6 05       		.byte	0x5
 1039 01c7 3A       		.byte	0x3a
 1040 01c8 45000000 		.4byte	0x45
 1041 01cc 02       		.byte	0x2
ARM GAS  /tmp/ccna6WhB.s 			page 23


 1042 01cd 23       		.byte	0x23
 1043 01ce 10       		.uleb128 0x10
 1044 01cf 0B       		.uleb128 0xb
 1045 01d0 DD030000 		.4byte	.LASF30
 1046 01d4 05       		.byte	0x5
 1047 01d5 3B       		.byte	0x3b
 1048 01d6 45000000 		.4byte	0x45
 1049 01da 02       		.byte	0x2
 1050 01db 23       		.byte	0x23
 1051 01dc 14       		.uleb128 0x14
 1052 01dd 0B       		.uleb128 0xb
 1053 01de F3050000 		.4byte	.LASF31
 1054 01e2 05       		.byte	0x5
 1055 01e3 3C       		.byte	0x3c
 1056 01e4 45000000 		.4byte	0x45
 1057 01e8 02       		.byte	0x2
 1058 01e9 23       		.byte	0x23
 1059 01ea 18       		.uleb128 0x18
 1060 01eb 0B       		.uleb128 0xb
 1061 01ec 3C050000 		.4byte	.LASF32
 1062 01f0 05       		.byte	0x5
 1063 01f1 3D       		.byte	0x3d
 1064 01f2 45000000 		.4byte	0x45
 1065 01f6 02       		.byte	0x2
 1066 01f7 23       		.byte	0x23
 1067 01f8 1C       		.uleb128 0x1c
 1068 01f9 0B       		.uleb128 0xb
 1069 01fa 77070000 		.4byte	.LASF33
 1070 01fe 05       		.byte	0x5
 1071 01ff 3E       		.byte	0x3e
 1072 0200 45000000 		.4byte	0x45
 1073 0204 02       		.byte	0x2
 1074 0205 23       		.byte	0x23
 1075 0206 20       		.uleb128 0x20
 1076 0207 00       		.byte	0x0
 1077 0208 10       		.uleb128 0x10
 1078 0209 4D010000 		.4byte	.LASF34
 1079 020d 0801     		.2byte	0x108
 1080 020f 05       		.byte	0x5
 1081 0210 47       		.byte	0x47
 1082 0211 51020000 		.4byte	0x251
 1083 0215 0B       		.uleb128 0xb
 1084 0216 16000000 		.4byte	.LASF35
 1085 021a 05       		.byte	0x5
 1086 021b 48       		.byte	0x48
 1087 021c 51020000 		.4byte	0x251
 1088 0220 02       		.byte	0x2
 1089 0221 23       		.byte	0x23
 1090 0222 00       		.uleb128 0x0
 1091 0223 0B       		.uleb128 0xb
 1092 0224 00000000 		.4byte	.LASF36
 1093 0228 05       		.byte	0x5
 1094 0229 49       		.byte	0x49
 1095 022a 51020000 		.4byte	0x251
 1096 022e 03       		.byte	0x3
 1097 022f 23       		.byte	0x23
 1098 0230 8001     		.uleb128 0x80
ARM GAS  /tmp/ccna6WhB.s 			page 24


 1099 0232 0B       		.uleb128 0xb
 1100 0233 6B060000 		.4byte	.LASF37
 1101 0237 05       		.byte	0x5
 1102 0238 4B       		.byte	0x4b
 1103 0239 F6000000 		.4byte	0xf6
 1104 023d 03       		.byte	0x3
 1105 023e 23       		.byte	0x23
 1106 023f 8002     		.uleb128 0x100
 1107 0241 0B       		.uleb128 0xb
 1108 0242 B3010000 		.4byte	.LASF38
 1109 0246 05       		.byte	0x5
 1110 0247 4E       		.byte	0x4e
 1111 0248 F6000000 		.4byte	0xf6
 1112 024c 03       		.byte	0x3
 1113 024d 23       		.byte	0x23
 1114 024e 8402     		.uleb128 0x104
 1115 0250 00       		.byte	0x0
 1116 0251 08       		.uleb128 0x8
 1117 0252 F4000000 		.4byte	0xf4
 1118 0256 61020000 		.4byte	0x261
 1119 025a 09       		.uleb128 0x9
 1120 025b 4C000000 		.4byte	0x4c
 1121 025f 1F       		.byte	0x1f
 1122 0260 00       		.byte	0x0
 1123 0261 10       		.uleb128 0x10
 1124 0262 6E040000 		.4byte	.LASF39
 1125 0266 9001     		.2byte	0x190
 1126 0268 05       		.byte	0x5
 1127 0269 59       		.byte	0x59
 1128 026a A8020000 		.4byte	0x2a8
 1129 026e 0B       		.uleb128 0xb
 1130 026f A3020000 		.4byte	.LASF19
 1131 0273 05       		.byte	0x5
 1132 0274 5A       		.byte	0x5a
 1133 0275 A8020000 		.4byte	0x2a8
 1134 0279 02       		.byte	0x2
 1135 027a 23       		.byte	0x23
 1136 027b 00       		.uleb128 0x0
 1137 027c 0B       		.uleb128 0xb
 1138 027d 95050000 		.4byte	.LASF40
 1139 0281 05       		.byte	0x5
 1140 0282 5B       		.byte	0x5b
 1141 0283 45000000 		.4byte	0x45
 1142 0287 02       		.byte	0x2
 1143 0288 23       		.byte	0x23
 1144 0289 04       		.uleb128 0x4
 1145 028a 0B       		.uleb128 0xb
 1146 028b 66020000 		.4byte	.LASF41
 1147 028f 05       		.byte	0x5
 1148 0290 5D       		.byte	0x5d
 1149 0291 AE020000 		.4byte	0x2ae
 1150 0295 02       		.byte	0x2
 1151 0296 23       		.byte	0x23
 1152 0297 08       		.uleb128 0x8
 1153 0298 0B       		.uleb128 0xb
 1154 0299 4D010000 		.4byte	.LASF34
 1155 029d 05       		.byte	0x5
ARM GAS  /tmp/ccna6WhB.s 			page 25


 1156 029e 5E       		.byte	0x5e
 1157 029f 08020000 		.4byte	0x208
 1158 02a3 03       		.byte	0x3
 1159 02a4 23       		.byte	0x23
 1160 02a5 8801     		.uleb128 0x88
 1161 02a7 00       		.byte	0x0
 1162 02a8 0F       		.uleb128 0xf
 1163 02a9 04       		.byte	0x4
 1164 02aa 61020000 		.4byte	0x261
 1165 02ae 08       		.uleb128 0x8
 1166 02af C0020000 		.4byte	0x2c0
 1167 02b3 BE020000 		.4byte	0x2be
 1168 02b7 09       		.uleb128 0x9
 1169 02b8 4C000000 		.4byte	0x4c
 1170 02bc 1F       		.byte	0x1f
 1171 02bd 00       		.byte	0x0
 1172 02be 11       		.uleb128 0x11
 1173 02bf 01       		.byte	0x1
 1174 02c0 0F       		.uleb128 0xf
 1175 02c1 04       		.byte	0x4
 1176 02c2 BE020000 		.4byte	0x2be
 1177 02c6 0D       		.uleb128 0xd
 1178 02c7 D4070000 		.4byte	.LASF42
 1179 02cb 08       		.byte	0x8
 1180 02cc 05       		.byte	0x5
 1181 02cd 69       		.byte	0x69
 1182 02ce EF020000 		.4byte	0x2ef
 1183 02d2 0B       		.uleb128 0xb
 1184 02d3 A0000000 		.4byte	.LASF43
 1185 02d7 05       		.byte	0x5
 1186 02d8 6A       		.byte	0x6a
 1187 02d9 EF020000 		.4byte	0x2ef
 1188 02dd 02       		.byte	0x2
 1189 02de 23       		.byte	0x23
 1190 02df 00       		.uleb128 0x0
 1191 02e0 0B       		.uleb128 0xb
 1192 02e1 24060000 		.4byte	.LASF44
 1193 02e5 05       		.byte	0x5
 1194 02e6 6B       		.byte	0x6b
 1195 02e7 45000000 		.4byte	0x45
 1196 02eb 02       		.byte	0x2
 1197 02ec 23       		.byte	0x23
 1198 02ed 04       		.uleb128 0x4
 1199 02ee 00       		.byte	0x0
 1200 02ef 0F       		.uleb128 0xf
 1201 02f0 04       		.byte	0x4
 1202 02f1 30000000 		.4byte	0x30
 1203 02f5 0D       		.uleb128 0xd
 1204 02f6 62050000 		.4byte	.LASF45
 1205 02fa 68       		.byte	0x68
 1206 02fb 05       		.byte	0x5
 1207 02fc A9       		.byte	0xa9
 1208 02fd 4F040000 		.4byte	0x44f
 1209 0301 0E       		.uleb128 0xe
 1210 0302 5F7000   		.ascii	"_p\000"
 1211 0305 05       		.byte	0x5
 1212 0306 AA       		.byte	0xaa
ARM GAS  /tmp/ccna6WhB.s 			page 26


 1213 0307 EF020000 		.4byte	0x2ef
 1214 030b 02       		.byte	0x2
 1215 030c 23       		.byte	0x23
 1216 030d 00       		.uleb128 0x0
 1217 030e 0E       		.uleb128 0xe
 1218 030f 5F7200   		.ascii	"_r\000"
 1219 0312 05       		.byte	0x5
 1220 0313 AB       		.byte	0xab
 1221 0314 45000000 		.4byte	0x45
 1222 0318 02       		.byte	0x2
 1223 0319 23       		.byte	0x23
 1224 031a 04       		.uleb128 0x4
 1225 031b 0E       		.uleb128 0xe
 1226 031c 5F7700   		.ascii	"_w\000"
 1227 031f 05       		.byte	0x5
 1228 0320 AC       		.byte	0xac
 1229 0321 45000000 		.4byte	0x45
 1230 0325 02       		.byte	0x2
 1231 0326 23       		.byte	0x23
 1232 0327 08       		.uleb128 0x8
 1233 0328 0B       		.uleb128 0xb
 1234 0329 AC010000 		.4byte	.LASF46
 1235 032d 05       		.byte	0x5
 1236 032e AD       		.byte	0xad
 1237 032f 37000000 		.4byte	0x37
 1238 0333 02       		.byte	0x2
 1239 0334 23       		.byte	0x23
 1240 0335 0C       		.uleb128 0xc
 1241 0336 0B       		.uleb128 0xb
 1242 0337 11030000 		.4byte	.LASF47
 1243 033b 05       		.byte	0x5
 1244 033c AE       		.byte	0xae
 1245 033d 37000000 		.4byte	0x37
 1246 0341 02       		.byte	0x2
 1247 0342 23       		.byte	0x23
 1248 0343 0E       		.uleb128 0xe
 1249 0344 0E       		.uleb128 0xe
 1250 0345 5F626600 		.ascii	"_bf\000"
 1251 0349 05       		.byte	0x5
 1252 034a AF       		.byte	0xaf
 1253 034b C6020000 		.4byte	0x2c6
 1254 034f 02       		.byte	0x2
 1255 0350 23       		.byte	0x23
 1256 0351 10       		.uleb128 0x10
 1257 0352 0B       		.uleb128 0xb
 1258 0353 8D000000 		.4byte	.LASF48
 1259 0357 05       		.byte	0x5
 1260 0358 B0       		.byte	0xb0
 1261 0359 45000000 		.4byte	0x45
 1262 035d 02       		.byte	0x2
 1263 035e 23       		.byte	0x23
 1264 035f 18       		.uleb128 0x18
 1265 0360 0B       		.uleb128 0xb
 1266 0361 82010000 		.4byte	.LASF49
 1267 0365 05       		.byte	0x5
 1268 0366 B7       		.byte	0xb7
 1269 0367 F4000000 		.4byte	0xf4
ARM GAS  /tmp/ccna6WhB.s 			page 27


 1270 036b 02       		.byte	0x2
 1271 036c 23       		.byte	0x23
 1272 036d 1C       		.uleb128 0x1c
 1273 036e 0B       		.uleb128 0xb
 1274 036f BC020000 		.4byte	.LASF50
 1275 0373 05       		.byte	0x5
 1276 0374 B9       		.byte	0xb9
 1277 0375 DF050000 		.4byte	0x5df
 1278 0379 02       		.byte	0x2
 1279 037a 23       		.byte	0x23
 1280 037b 20       		.uleb128 0x20
 1281 037c 0B       		.uleb128 0xb
 1282 037d D6030000 		.4byte	.LASF51
 1283 0381 05       		.byte	0x5
 1284 0382 BB       		.byte	0xbb
 1285 0383 0F060000 		.4byte	0x60f
 1286 0387 02       		.byte	0x2
 1287 0388 23       		.byte	0x23
 1288 0389 24       		.uleb128 0x24
 1289 038a 0B       		.uleb128 0xb
 1290 038b ED050000 		.4byte	.LASF52
 1291 038f 05       		.byte	0x5
 1292 0390 BD       		.byte	0xbd
 1293 0391 34060000 		.4byte	0x634
 1294 0395 02       		.byte	0x2
 1295 0396 23       		.byte	0x23
 1296 0397 28       		.uleb128 0x28
 1297 0398 0B       		.uleb128 0xb
 1298 0399 E5000000 		.4byte	.LASF53
 1299 039d 05       		.byte	0x5
 1300 039e BE       		.byte	0xbe
 1301 039f 4F060000 		.4byte	0x64f
 1302 03a3 02       		.byte	0x2
 1303 03a4 23       		.byte	0x23
 1304 03a5 2C       		.uleb128 0x2c
 1305 03a6 0E       		.uleb128 0xe
 1306 03a7 5F756200 		.ascii	"_ub\000"
 1307 03ab 05       		.byte	0x5
 1308 03ac C1       		.byte	0xc1
 1309 03ad C6020000 		.4byte	0x2c6
 1310 03b1 02       		.byte	0x2
 1311 03b2 23       		.byte	0x23
 1312 03b3 30       		.uleb128 0x30
 1313 03b4 0E       		.uleb128 0xe
 1314 03b5 5F757000 		.ascii	"_up\000"
 1315 03b9 05       		.byte	0x5
 1316 03ba C2       		.byte	0xc2
 1317 03bb EF020000 		.4byte	0x2ef
 1318 03bf 02       		.byte	0x2
 1319 03c0 23       		.byte	0x23
 1320 03c1 38       		.uleb128 0x38
 1321 03c2 0E       		.uleb128 0xe
 1322 03c3 5F757200 		.ascii	"_ur\000"
 1323 03c7 05       		.byte	0x5
 1324 03c8 C3       		.byte	0xc3
 1325 03c9 45000000 		.4byte	0x45
 1326 03cd 02       		.byte	0x2
ARM GAS  /tmp/ccna6WhB.s 			page 28


 1327 03ce 23       		.byte	0x23
 1328 03cf 3C       		.uleb128 0x3c
 1329 03d0 0B       		.uleb128 0xb
 1330 03d1 07010000 		.4byte	.LASF54
 1331 03d5 05       		.byte	0x5
 1332 03d6 C6       		.byte	0xc6
 1333 03d7 55060000 		.4byte	0x655
 1334 03db 02       		.byte	0x2
 1335 03dc 23       		.byte	0x23
 1336 03dd 40       		.uleb128 0x40
 1337 03de 0B       		.uleb128 0xb
 1338 03df 59070000 		.4byte	.LASF55
 1339 03e3 05       		.byte	0x5
 1340 03e4 C7       		.byte	0xc7
 1341 03e5 65060000 		.4byte	0x665
 1342 03e9 02       		.byte	0x2
 1343 03ea 23       		.byte	0x23
 1344 03eb 43       		.uleb128 0x43
 1345 03ec 0E       		.uleb128 0xe
 1346 03ed 5F6C6200 		.ascii	"_lb\000"
 1347 03f1 05       		.byte	0x5
 1348 03f2 CA       		.byte	0xca
 1349 03f3 C6020000 		.4byte	0x2c6
 1350 03f7 02       		.byte	0x2
 1351 03f8 23       		.byte	0x23
 1352 03f9 44       		.uleb128 0x44
 1353 03fa 0B       		.uleb128 0xb
 1354 03fb 11060000 		.4byte	.LASF56
 1355 03ff 05       		.byte	0x5
 1356 0400 CD       		.byte	0xcd
 1357 0401 45000000 		.4byte	0x45
 1358 0405 02       		.byte	0x2
 1359 0406 23       		.byte	0x23
 1360 0407 4C       		.uleb128 0x4c
 1361 0408 0B       		.uleb128 0xb
 1362 0409 31040000 		.4byte	.LASF57
 1363 040d 05       		.byte	0x5
 1364 040e CE       		.byte	0xce
 1365 040f 45000000 		.4byte	0x45
 1366 0413 02       		.byte	0x2
 1367 0414 23       		.byte	0x23
 1368 0415 50       		.uleb128 0x50
 1369 0416 0B       		.uleb128 0xb
 1370 0417 25030000 		.4byte	.LASF58
 1371 041b 05       		.byte	0x5
 1372 041c D1       		.byte	0xd1
 1373 041d 6E040000 		.4byte	0x46e
 1374 0421 02       		.byte	0x2
 1375 0422 23       		.byte	0x23
 1376 0423 54       		.uleb128 0x54
 1377 0424 0B       		.uleb128 0xb
 1378 0425 BB030000 		.4byte	.LASF59
 1379 0429 05       		.byte	0x5
 1380 042a D5       		.byte	0xd5
 1381 042b E9000000 		.4byte	0xe9
 1382 042f 02       		.byte	0x2
 1383 0430 23       		.byte	0x23
ARM GAS  /tmp/ccna6WhB.s 			page 29


 1384 0431 58       		.uleb128 0x58
 1385 0432 0B       		.uleb128 0xb
 1386 0433 39000000 		.4byte	.LASF60
 1387 0437 05       		.byte	0x5
 1388 0438 D7       		.byte	0xd7
 1389 0439 DE000000 		.4byte	0xde
 1390 043d 02       		.byte	0x2
 1391 043e 23       		.byte	0x23
 1392 043f 5C       		.uleb128 0x5c
 1393 0440 0B       		.uleb128 0xb
 1394 0441 46050000 		.4byte	.LASF61
 1395 0445 05       		.byte	0x5
 1396 0446 D8       		.byte	0xd8
 1397 0447 45000000 		.4byte	0x45
 1398 044b 02       		.byte	0x2
 1399 044c 23       		.byte	0x23
 1400 044d 64       		.uleb128 0x64
 1401 044e 00       		.byte	0x0
 1402 044f 12       		.uleb128 0x12
 1403 0450 01       		.byte	0x1
 1404 0451 45000000 		.4byte	0x45
 1405 0455 6E040000 		.4byte	0x46e
 1406 0459 13       		.uleb128 0x13
 1407 045a 6E040000 		.4byte	0x46e
 1408 045e 13       		.uleb128 0x13
 1409 045f F4000000 		.4byte	0xf4
 1410 0463 13       		.uleb128 0x13
 1411 0464 D2050000 		.4byte	0x5d2
 1412 0468 13       		.uleb128 0x13
 1413 0469 45000000 		.4byte	0x45
 1414 046d 00       		.byte	0x0
 1415 046e 0F       		.uleb128 0xf
 1416 046f 04       		.byte	0x4
 1417 0470 74040000 		.4byte	0x474
 1418 0474 14       		.uleb128 0x14
 1419 0475 BC050000 		.4byte	.LASF62
 1420 0479 2804     		.2byte	0x428
 1421 047b 05       		.byte	0x5
 1422 047c 4402     		.2byte	0x244
 1423 047e D2050000 		.4byte	0x5d2
 1424 0482 15       		.uleb128 0x15
 1425 0483 05060000 		.4byte	.LASF63
 1426 0487 05       		.byte	0x5
 1427 0488 4602     		.2byte	0x246
 1428 048a 45000000 		.4byte	0x45
 1429 048e 02       		.byte	0x2
 1430 048f 23       		.byte	0x23
 1431 0490 00       		.uleb128 0x0
 1432 0491 15       		.uleb128 0x15
 1433 0492 BB010000 		.4byte	.LASF64
 1434 0496 05       		.byte	0x5
 1435 0497 4B02     		.2byte	0x24b
 1436 0499 C2060000 		.4byte	0x6c2
 1437 049d 02       		.byte	0x2
 1438 049e 23       		.byte	0x23
 1439 049f 04       		.uleb128 0x4
 1440 04a0 15       		.uleb128 0x15
ARM GAS  /tmp/ccna6WhB.s 			page 30


 1441 04a1 DE020000 		.4byte	.LASF65
 1442 04a5 05       		.byte	0x5
 1443 04a6 4B02     		.2byte	0x24b
 1444 04a8 C2060000 		.4byte	0x6c2
 1445 04ac 02       		.byte	0x2
 1446 04ad 23       		.byte	0x23
 1447 04ae 08       		.uleb128 0x8
 1448 04af 15       		.uleb128 0x15
 1449 04b0 56060000 		.4byte	.LASF66
 1450 04b4 05       		.byte	0x5
 1451 04b5 4B02     		.2byte	0x24b
 1452 04b7 C2060000 		.4byte	0x6c2
 1453 04bb 02       		.byte	0x2
 1454 04bc 23       		.byte	0x23
 1455 04bd 0C       		.uleb128 0xc
 1456 04be 15       		.uleb128 0x15
 1457 04bf 90050000 		.4byte	.LASF67
 1458 04c3 05       		.byte	0x5
 1459 04c4 4D02     		.2byte	0x24d
 1460 04c6 45000000 		.4byte	0x45
 1461 04ca 02       		.byte	0x2
 1462 04cb 23       		.byte	0x23
 1463 04cc 10       		.uleb128 0x10
 1464 04cd 15       		.uleb128 0x15
 1465 04ce 26000000 		.4byte	.LASF68
 1466 04d2 05       		.byte	0x5
 1467 04d3 4E02     		.2byte	0x24e
 1468 04d5 DD080000 		.4byte	0x8dd
 1469 04d9 02       		.byte	0x2
 1470 04da 23       		.byte	0x23
 1471 04db 14       		.uleb128 0x14
 1472 04dc 15       		.uleb128 0x15
 1473 04dd DC060000 		.4byte	.LASF69
 1474 04e1 05       		.byte	0x5
 1475 04e2 5002     		.2byte	0x250
 1476 04e4 45000000 		.4byte	0x45
 1477 04e8 02       		.byte	0x2
 1478 04e9 23       		.byte	0x23
 1479 04ea 30       		.uleb128 0x30
 1480 04eb 15       		.uleb128 0x15
 1481 04ec 9A050000 		.4byte	.LASF70
 1482 04f0 05       		.byte	0x5
 1483 04f1 5102     		.2byte	0x251
 1484 04f3 04060000 		.4byte	0x604
 1485 04f7 02       		.byte	0x2
 1486 04f8 23       		.byte	0x23
 1487 04f9 34       		.uleb128 0x34
 1488 04fa 15       		.uleb128 0x15
 1489 04fb 76040000 		.4byte	.LASF71
 1490 04ff 05       		.byte	0x5
 1491 0500 5302     		.2byte	0x253
 1492 0502 45000000 		.4byte	0x45
 1493 0506 02       		.byte	0x2
 1494 0507 23       		.byte	0x23
 1495 0508 38       		.uleb128 0x38
 1496 0509 15       		.uleb128 0x15
 1497 050a 0E070000 		.4byte	.LASF72
ARM GAS  /tmp/ccna6WhB.s 			page 31


 1498 050e 05       		.byte	0x5
 1499 050f 5502     		.2byte	0x255
 1500 0511 F9080000 		.4byte	0x8f9
 1501 0515 02       		.byte	0x2
 1502 0516 23       		.byte	0x23
 1503 0517 3C       		.uleb128 0x3c
 1504 0518 15       		.uleb128 0x15
 1505 0519 8C030000 		.4byte	.LASF73
 1506 051d 05       		.byte	0x5
 1507 051e 5802     		.2byte	0x258
 1508 0520 67010000 		.4byte	0x167
 1509 0524 02       		.byte	0x2
 1510 0525 23       		.byte	0x23
 1511 0526 40       		.uleb128 0x40
 1512 0527 15       		.uleb128 0x15
 1513 0528 D2010000 		.4byte	.LASF74
 1514 052c 05       		.byte	0x5
 1515 052d 5902     		.2byte	0x259
 1516 052f 45000000 		.4byte	0x45
 1517 0533 02       		.byte	0x2
 1518 0534 23       		.byte	0x23
 1519 0535 44       		.uleb128 0x44
 1520 0536 15       		.uleb128 0x15
 1521 0537 CA070000 		.4byte	.LASF75
 1522 053b 05       		.byte	0x5
 1523 053c 5A02     		.2byte	0x25a
 1524 053e 67010000 		.4byte	0x167
 1525 0542 02       		.byte	0x2
 1526 0543 23       		.byte	0x23
 1527 0544 48       		.uleb128 0x48
 1528 0545 15       		.uleb128 0x15
 1529 0546 C0040000 		.4byte	.LASF76
 1530 054a 05       		.byte	0x5
 1531 054b 5B02     		.2byte	0x25b
 1532 054d FF080000 		.4byte	0x8ff
 1533 0551 02       		.byte	0x2
 1534 0552 23       		.byte	0x23
 1535 0553 4C       		.uleb128 0x4c
 1536 0554 15       		.uleb128 0x15
 1537 0555 EE020000 		.4byte	.LASF77
 1538 0559 05       		.byte	0x5
 1539 055a 5E02     		.2byte	0x25e
 1540 055c 45000000 		.4byte	0x45
 1541 0560 02       		.byte	0x2
 1542 0561 23       		.byte	0x23
 1543 0562 50       		.uleb128 0x50
 1544 0563 15       		.uleb128 0x15
 1545 0564 07020000 		.4byte	.LASF78
 1546 0568 05       		.byte	0x5
 1547 0569 5F02     		.2byte	0x25f
 1548 056b D2050000 		.4byte	0x5d2
 1549 056f 02       		.byte	0x2
 1550 0570 23       		.byte	0x23
 1551 0571 54       		.uleb128 0x54
 1552 0572 15       		.uleb128 0x15
 1553 0573 B6030000 		.4byte	.LASF79
 1554 0577 05       		.byte	0x5
ARM GAS  /tmp/ccna6WhB.s 			page 32


 1555 0578 8202     		.2byte	0x282
 1556 057a BB080000 		.4byte	0x8bb
 1557 057e 02       		.byte	0x2
 1558 057f 23       		.byte	0x23
 1559 0580 58       		.uleb128 0x58
 1560 0581 15       		.uleb128 0x15
 1561 0582 6E040000 		.4byte	.LASF39
 1562 0586 05       		.byte	0x5
 1563 0587 8502     		.2byte	0x285
 1564 0589 A8020000 		.4byte	0x2a8
 1565 058d 03       		.byte	0x3
 1566 058e 23       		.byte	0x23
 1567 058f C802     		.uleb128 0x148
 1568 0591 15       		.uleb128 0x15
 1569 0592 4E000000 		.4byte	.LASF80
 1570 0596 05       		.byte	0x5
 1571 0597 8602     		.2byte	0x286
 1572 0599 61020000 		.4byte	0x261
 1573 059d 03       		.byte	0x3
 1574 059e 23       		.byte	0x23
 1575 059f CC02     		.uleb128 0x14c
 1576 05a1 15       		.uleb128 0x15
 1577 05a2 46070000 		.4byte	.LASF81
 1578 05a6 05       		.byte	0x5
 1579 05a7 8902     		.2byte	0x289
 1580 05a9 11090000 		.4byte	0x911
 1581 05ad 03       		.byte	0x3
 1582 05ae 23       		.byte	0x23
 1583 05af DC05     		.uleb128 0x2dc
 1584 05b1 15       		.uleb128 0x15
 1585 05b2 92010000 		.4byte	.LASF82
 1586 05b6 05       		.byte	0x5
 1587 05b7 8E02     		.2byte	0x28e
 1588 05b9 81060000 		.4byte	0x681
 1589 05bd 03       		.byte	0x3
 1590 05be 23       		.byte	0x23
 1591 05bf E005     		.uleb128 0x2e0
 1592 05c1 15       		.uleb128 0x15
 1593 05c2 48010000 		.4byte	.LASF83
 1594 05c6 05       		.byte	0x5
 1595 05c7 8F02     		.2byte	0x28f
 1596 05c9 1D090000 		.4byte	0x91d
 1597 05cd 03       		.byte	0x3
 1598 05ce 23       		.byte	0x23
 1599 05cf EC05     		.uleb128 0x2ec
 1600 05d1 00       		.byte	0x0
 1601 05d2 0F       		.uleb128 0xf
 1602 05d3 04       		.byte	0x4
 1603 05d4 D8050000 		.4byte	0x5d8
 1604 05d8 02       		.uleb128 0x2
 1605 05d9 01       		.byte	0x1
 1606 05da 08       		.byte	0x8
 1607 05db 0C060000 		.4byte	.LASF84
 1608 05df 0F       		.uleb128 0xf
 1609 05e0 04       		.byte	0x4
 1610 05e1 4F040000 		.4byte	0x44f
 1611 05e5 12       		.uleb128 0x12
ARM GAS  /tmp/ccna6WhB.s 			page 33


 1612 05e6 01       		.byte	0x1
 1613 05e7 45000000 		.4byte	0x45
 1614 05eb 04060000 		.4byte	0x604
 1615 05ef 13       		.uleb128 0x13
 1616 05f0 6E040000 		.4byte	0x46e
 1617 05f4 13       		.uleb128 0x13
 1618 05f5 F4000000 		.4byte	0xf4
 1619 05f9 13       		.uleb128 0x13
 1620 05fa 04060000 		.4byte	0x604
 1621 05fe 13       		.uleb128 0x13
 1622 05ff 45000000 		.4byte	0x45
 1623 0603 00       		.byte	0x0
 1624 0604 0F       		.uleb128 0xf
 1625 0605 04       		.byte	0x4
 1626 0606 0A060000 		.4byte	0x60a
 1627 060a 16       		.uleb128 0x16
 1628 060b D8050000 		.4byte	0x5d8
 1629 060f 0F       		.uleb128 0xf
 1630 0610 04       		.byte	0x4
 1631 0611 E5050000 		.4byte	0x5e5
 1632 0615 12       		.uleb128 0x12
 1633 0616 01       		.byte	0x1
 1634 0617 73000000 		.4byte	0x73
 1635 061b 34060000 		.4byte	0x634
 1636 061f 13       		.uleb128 0x13
 1637 0620 6E040000 		.4byte	0x46e
 1638 0624 13       		.uleb128 0x13
 1639 0625 F4000000 		.4byte	0xf4
 1640 0629 13       		.uleb128 0x13
 1641 062a 73000000 		.4byte	0x73
 1642 062e 13       		.uleb128 0x13
 1643 062f 45000000 		.4byte	0x45
 1644 0633 00       		.byte	0x0
 1645 0634 0F       		.uleb128 0xf
 1646 0635 04       		.byte	0x4
 1647 0636 15060000 		.4byte	0x615
 1648 063a 12       		.uleb128 0x12
 1649 063b 01       		.byte	0x1
 1650 063c 45000000 		.4byte	0x45
 1651 0640 4F060000 		.4byte	0x64f
 1652 0644 13       		.uleb128 0x13
 1653 0645 6E040000 		.4byte	0x46e
 1654 0649 13       		.uleb128 0x13
 1655 064a F4000000 		.4byte	0xf4
 1656 064e 00       		.byte	0x0
 1657 064f 0F       		.uleb128 0xf
 1658 0650 04       		.byte	0x4
 1659 0651 3A060000 		.4byte	0x63a
 1660 0655 08       		.uleb128 0x8
 1661 0656 30000000 		.4byte	0x30
 1662 065a 65060000 		.4byte	0x665
 1663 065e 09       		.uleb128 0x9
 1664 065f 4C000000 		.4byte	0x4c
 1665 0663 02       		.byte	0x2
 1666 0664 00       		.byte	0x0
 1667 0665 08       		.uleb128 0x8
 1668 0666 30000000 		.4byte	0x30
ARM GAS  /tmp/ccna6WhB.s 			page 34


 1669 066a 75060000 		.4byte	0x675
 1670 066e 09       		.uleb128 0x9
 1671 066f 4C000000 		.4byte	0x4c
 1672 0673 00       		.byte	0x0
 1673 0674 00       		.byte	0x0
 1674 0675 05       		.uleb128 0x5
 1675 0676 C2010000 		.4byte	.LASF85
 1676 067a 05       		.byte	0x5
 1677 067b 1101     		.2byte	0x111
 1678 067d F5020000 		.4byte	0x2f5
 1679 0681 17       		.uleb128 0x17
 1680 0682 1D070000 		.4byte	.LASF86
 1681 0686 0C       		.byte	0xc
 1682 0687 05       		.byte	0x5
 1683 0688 1501     		.2byte	0x115
 1684 068a BC060000 		.4byte	0x6bc
 1685 068e 15       		.uleb128 0x15
 1686 068f A3020000 		.4byte	.LASF19
 1687 0693 05       		.byte	0x5
 1688 0694 1701     		.2byte	0x117
 1689 0696 BC060000 		.4byte	0x6bc
 1690 069a 02       		.byte	0x2
 1691 069b 23       		.byte	0x23
 1692 069c 00       		.uleb128 0x0
 1693 069d 15       		.uleb128 0x15
 1694 069e 33030000 		.4byte	.LASF87
 1695 06a2 05       		.byte	0x5
 1696 06a3 1801     		.2byte	0x118
 1697 06a5 45000000 		.4byte	0x45
 1698 06a9 02       		.byte	0x2
 1699 06aa 23       		.byte	0x23
 1700 06ab 04       		.uleb128 0x4
 1701 06ac 15       		.uleb128 0x15
 1702 06ad 1B050000 		.4byte	.LASF88
 1703 06b1 05       		.byte	0x5
 1704 06b2 1901     		.2byte	0x119
 1705 06b4 C2060000 		.4byte	0x6c2
 1706 06b8 02       		.byte	0x2
 1707 06b9 23       		.byte	0x23
 1708 06ba 08       		.uleb128 0x8
 1709 06bb 00       		.byte	0x0
 1710 06bc 0F       		.uleb128 0xf
 1711 06bd 04       		.byte	0x4
 1712 06be 81060000 		.4byte	0x681
 1713 06c2 0F       		.uleb128 0xf
 1714 06c3 04       		.byte	0x4
 1715 06c4 75060000 		.4byte	0x675
 1716 06c8 17       		.uleb128 0x17
 1717 06c9 1E000000 		.4byte	.LASF89
 1718 06cd 0E       		.byte	0xe
 1719 06ce 05       		.byte	0x5
 1720 06cf 3101     		.2byte	0x131
 1721 06d1 03070000 		.4byte	0x703
 1722 06d5 15       		.uleb128 0x15
 1723 06d6 C3050000 		.4byte	.LASF90
 1724 06da 05       		.byte	0x5
 1725 06db 3201     		.2byte	0x132
ARM GAS  /tmp/ccna6WhB.s 			page 35


 1726 06dd 03070000 		.4byte	0x703
 1727 06e1 02       		.byte	0x2
 1728 06e2 23       		.byte	0x23
 1729 06e3 00       		.uleb128 0x0
 1730 06e4 15       		.uleb128 0x15
 1731 06e5 C1030000 		.4byte	.LASF91
 1732 06e9 05       		.byte	0x5
 1733 06ea 3301     		.2byte	0x133
 1734 06ec 03070000 		.4byte	0x703
 1735 06f0 02       		.byte	0x2
 1736 06f1 23       		.byte	0x23
 1737 06f2 06       		.uleb128 0x6
 1738 06f3 15       		.uleb128 0x15
 1739 06f4 9F060000 		.4byte	.LASF92
 1740 06f8 05       		.byte	0x5
 1741 06f9 3401     		.2byte	0x134
 1742 06fb 3E000000 		.4byte	0x3e
 1743 06ff 02       		.byte	0x2
 1744 0700 23       		.byte	0x23
 1745 0701 0C       		.uleb128 0xc
 1746 0702 00       		.byte	0x0
 1747 0703 08       		.uleb128 0x8
 1748 0704 3E000000 		.4byte	0x3e
 1749 0708 13070000 		.4byte	0x713
 1750 070c 09       		.uleb128 0x9
 1751 070d 4C000000 		.4byte	0x4c
 1752 0711 02       		.byte	0x2
 1753 0712 00       		.byte	0x0
 1754 0713 18       		.uleb128 0x18
 1755 0714 D0       		.byte	0xd0
 1756 0715 05       		.byte	0x5
 1757 0716 6302     		.2byte	0x263
 1758 0718 43080000 		.4byte	0x843
 1759 071c 15       		.uleb128 0x15
 1760 071d 01070000 		.4byte	.LASF93
 1761 0721 05       		.byte	0x5
 1762 0722 6502     		.2byte	0x265
 1763 0724 4C000000 		.4byte	0x4c
 1764 0728 02       		.byte	0x2
 1765 0729 23       		.byte	0x23
 1766 072a 00       		.uleb128 0x0
 1767 072b 15       		.uleb128 0x15
 1768 072c 38020000 		.4byte	.LASF94
 1769 0730 05       		.byte	0x5
 1770 0731 6602     		.2byte	0x266
 1771 0733 D2050000 		.4byte	0x5d2
 1772 0737 02       		.byte	0x2
 1773 0738 23       		.byte	0x23
 1774 0739 04       		.uleb128 0x4
 1775 073a 15       		.uleb128 0x15
 1776 073b 77030000 		.4byte	.LASF95
 1777 073f 05       		.byte	0x5
 1778 0740 6702     		.2byte	0x267
 1779 0742 43080000 		.4byte	0x843
 1780 0746 02       		.byte	0x2
 1781 0747 23       		.byte	0x23
 1782 0748 08       		.uleb128 0x8
ARM GAS  /tmp/ccna6WhB.s 			page 36


 1783 0749 15       		.uleb128 0x15
 1784 074a 82070000 		.4byte	.LASF96
 1785 074e 05       		.byte	0x5
 1786 074f 6802     		.2byte	0x268
 1787 0751 7D010000 		.4byte	0x17d
 1788 0755 02       		.byte	0x2
 1789 0756 23       		.byte	0x23
 1790 0757 24       		.uleb128 0x24
 1791 0758 15       		.uleb128 0x15
 1792 0759 81040000 		.4byte	.LASF97
 1793 075d 05       		.byte	0x5
 1794 075e 6902     		.2byte	0x269
 1795 0760 45000000 		.4byte	0x45
 1796 0764 02       		.byte	0x2
 1797 0765 23       		.byte	0x23
 1798 0766 48       		.uleb128 0x48
 1799 0767 15       		.uleb128 0x15
 1800 0768 4E030000 		.4byte	.LASF98
 1801 076c 05       		.byte	0x5
 1802 076d 6A02     		.2byte	0x26a
 1803 076f 5A000000 		.4byte	0x5a
 1804 0773 02       		.byte	0x2
 1805 0774 23       		.byte	0x23
 1806 0775 50       		.uleb128 0x50
 1807 0776 15       		.uleb128 0x15
 1808 0777 A3070000 		.4byte	.LASF99
 1809 077b 05       		.byte	0x5
 1810 077c 6B02     		.2byte	0x26b
 1811 077e C8060000 		.4byte	0x6c8
 1812 0782 02       		.byte	0x2
 1813 0783 23       		.byte	0x23
 1814 0784 58       		.uleb128 0x58
 1815 0785 15       		.uleb128 0x15
 1816 0786 83050000 		.4byte	.LASF100
 1817 078a 05       		.byte	0x5
 1818 078b 6C02     		.2byte	0x26c
 1819 078d DE000000 		.4byte	0xde
 1820 0791 02       		.byte	0x2
 1821 0792 23       		.byte	0x23
 1822 0793 68       		.uleb128 0x68
 1823 0794 15       		.uleb128 0x15
 1824 0795 BC070000 		.4byte	.LASF101
 1825 0799 05       		.byte	0x5
 1826 079a 6D02     		.2byte	0x26d
 1827 079c DE000000 		.4byte	0xde
 1828 07a0 02       		.byte	0x2
 1829 07a1 23       		.byte	0x23
 1830 07a2 70       		.uleb128 0x70
 1831 07a3 15       		.uleb128 0x15
 1832 07a4 CE000000 		.4byte	.LASF102
 1833 07a8 05       		.byte	0x5
 1834 07a9 6E02     		.2byte	0x26e
 1835 07ab DE000000 		.4byte	0xde
 1836 07af 02       		.byte	0x2
 1837 07b0 23       		.byte	0x23
 1838 07b1 78       		.uleb128 0x78
 1839 07b2 15       		.uleb128 0x15
ARM GAS  /tmp/ccna6WhB.s 			page 37


 1840 07b3 34070000 		.4byte	.LASF103
 1841 07b7 05       		.byte	0x5
 1842 07b8 6F02     		.2byte	0x26f
 1843 07ba 53080000 		.4byte	0x853
 1844 07be 03       		.byte	0x3
 1845 07bf 23       		.byte	0x23
 1846 07c0 8001     		.uleb128 0x80
 1847 07c2 15       		.uleb128 0x15
 1848 07c3 6B030000 		.4byte	.LASF104
 1849 07c7 05       		.byte	0x5
 1850 07c8 7002     		.2byte	0x270
 1851 07ca 63080000 		.4byte	0x863
 1852 07ce 03       		.byte	0x3
 1853 07cf 23       		.byte	0x23
 1854 07d0 8801     		.uleb128 0x88
 1855 07d2 15       		.uleb128 0x15
 1856 07d3 B7060000 		.4byte	.LASF105
 1857 07d7 05       		.byte	0x5
 1858 07d8 7102     		.2byte	0x271
 1859 07da 45000000 		.4byte	0x45
 1860 07de 03       		.byte	0x3
 1861 07df 23       		.byte	0x23
 1862 07e0 A001     		.uleb128 0xa0
 1863 07e2 15       		.uleb128 0x15
 1864 07e3 45020000 		.4byte	.LASF106
 1865 07e7 05       		.byte	0x5
 1866 07e8 7202     		.2byte	0x272
 1867 07ea DE000000 		.4byte	0xde
 1868 07ee 03       		.byte	0x3
 1869 07ef 23       		.byte	0x23
 1870 07f0 A401     		.uleb128 0xa4
 1871 07f2 15       		.uleb128 0x15
 1872 07f3 C4060000 		.4byte	.LASF107
 1873 07f7 05       		.byte	0x5
 1874 07f8 7302     		.2byte	0x273
 1875 07fa DE000000 		.4byte	0xde
 1876 07fe 03       		.byte	0x3
 1877 07ff 23       		.byte	0x23
 1878 0800 AC01     		.uleb128 0xac
 1879 0802 15       		.uleb128 0x15
 1880 0803 27020000 		.4byte	.LASF108
 1881 0807 05       		.byte	0x5
 1882 0808 7402     		.2byte	0x274
 1883 080a DE000000 		.4byte	0xde
 1884 080e 03       		.byte	0x3
 1885 080f 23       		.byte	0x23
 1886 0810 B401     		.uleb128 0xb4
 1887 0812 15       		.uleb128 0x15
 1888 0813 90060000 		.4byte	.LASF109
 1889 0817 05       		.byte	0x5
 1890 0818 7502     		.2byte	0x275
 1891 081a DE000000 		.4byte	0xde
 1892 081e 03       		.byte	0x3
 1893 081f 23       		.byte	0x23
 1894 0820 BC01     		.uleb128 0xbc
 1895 0822 15       		.uleb128 0x15
 1896 0823 65000000 		.4byte	.LASF110
ARM GAS  /tmp/ccna6WhB.s 			page 38


 1897 0827 05       		.byte	0x5
 1898 0828 7602     		.2byte	0x276
 1899 082a DE000000 		.4byte	0xde
 1900 082e 03       		.byte	0x3
 1901 082f 23       		.byte	0x23
 1902 0830 C401     		.uleb128 0xc4
 1903 0832 15       		.uleb128 0x15
 1904 0833 2A050000 		.4byte	.LASF111
 1905 0837 05       		.byte	0x5
 1906 0838 7702     		.2byte	0x277
 1907 083a 45000000 		.4byte	0x45
 1908 083e 03       		.byte	0x3
 1909 083f 23       		.byte	0x23
 1910 0840 CC01     		.uleb128 0xcc
 1911 0842 00       		.byte	0x0
 1912 0843 08       		.uleb128 0x8
 1913 0844 D8050000 		.4byte	0x5d8
 1914 0848 53080000 		.4byte	0x853
 1915 084c 09       		.uleb128 0x9
 1916 084d 4C000000 		.4byte	0x4c
 1917 0851 19       		.byte	0x19
 1918 0852 00       		.byte	0x0
 1919 0853 08       		.uleb128 0x8
 1920 0854 D8050000 		.4byte	0x5d8
 1921 0858 63080000 		.4byte	0x863
 1922 085c 09       		.uleb128 0x9
 1923 085d 4C000000 		.4byte	0x4c
 1924 0861 07       		.byte	0x7
 1925 0862 00       		.byte	0x0
 1926 0863 08       		.uleb128 0x8
 1927 0864 D8050000 		.4byte	0x5d8
 1928 0868 73080000 		.4byte	0x873
 1929 086c 09       		.uleb128 0x9
 1930 086d 4C000000 		.4byte	0x4c
 1931 0871 17       		.byte	0x17
 1932 0872 00       		.byte	0x0
 1933 0873 18       		.uleb128 0x18
 1934 0874 F0       		.byte	0xf0
 1935 0875 05       		.byte	0x5
 1936 0876 7C02     		.2byte	0x27c
 1937 0878 9B080000 		.4byte	0x89b
 1938 087c 15       		.uleb128 0x15
 1939 087d 42040000 		.4byte	.LASF112
 1940 0881 05       		.byte	0x5
 1941 0882 7F02     		.2byte	0x27f
 1942 0884 9B080000 		.4byte	0x89b
 1943 0888 02       		.byte	0x2
 1944 0889 23       		.byte	0x23
 1945 088a 00       		.uleb128 0x0
 1946 088b 15       		.uleb128 0x15
 1947 088c F1030000 		.4byte	.LASF113
 1948 0890 05       		.byte	0x5
 1949 0891 8002     		.2byte	0x280
 1950 0893 AB080000 		.4byte	0x8ab
 1951 0897 02       		.byte	0x2
 1952 0898 23       		.byte	0x23
 1953 0899 78       		.uleb128 0x78
ARM GAS  /tmp/ccna6WhB.s 			page 39


 1954 089a 00       		.byte	0x0
 1955 089b 08       		.uleb128 0x8
 1956 089c EF020000 		.4byte	0x2ef
 1957 08a0 AB080000 		.4byte	0x8ab
 1958 08a4 09       		.uleb128 0x9
 1959 08a5 4C000000 		.4byte	0x4c
 1960 08a9 1D       		.byte	0x1d
 1961 08aa 00       		.byte	0x0
 1962 08ab 08       		.uleb128 0x8
 1963 08ac 4C000000 		.4byte	0x4c
 1964 08b0 BB080000 		.4byte	0x8bb
 1965 08b4 09       		.uleb128 0x9
 1966 08b5 4C000000 		.4byte	0x4c
 1967 08b9 1D       		.byte	0x1d
 1968 08ba 00       		.byte	0x0
 1969 08bb 19       		.uleb128 0x19
 1970 08bc F0       		.byte	0xf0
 1971 08bd 05       		.byte	0x5
 1972 08be 6102     		.2byte	0x261
 1973 08c0 DD080000 		.4byte	0x8dd
 1974 08c4 1A       		.uleb128 0x1a
 1975 08c5 BC050000 		.4byte	.LASF62
 1976 08c9 05       		.byte	0x5
 1977 08ca 7802     		.2byte	0x278
 1978 08cc 13070000 		.4byte	0x713
 1979 08d0 1A       		.uleb128 0x1a
 1980 08d1 5F070000 		.4byte	.LASF114
 1981 08d5 05       		.byte	0x5
 1982 08d6 8102     		.2byte	0x281
 1983 08d8 73080000 		.4byte	0x873
 1984 08dc 00       		.byte	0x0
 1985 08dd 08       		.uleb128 0x8
 1986 08de D8050000 		.4byte	0x5d8
 1987 08e2 ED080000 		.4byte	0x8ed
 1988 08e6 09       		.uleb128 0x9
 1989 08e7 4C000000 		.4byte	0x4c
 1990 08eb 18       		.byte	0x18
 1991 08ec 00       		.byte	0x0
 1992 08ed 1B       		.uleb128 0x1b
 1993 08ee 01       		.byte	0x1
 1994 08ef F9080000 		.4byte	0x8f9
 1995 08f3 13       		.uleb128 0x13
 1996 08f4 6E040000 		.4byte	0x46e
 1997 08f8 00       		.byte	0x0
 1998 08f9 0F       		.uleb128 0xf
 1999 08fa 04       		.byte	0x4
 2000 08fb ED080000 		.4byte	0x8ed
 2001 08ff 0F       		.uleb128 0xf
 2002 0900 04       		.byte	0x4
 2003 0901 67010000 		.4byte	0x167
 2004 0905 1B       		.uleb128 0x1b
 2005 0906 01       		.byte	0x1
 2006 0907 11090000 		.4byte	0x911
 2007 090b 13       		.uleb128 0x13
 2008 090c 45000000 		.4byte	0x45
 2009 0910 00       		.byte	0x0
 2010 0911 0F       		.uleb128 0xf
ARM GAS  /tmp/ccna6WhB.s 			page 40


 2011 0912 04       		.byte	0x4
 2012 0913 17090000 		.4byte	0x917
 2013 0917 0F       		.uleb128 0xf
 2014 0918 04       		.byte	0x4
 2015 0919 05090000 		.4byte	0x905
 2016 091d 08       		.uleb128 0x8
 2017 091e 75060000 		.4byte	0x675
 2018 0922 2D090000 		.4byte	0x92d
 2019 0926 09       		.uleb128 0x9
 2020 0927 4C000000 		.4byte	0x4c
 2021 092b 02       		.byte	0x2
 2022 092c 00       		.byte	0x0
 2023 092d 04       		.uleb128 0x4
 2024 092e 2C070000 		.4byte	.LASF115
 2025 0932 06       		.byte	0x6
 2026 0933 2A       		.byte	0x2a
 2027 0934 30000000 		.4byte	0x30
 2028 0938 04       		.uleb128 0x4
 2029 0939 EE060000 		.4byte	.LASF116
 2030 093d 06       		.byte	0x6
 2031 093e 50       		.byte	0x50
 2032 093f 01010000 		.4byte	0x101
 2033 0943 1C       		.uleb128 0x1c
 2034 0944 01010000 		.4byte	0x101
 2035 0948 16       		.uleb128 0x16
 2036 0949 43090000 		.4byte	0x943
 2037 094d 08       		.uleb128 0x8
 2038 094e 01010000 		.4byte	0x101
 2039 0952 5D090000 		.4byte	0x95d
 2040 0956 09       		.uleb128 0x9
 2041 0957 4C000000 		.4byte	0x4c
 2042 095b 12       		.byte	0x12
 2043 095c 00       		.byte	0x0
 2044 095d 08       		.uleb128 0x8
 2045 095e 01010000 		.4byte	0x101
 2046 0962 6D090000 		.4byte	0x96d
 2047 0966 09       		.uleb128 0x9
 2048 0967 4C000000 		.4byte	0x4c
 2049 096b 00       		.byte	0x0
 2050 096c 00       		.byte	0x0
 2051 096d 08       		.uleb128 0x8
 2052 096e 01010000 		.4byte	0x101
 2053 0972 7D090000 		.4byte	0x97d
 2054 0976 09       		.uleb128 0x9
 2055 0977 4C000000 		.4byte	0x4c
 2056 097b 01       		.byte	0x1
 2057 097c 00       		.byte	0x0
 2058 097d 08       		.uleb128 0x8
 2059 097e 01010000 		.4byte	0x101
 2060 0982 8D090000 		.4byte	0x98d
 2061 0986 09       		.uleb128 0x9
 2062 0987 4C000000 		.4byte	0x4c
 2063 098b 04       		.byte	0x4
 2064 098c 00       		.byte	0x0
 2065 098d 1D       		.uleb128 0x1d
 2066 098e 9001     		.2byte	0x190
 2067 0990 07       		.byte	0x7
ARM GAS  /tmp/ccna6WhB.s 			page 41


 2068 0991 E006     		.2byte	0x6e0
 2069 0993 3A0E0000 		.4byte	0xe3a
 2070 0997 15       		.uleb128 0x15
 2071 0998 C7020000 		.4byte	.LASF117
 2072 099c 07       		.byte	0x7
 2073 099d E106     		.2byte	0x6e1
 2074 099f 43090000 		.4byte	0x943
 2075 09a3 02       		.byte	0x2
 2076 09a4 23       		.byte	0x23
 2077 09a5 00       		.uleb128 0x0
 2078 09a6 15       		.uleb128 0x15
 2079 09a7 8A010000 		.4byte	.LASF118
 2080 09ab 07       		.byte	0x7
 2081 09ac E206     		.2byte	0x6e2
 2082 09ae 43090000 		.4byte	0x943
 2083 09b2 02       		.byte	0x2
 2084 09b3 23       		.byte	0x23
 2085 09b4 04       		.uleb128 0x4
 2086 09b5 15       		.uleb128 0x15
 2087 09b6 18010000 		.4byte	.LASF119
 2088 09ba 07       		.byte	0x7
 2089 09bb E306     		.2byte	0x6e3
 2090 09bd 48090000 		.4byte	0x948
 2091 09c1 02       		.byte	0x2
 2092 09c2 23       		.byte	0x23
 2093 09c3 08       		.uleb128 0x8
 2094 09c4 15       		.uleb128 0x15
 2095 09c5 20010000 		.4byte	.LASF120
 2096 09c9 07       		.byte	0x7
 2097 09ca E406     		.2byte	0x6e4
 2098 09cc 3A0E0000 		.4byte	0xe3a
 2099 09d0 02       		.byte	0x2
 2100 09d1 23       		.byte	0x23
 2101 09d2 0C       		.uleb128 0xc
 2102 09d3 15       		.uleb128 0x15
 2103 09d4 29040000 		.4byte	.LASF121
 2104 09d8 07       		.byte	0x7
 2105 09d9 E506     		.2byte	0x6e5
 2106 09db 43090000 		.4byte	0x943
 2107 09df 02       		.byte	0x2
 2108 09e0 23       		.byte	0x23
 2109 09e1 10       		.uleb128 0x10
 2110 09e2 15       		.uleb128 0x15
 2111 09e3 1D030000 		.4byte	.LASF122
 2112 09e7 07       		.byte	0x7
 2113 09e8 E606     		.2byte	0x6e6
 2114 09ea 43090000 		.4byte	0x943
 2115 09ee 02       		.byte	0x2
 2116 09ef 23       		.byte	0x23
 2117 09f0 14       		.uleb128 0x14
 2118 09f1 15       		.uleb128 0x15
 2119 09f2 E6020000 		.4byte	.LASF123
 2120 09f6 07       		.byte	0x7
 2121 09f7 E706     		.2byte	0x6e7
 2122 09f9 48090000 		.4byte	0x948
 2123 09fd 02       		.byte	0x2
 2124 09fe 23       		.byte	0x23
ARM GAS  /tmp/ccna6WhB.s 			page 42


 2125 09ff 18       		.uleb128 0x18
 2126 0a00 15       		.uleb128 0x15
 2127 0a01 2A010000 		.4byte	.LASF124
 2128 0a05 07       		.byte	0x7
 2129 0a06 E806     		.2byte	0x6e8
 2130 0a08 3F0E0000 		.4byte	0xe3f
 2131 0a0c 02       		.byte	0x2
 2132 0a0d 23       		.byte	0x23
 2133 0a0e 1C       		.uleb128 0x1c
 2134 0a0f 15       		.uleb128 0x15
 2135 0a10 65040000 		.4byte	.LASF125
 2136 0a14 07       		.byte	0x7
 2137 0a15 E906     		.2byte	0x6e9
 2138 0a17 43090000 		.4byte	0x943
 2139 0a1b 02       		.byte	0x2
 2140 0a1c 23       		.byte	0x23
 2141 0a1d 20       		.uleb128 0x20
 2142 0a1e 15       		.uleb128 0x15
 2143 0a1f 4E050000 		.4byte	.LASF126
 2144 0a23 07       		.byte	0x7
 2145 0a24 EA06     		.2byte	0x6ea
 2146 0a26 43090000 		.4byte	0x943
 2147 0a2a 02       		.byte	0x2
 2148 0a2b 23       		.byte	0x23
 2149 0a2c 24       		.uleb128 0x24
 2150 0a2d 15       		.uleb128 0x15
 2151 0a2e 21050000 		.4byte	.LASF127
 2152 0a32 07       		.byte	0x7
 2153 0a33 EB06     		.2byte	0x6eb
 2154 0a35 48090000 		.4byte	0x948
 2155 0a39 02       		.byte	0x2
 2156 0a3a 23       		.byte	0x23
 2157 0a3b 28       		.uleb128 0x28
 2158 0a3c 15       		.uleb128 0x15
 2159 0a3d 34010000 		.4byte	.LASF128
 2160 0a41 07       		.byte	0x7
 2161 0a42 EC06     		.2byte	0x6ec
 2162 0a44 440E0000 		.4byte	0xe44
 2163 0a48 02       		.byte	0x2
 2164 0a49 23       		.byte	0x23
 2165 0a4a 2C       		.uleb128 0x2c
 2166 0a4b 15       		.uleb128 0x15
 2167 0a4c A8070000 		.4byte	.LASF129
 2168 0a50 07       		.byte	0x7
 2169 0a51 ED06     		.2byte	0x6ed
 2170 0a53 43090000 		.4byte	0x943
 2171 0a57 02       		.byte	0x2
 2172 0a58 23       		.byte	0x23
 2173 0a59 30       		.uleb128 0x30
 2174 0a5a 15       		.uleb128 0x15
 2175 0a5b 6A050000 		.4byte	.LASF130
 2176 0a5f 07       		.byte	0x7
 2177 0a60 EE06     		.2byte	0x6ee
 2178 0a62 43090000 		.4byte	0x943
 2179 0a66 02       		.byte	0x2
 2180 0a67 23       		.byte	0x23
 2181 0a68 34       		.uleb128 0x34
ARM GAS  /tmp/ccna6WhB.s 			page 43


 2182 0a69 15       		.uleb128 0x15
 2183 0a6a 90040000 		.4byte	.LASF131
 2184 0a6e 07       		.byte	0x7
 2185 0a6f EF06     		.2byte	0x6ef
 2186 0a71 43090000 		.4byte	0x943
 2187 0a75 02       		.byte	0x2
 2188 0a76 23       		.byte	0x23
 2189 0a77 38       		.uleb128 0x38
 2190 0a78 15       		.uleb128 0x15
 2191 0a79 0F020000 		.4byte	.LASF132
 2192 0a7d 07       		.byte	0x7
 2193 0a7e F006     		.2byte	0x6f0
 2194 0a80 48090000 		.4byte	0x948
 2195 0a84 02       		.byte	0x2
 2196 0a85 23       		.byte	0x23
 2197 0a86 3C       		.uleb128 0x3c
 2198 0a87 15       		.uleb128 0x15
 2199 0a88 B8040000 		.4byte	.LASF133
 2200 0a8c 07       		.byte	0x7
 2201 0a8d F106     		.2byte	0x6f1
 2202 0a8f 43090000 		.4byte	0x943
 2203 0a93 02       		.byte	0x2
 2204 0a94 23       		.byte	0x23
 2205 0a95 40       		.uleb128 0x40
 2206 0a96 15       		.uleb128 0x15
 2207 0a97 C7030000 		.4byte	.LASF134
 2208 0a9b 07       		.byte	0x7
 2209 0a9c F206     		.2byte	0x6f2
 2210 0a9e 43090000 		.4byte	0x943
 2211 0aa2 02       		.byte	0x2
 2212 0aa3 23       		.byte	0x23
 2213 0aa4 44       		.uleb128 0x44
 2214 0aa5 15       		.uleb128 0x15
 2215 0aa6 7B050000 		.4byte	.LASF135
 2216 0aaa 07       		.byte	0x7
 2217 0aab F306     		.2byte	0x6f3
 2218 0aad 48090000 		.4byte	0x948
 2219 0ab1 02       		.byte	0x2
 2220 0ab2 23       		.byte	0x23
 2221 0ab3 48       		.uleb128 0x48
 2222 0ab4 15       		.uleb128 0x15
 2223 0ab5 18020000 		.4byte	.LASF136
 2224 0ab9 07       		.byte	0x7
 2225 0aba F406     		.2byte	0x6f4
 2226 0abc 48090000 		.4byte	0x948
 2227 0ac0 02       		.byte	0x2
 2228 0ac1 23       		.byte	0x23
 2229 0ac2 4C       		.uleb128 0x4c
 2230 0ac3 15       		.uleb128 0x15
 2231 0ac4 D1050000 		.4byte	.LASF137
 2232 0ac8 07       		.byte	0x7
 2233 0ac9 F506     		.2byte	0x6f5
 2234 0acb 43090000 		.4byte	0x943
 2235 0acf 02       		.byte	0x2
 2236 0ad0 23       		.byte	0x23
 2237 0ad1 50       		.uleb128 0x50
 2238 0ad2 15       		.uleb128 0x15
ARM GAS  /tmp/ccna6WhB.s 			page 44


 2239 0ad3 CA040000 		.4byte	.LASF138
 2240 0ad7 07       		.byte	0x7
 2241 0ad8 F606     		.2byte	0x6f6
 2242 0ada 43090000 		.4byte	0x943
 2243 0ade 02       		.byte	0x2
 2244 0adf 23       		.byte	0x23
 2245 0ae0 54       		.uleb128 0x54
 2246 0ae1 15       		.uleb128 0x15
 2247 0ae2 99040000 		.4byte	.LASF139
 2248 0ae6 07       		.byte	0x7
 2249 0ae7 F706     		.2byte	0x6f7
 2250 0ae9 48090000 		.4byte	0x948
 2251 0aed 02       		.byte	0x2
 2252 0aee 23       		.byte	0x23
 2253 0aef 58       		.uleb128 0x58
 2254 0af0 15       		.uleb128 0x15
 2255 0af1 3E010000 		.4byte	.LASF140
 2256 0af5 07       		.byte	0x7
 2257 0af6 F806     		.2byte	0x6f8
 2258 0af8 490E0000 		.4byte	0xe49
 2259 0afc 02       		.byte	0x2
 2260 0afd 23       		.byte	0x23
 2261 0afe 5C       		.uleb128 0x5c
 2262 0aff 15       		.uleb128 0x15
 2263 0b00 A3010000 		.4byte	.LASF141
 2264 0b04 07       		.byte	0x7
 2265 0b05 F906     		.2byte	0x6f9
 2266 0b07 43090000 		.4byte	0x943
 2267 0b0b 02       		.byte	0x2
 2268 0b0c 23       		.byte	0x23
 2269 0b0d 60       		.uleb128 0x60
 2270 0b0e 15       		.uleb128 0x15
 2271 0b0f 49040000 		.4byte	.LASF142
 2272 0b13 07       		.byte	0x7
 2273 0b14 FA06     		.2byte	0x6fa
 2274 0b16 43090000 		.4byte	0x943
 2275 0b1a 02       		.byte	0x2
 2276 0b1b 23       		.byte	0x23
 2277 0b1c 64       		.uleb128 0x64
 2278 0b1d 15       		.uleb128 0x15
 2279 0b1e C5000000 		.4byte	.LASF143
 2280 0b22 07       		.byte	0x7
 2281 0b23 FB06     		.2byte	0x6fb
 2282 0b25 48090000 		.4byte	0x948
 2283 0b29 02       		.byte	0x2
 2284 0b2a 23       		.byte	0x23
 2285 0b2b 68       		.uleb128 0x68
 2286 0b2c 15       		.uleb128 0x15
 2287 0b2d 3A030000 		.4byte	.LASF144
 2288 0b31 07       		.byte	0x7
 2289 0b32 FC06     		.2byte	0x6fc
 2290 0b34 4E0E0000 		.4byte	0xe4e
 2291 0b38 02       		.byte	0x2
 2292 0b39 23       		.byte	0x23
 2293 0b3a 6C       		.uleb128 0x6c
 2294 0b3b 15       		.uleb128 0x15
 2295 0b3c 53020000 		.4byte	.LASF145
ARM GAS  /tmp/ccna6WhB.s 			page 45


 2296 0b40 07       		.byte	0x7
 2297 0b41 FD06     		.2byte	0x6fd
 2298 0b43 530E0000 		.4byte	0xe53
 2299 0b47 02       		.byte	0x2
 2300 0b48 23       		.byte	0x23
 2301 0b49 70       		.uleb128 0x70
 2302 0b4a 15       		.uleb128 0x15
 2303 0b4b 44030000 		.4byte	.LASF146
 2304 0b4f 07       		.byte	0x7
 2305 0b50 FE06     		.2byte	0x6fe
 2306 0b52 580E0000 		.4byte	0xe58
 2307 0b56 02       		.byte	0x2
 2308 0b57 23       		.byte	0x23
 2309 0b58 78       		.uleb128 0x78
 2310 0b59 15       		.uleb128 0x15
 2311 0b5a B1070000 		.4byte	.LASF147
 2312 0b5e 07       		.byte	0x7
 2313 0b5f FF06     		.2byte	0x6ff
 2314 0b61 43090000 		.4byte	0x943
 2315 0b65 03       		.byte	0x3
 2316 0b66 23       		.byte	0x23
 2317 0b67 8001     		.uleb128 0x80
 2318 0b69 15       		.uleb128 0x15
 2319 0b6a 6C070000 		.4byte	.LASF148
 2320 0b6e 07       		.byte	0x7
 2321 0b6f 0007     		.2byte	0x700
 2322 0b71 43090000 		.4byte	0x943
 2323 0b75 03       		.byte	0x3
 2324 0b76 23       		.byte	0x23
 2325 0b77 8401     		.uleb128 0x84
 2326 0b79 15       		.uleb128 0x15
 2327 0b7a 37060000 		.4byte	.LASF149
 2328 0b7e 07       		.byte	0x7
 2329 0b7f 0107     		.2byte	0x701
 2330 0b81 48090000 		.4byte	0x948
 2331 0b85 03       		.byte	0x3
 2332 0b86 23       		.byte	0x23
 2333 0b87 8801     		.uleb128 0x88
 2334 0b89 15       		.uleb128 0x15
 2335 0b8a BC000000 		.4byte	.LASF150
 2336 0b8e 07       		.byte	0x7
 2337 0b8f 0207     		.2byte	0x702
 2338 0b91 43090000 		.4byte	0x943
 2339 0b95 03       		.byte	0x3
 2340 0b96 23       		.byte	0x23
 2341 0b97 8C01     		.uleb128 0x8c
 2342 0b99 15       		.uleb128 0x15
 2343 0b9a A9040000 		.4byte	.LASF151
 2344 0b9e 07       		.byte	0x7
 2345 0b9f 0307     		.2byte	0x703
 2346 0ba1 43090000 		.4byte	0x943
 2347 0ba5 03       		.byte	0x3
 2348 0ba6 23       		.byte	0x23
 2349 0ba7 9001     		.uleb128 0x90
 2350 0ba9 15       		.uleb128 0x15
 2351 0baa AA050000 		.4byte	.LASF152
 2352 0bae 07       		.byte	0x7
ARM GAS  /tmp/ccna6WhB.s 			page 46


 2353 0baf 0407     		.2byte	0x704
 2354 0bb1 43090000 		.4byte	0x943
 2355 0bb5 03       		.byte	0x3
 2356 0bb6 23       		.byte	0x23
 2357 0bb7 9401     		.uleb128 0x94
 2358 0bb9 15       		.uleb128 0x15
 2359 0bba 52040000 		.4byte	.LASF153
 2360 0bbe 07       		.byte	0x7
 2361 0bbf 0507     		.2byte	0x705
 2362 0bc1 48090000 		.4byte	0x948
 2363 0bc5 03       		.byte	0x3
 2364 0bc6 23       		.byte	0x23
 2365 0bc7 9801     		.uleb128 0x98
 2366 0bc9 15       		.uleb128 0x15
 2367 0bca 5B010000 		.4byte	.LASF154
 2368 0bce 07       		.byte	0x7
 2369 0bcf 0607     		.2byte	0x706
 2370 0bd1 5D0E0000 		.4byte	0xe5d
 2371 0bd5 03       		.byte	0x3
 2372 0bd6 23       		.byte	0x23
 2373 0bd7 9C01     		.uleb128 0x9c
 2374 0bd9 15       		.uleb128 0x15
 2375 0bda 5C000000 		.4byte	.LASF155
 2376 0bde 07       		.byte	0x7
 2377 0bdf 0707     		.2byte	0x707
 2378 0be1 43090000 		.4byte	0x943
 2379 0be5 03       		.byte	0x3
 2380 0be6 23       		.byte	0x23
 2381 0be7 A001     		.uleb128 0xa0
 2382 0be9 15       		.uleb128 0x15
 2383 0bea 9A070000 		.4byte	.LASF156
 2384 0bee 07       		.byte	0x7
 2385 0bef 0807     		.2byte	0x708
 2386 0bf1 43090000 		.4byte	0x943
 2387 0bf5 03       		.byte	0x3
 2388 0bf6 23       		.byte	0x23
 2389 0bf7 A401     		.uleb128 0xa4
 2390 0bf9 15       		.uleb128 0x15
 2391 0bfa 50070000 		.4byte	.LASF157
 2392 0bfe 07       		.byte	0x7
 2393 0bff 0907     		.2byte	0x709
 2394 0c01 48090000 		.4byte	0x948
 2395 0c05 03       		.byte	0x3
 2396 0c06 23       		.byte	0x23
 2397 0c07 A801     		.uleb128 0xa8
 2398 0c09 15       		.uleb128 0x15
 2399 0c0a 61030000 		.4byte	.LASF158
 2400 0c0e 07       		.byte	0x7
 2401 0c0f 0A07     		.2byte	0x70a
 2402 0c11 620E0000 		.4byte	0xe62
 2403 0c15 03       		.byte	0x3
 2404 0c16 23       		.byte	0x23
 2405 0c17 AC01     		.uleb128 0xac
 2406 0c19 15       		.uleb128 0x15
 2407 0c1a AC030000 		.4byte	.LASF159
 2408 0c1e 07       		.byte	0x7
 2409 0c1f 0B07     		.2byte	0x70b
ARM GAS  /tmp/ccna6WhB.s 			page 47


 2410 0c21 43090000 		.4byte	0x943
 2411 0c25 03       		.byte	0x3
 2412 0c26 23       		.byte	0x23
 2413 0c27 B001     		.uleb128 0xb0
 2414 0c29 15       		.uleb128 0x15
 2415 0c2a 1A060000 		.4byte	.LASF160
 2416 0c2e 07       		.byte	0x7
 2417 0c2f 0C07     		.2byte	0x70c
 2418 0c31 43090000 		.4byte	0x943
 2419 0c35 03       		.byte	0x3
 2420 0c36 23       		.byte	0x23
 2421 0c37 B401     		.uleb128 0xb4
 2422 0c39 15       		.uleb128 0x15
 2423 0c3a E7030000 		.4byte	.LASF161
 2424 0c3e 07       		.byte	0x7
 2425 0c3f 0D07     		.2byte	0x70d
 2426 0c41 48090000 		.4byte	0x948
 2427 0c45 03       		.byte	0x3
 2428 0c46 23       		.byte	0x23
 2429 0c47 B801     		.uleb128 0xb8
 2430 0c49 15       		.uleb128 0x15
 2431 0c4a 71010000 		.4byte	.LASF162
 2432 0c4e 07       		.byte	0x7
 2433 0c4f 0E07     		.2byte	0x70e
 2434 0c51 670E0000 		.4byte	0xe67
 2435 0c55 03       		.byte	0x3
 2436 0c56 23       		.byte	0x23
 2437 0c57 BC01     		.uleb128 0xbc
 2438 0c59 15       		.uleb128 0x15
 2439 0c5a FF000000 		.4byte	.LASF163
 2440 0c5e 07       		.byte	0x7
 2441 0c5f 0F07     		.2byte	0x70f
 2442 0c61 43090000 		.4byte	0x943
 2443 0c65 03       		.byte	0x3
 2444 0c66 23       		.byte	0x23
 2445 0c67 C001     		.uleb128 0xc0
 2446 0c69 15       		.uleb128 0x15
 2447 0c6a 5E020000 		.4byte	.LASF164
 2448 0c6e 07       		.byte	0x7
 2449 0c6f 1007     		.2byte	0x710
 2450 0c71 43090000 		.4byte	0x943
 2451 0c75 03       		.byte	0x3
 2452 0c76 23       		.byte	0x23
 2453 0c77 C401     		.uleb128 0xc4
 2454 0c79 15       		.uleb128 0x15
 2455 0c7a D3060000 		.4byte	.LASF165
 2456 0c7e 07       		.byte	0x7
 2457 0c7f 1107     		.2byte	0x711
 2458 0c81 48090000 		.4byte	0x948
 2459 0c85 03       		.byte	0x3
 2460 0c86 23       		.byte	0x23
 2461 0c87 C801     		.uleb128 0xc8
 2462 0c89 15       		.uleb128 0x15
 2463 0c8a 0D010000 		.4byte	.LASF166
 2464 0c8e 07       		.byte	0x7
 2465 0c8f 1207     		.2byte	0x712
 2466 0c91 6C0E0000 		.4byte	0xe6c
ARM GAS  /tmp/ccna6WhB.s 			page 48


 2467 0c95 03       		.byte	0x3
 2468 0c96 23       		.byte	0x23
 2469 0c97 CC01     		.uleb128 0xcc
 2470 0c99 15       		.uleb128 0x15
 2471 0c9a EE040000 		.4byte	.LASF167
 2472 0c9e 07       		.byte	0x7
 2473 0c9f 1307     		.2byte	0x713
 2474 0ca1 43090000 		.4byte	0x943
 2475 0ca5 03       		.byte	0x3
 2476 0ca6 23       		.byte	0x23
 2477 0ca7 D001     		.uleb128 0xd0
 2478 0ca9 15       		.uleb128 0x15
 2479 0caa E2050000 		.4byte	.LASF168
 2480 0cae 07       		.byte	0x7
 2481 0caf 1407     		.2byte	0x714
 2482 0cb1 43090000 		.4byte	0x943
 2483 0cb5 03       		.byte	0x3
 2484 0cb6 23       		.byte	0x23
 2485 0cb7 D401     		.uleb128 0xd4
 2486 0cb9 15       		.uleb128 0x15
 2487 0cba AC060000 		.4byte	.LASF169
 2488 0cbe 07       		.byte	0x7
 2489 0cbf 1507     		.2byte	0x715
 2490 0cc1 48090000 		.4byte	0x948
 2491 0cc5 03       		.byte	0x3
 2492 0cc6 23       		.byte	0x23
 2493 0cc7 D801     		.uleb128 0xd8
 2494 0cc9 15       		.uleb128 0x15
 2495 0cca 82020000 		.4byte	.LASF170
 2496 0cce 07       		.byte	0x7
 2497 0ccf 1607     		.2byte	0x716
 2498 0cd1 710E0000 		.4byte	0xe71
 2499 0cd5 03       		.byte	0x3
 2500 0cd6 23       		.byte	0x23
 2501 0cd7 DC01     		.uleb128 0xdc
 2502 0cd9 15       		.uleb128 0x15
 2503 0cda 9A030000 		.4byte	.LASF171
 2504 0cde 07       		.byte	0x7
 2505 0cdf 1707     		.2byte	0x717
 2506 0ce1 48090000 		.4byte	0x948
 2507 0ce5 03       		.byte	0x3
 2508 0ce6 23       		.byte	0x23
 2509 0ce7 E001     		.uleb128 0xe0
 2510 0ce9 15       		.uleb128 0x15
 2511 0cea 39040000 		.4byte	.LASF172
 2512 0cee 07       		.byte	0x7
 2513 0cef 1807     		.2byte	0x718
 2514 0cf1 43090000 		.4byte	0x943
 2515 0cf5 03       		.byte	0x3
 2516 0cf6 23       		.byte	0x23
 2517 0cf7 E401     		.uleb128 0xe4
 2518 0cf9 15       		.uleb128 0x15
 2519 0cfa B3020000 		.4byte	.LASF173
 2520 0cfe 07       		.byte	0x7
 2521 0cff 1907     		.2byte	0x719
 2522 0d01 48090000 		.4byte	0x948
 2523 0d05 03       		.byte	0x3
ARM GAS  /tmp/ccna6WhB.s 			page 49


 2524 0d06 23       		.byte	0x23
 2525 0d07 E801     		.uleb128 0xe8
 2526 0d09 15       		.uleb128 0x15
 2527 0d0a 8D020000 		.4byte	.LASF174
 2528 0d0e 07       		.byte	0x7
 2529 0d0f 1A07     		.2byte	0x71a
 2530 0d11 760E0000 		.4byte	0xe76
 2531 0d15 03       		.byte	0x3
 2532 0d16 23       		.byte	0x23
 2533 0d17 EC01     		.uleb128 0xec
 2534 0d19 15       		.uleb128 0x15
 2535 0d1a 42000000 		.4byte	.LASF175
 2536 0d1e 07       		.byte	0x7
 2537 0d1f 1B07     		.2byte	0x71b
 2538 0d21 43090000 		.4byte	0x943
 2539 0d25 03       		.byte	0x3
 2540 0d26 23       		.byte	0x23
 2541 0d27 8002     		.uleb128 0x100
 2542 0d29 15       		.uleb128 0x15
 2543 0d2a 98020000 		.4byte	.LASF176
 2544 0d2e 07       		.byte	0x7
 2545 0d2f 1C07     		.2byte	0x71c
 2546 0d31 7B0E0000 		.4byte	0xe7b
 2547 0d35 03       		.byte	0x3
 2548 0d36 23       		.byte	0x23
 2549 0d37 8402     		.uleb128 0x104
 2550 0d39 15       		.uleb128 0x15
 2551 0d3a C9010000 		.4byte	.LASF177
 2552 0d3e 07       		.byte	0x7
 2553 0d3f 1D07     		.2byte	0x71d
 2554 0d41 43090000 		.4byte	0x943
 2555 0d45 03       		.byte	0x3
 2556 0d46 23       		.byte	0x23
 2557 0d47 D002     		.uleb128 0x150
 2558 0d49 15       		.uleb128 0x15
 2559 0d4a FD010000 		.4byte	.LASF178
 2560 0d4e 07       		.byte	0x7
 2561 0d4f 1E07     		.2byte	0x71e
 2562 0d51 43090000 		.4byte	0x943
 2563 0d55 03       		.byte	0x3
 2564 0d56 23       		.byte	0x23
 2565 0d57 D402     		.uleb128 0x154
 2566 0d59 15       		.uleb128 0x15
 2567 0d5a 96000000 		.4byte	.LASF179
 2568 0d5e 07       		.byte	0x7
 2569 0d5f 1F07     		.2byte	0x71f
 2570 0d61 43090000 		.4byte	0x943
 2571 0d65 03       		.byte	0x3
 2572 0d66 23       		.byte	0x23
 2573 0d67 D802     		.uleb128 0x158
 2574 0d69 15       		.uleb128 0x15
 2575 0d6a DC010000 		.4byte	.LASF180
 2576 0d6e 07       		.byte	0x7
 2577 0d6f 2007     		.2byte	0x720
 2578 0d71 48090000 		.4byte	0x948
 2579 0d75 03       		.byte	0x3
 2580 0d76 23       		.byte	0x23
ARM GAS  /tmp/ccna6WhB.s 			page 50


 2581 0d77 DC02     		.uleb128 0x15c
 2582 0d79 15       		.uleb128 0x15
 2583 0d7a 4C060000 		.4byte	.LASF181
 2584 0d7e 07       		.byte	0x7
 2585 0d7f 2107     		.2byte	0x721
 2586 0d81 48090000 		.4byte	0x948
 2587 0d85 03       		.byte	0x3
 2588 0d86 23       		.byte	0x23
 2589 0d87 E002     		.uleb128 0x160
 2590 0d89 15       		.uleb128 0x15
 2591 0d8a 0C000000 		.4byte	.LASF182
 2592 0d8e 07       		.byte	0x7
 2593 0d8f 2207     		.2byte	0x722
 2594 0d91 48090000 		.4byte	0x948
 2595 0d95 03       		.byte	0x3
 2596 0d96 23       		.byte	0x23
 2597 0d97 E402     		.uleb128 0x164
 2598 0d99 15       		.uleb128 0x15
 2599 0d9a 84030000 		.4byte	.LASF183
 2600 0d9e 07       		.byte	0x7
 2601 0d9f 2307     		.2byte	0x723
 2602 0da1 43090000 		.4byte	0x943
 2603 0da5 03       		.byte	0x3
 2604 0da6 23       		.byte	0x23
 2605 0da7 E802     		.uleb128 0x168
 2606 0da9 15       		.uleb128 0x15
 2607 0daa 73050000 		.4byte	.LASF184
 2608 0dae 07       		.byte	0x7
 2609 0daf 2407     		.2byte	0x724
 2610 0db1 43090000 		.4byte	0x943
 2611 0db5 03       		.byte	0x3
 2612 0db6 23       		.byte	0x23
 2613 0db7 EC02     		.uleb128 0x16c
 2614 0db9 15       		.uleb128 0x15
 2615 0dba 31000000 		.4byte	.LASF185
 2616 0dbe 07       		.byte	0x7
 2617 0dbf 2507     		.2byte	0x725
 2618 0dc1 43090000 		.4byte	0x943
 2619 0dc5 03       		.byte	0x3
 2620 0dc6 23       		.byte	0x23
 2621 0dc7 F002     		.uleb128 0x170
 2622 0dc9 15       		.uleb128 0x15
 2623 0dca D6020000 		.4byte	.LASF186
 2624 0dce 07       		.byte	0x7
 2625 0dcf 2607     		.2byte	0x726
 2626 0dd1 43090000 		.4byte	0x943
 2627 0dd5 03       		.byte	0x3
 2628 0dd6 23       		.byte	0x23
 2629 0dd7 F402     		.uleb128 0x174
 2630 0dd9 15       		.uleb128 0x15
 2631 0dda 74060000 		.4byte	.LASF187
 2632 0dde 07       		.byte	0x7
 2633 0ddf 2707     		.2byte	0x727
 2634 0de1 43090000 		.4byte	0x943
 2635 0de5 03       		.byte	0x3
 2636 0de6 23       		.byte	0x23
 2637 0de7 F802     		.uleb128 0x178
ARM GAS  /tmp/ccna6WhB.s 			page 51


 2638 0de9 15       		.uleb128 0x15
 2639 0dea A6000000 		.4byte	.LASF188
 2640 0dee 07       		.byte	0x7
 2641 0def 2807     		.2byte	0x728
 2642 0df1 43090000 		.4byte	0x943
 2643 0df5 03       		.byte	0x3
 2644 0df6 23       		.byte	0x23
 2645 0df7 FC02     		.uleb128 0x17c
 2646 0df9 15       		.uleb128 0x15
 2647 0dfa D3040000 		.4byte	.LASF189
 2648 0dfe 07       		.byte	0x7
 2649 0dff 2907     		.2byte	0x729
 2650 0e01 43090000 		.4byte	0x943
 2651 0e05 03       		.byte	0x3
 2652 0e06 23       		.byte	0x23
 2653 0e07 8003     		.uleb128 0x180
 2654 0e09 15       		.uleb128 0x15
 2655 0e0a 23070000 		.4byte	.LASF190
 2656 0e0e 07       		.byte	0x7
 2657 0e0f 2A07     		.2byte	0x72a
 2658 0e11 43090000 		.4byte	0x943
 2659 0e15 03       		.byte	0x3
 2660 0e16 23       		.byte	0x23
 2661 0e17 8403     		.uleb128 0x184
 2662 0e19 15       		.uleb128 0x15
 2663 0e1a F4010000 		.4byte	.LASF191
 2664 0e1e 07       		.byte	0x7
 2665 0e1f 2B07     		.2byte	0x72b
 2666 0e21 43090000 		.4byte	0x943
 2667 0e25 03       		.byte	0x3
 2668 0e26 23       		.byte	0x23
 2669 0e27 8803     		.uleb128 0x188
 2670 0e29 15       		.uleb128 0x15
 2671 0e2a 08030000 		.4byte	.LASF192
 2672 0e2e 07       		.byte	0x7
 2673 0e2f 2C07     		.2byte	0x72c
 2674 0e31 48090000 		.4byte	0x948
 2675 0e35 03       		.byte	0x3
 2676 0e36 23       		.byte	0x23
 2677 0e37 8C03     		.uleb128 0x18c
 2678 0e39 00       		.byte	0x0
 2679 0e3a 1C       		.uleb128 0x1c
 2680 0e3b 5D090000 		.4byte	0x95d
 2681 0e3f 1C       		.uleb128 0x1c
 2682 0e40 5D090000 		.4byte	0x95d
 2683 0e44 1C       		.uleb128 0x1c
 2684 0e45 5D090000 		.4byte	0x95d
 2685 0e49 1C       		.uleb128 0x1c
 2686 0e4a 5D090000 		.4byte	0x95d
 2687 0e4e 1C       		.uleb128 0x1c
 2688 0e4f 5D090000 		.4byte	0x95d
 2689 0e53 1C       		.uleb128 0x1c
 2690 0e54 6D090000 		.4byte	0x96d
 2691 0e58 1C       		.uleb128 0x1c
 2692 0e59 6D090000 		.4byte	0x96d
 2693 0e5d 1C       		.uleb128 0x1c
 2694 0e5e 5D090000 		.4byte	0x95d
ARM GAS  /tmp/ccna6WhB.s 			page 52


 2695 0e62 1C       		.uleb128 0x1c
 2696 0e63 5D090000 		.4byte	0x95d
 2697 0e67 1C       		.uleb128 0x1c
 2698 0e68 5D090000 		.4byte	0x95d
 2699 0e6c 1C       		.uleb128 0x1c
 2700 0e6d 5D090000 		.4byte	0x95d
 2701 0e71 1C       		.uleb128 0x1c
 2702 0e72 5D090000 		.4byte	0x95d
 2703 0e76 1C       		.uleb128 0x1c
 2704 0e77 7D090000 		.4byte	0x97d
 2705 0e7b 1C       		.uleb128 0x1c
 2706 0e7c 4D090000 		.4byte	0x94d
 2707 0e80 1E       		.uleb128 0x1e
 2708 0e81 50696F00 		.ascii	"Pio\000"
 2709 0e85 07       		.byte	0x7
 2710 0e86 2D07     		.2byte	0x72d
 2711 0e88 8D090000 		.4byte	0x98d
 2712 0e8c 18       		.uleb128 0x18
 2713 0e8d 0C       		.byte	0xc
 2714 0e8e 07       		.byte	0x7
 2715 0e8f 7C19     		.2byte	0x197c
 2716 0e91 C30E0000 		.4byte	0xec3
 2717 0e95 15       		.uleb128 0x15
 2718 0e96 F8000000 		.4byte	.LASF193
 2719 0e9a 07       		.byte	0x7
 2720 0e9b 7D19     		.2byte	0x197d
 2721 0e9d 43090000 		.4byte	0x943
 2722 0ea1 02       		.byte	0x2
 2723 0ea2 23       		.byte	0x23
 2724 0ea3 00       		.uleb128 0x0
 2725 0ea4 15       		.uleb128 0x15
 2726 0ea5 CF030000 		.4byte	.LASF194
 2727 0ea9 07       		.byte	0x7
 2728 0eaa 7E19     		.2byte	0x197e
 2729 0eac 43090000 		.4byte	0x943
 2730 0eb0 02       		.byte	0x2
 2731 0eb1 23       		.byte	0x23
 2732 0eb2 04       		.uleb128 0x4
 2733 0eb3 15       		.uleb128 0x15
 2734 0eb4 20020000 		.4byte	.LASF195
 2735 0eb8 07       		.byte	0x7
 2736 0eb9 7F19     		.2byte	0x197f
 2737 0ebb 48090000 		.4byte	0x948
 2738 0ebf 02       		.byte	0x2
 2739 0ec0 23       		.byte	0x23
 2740 0ec1 08       		.uleb128 0x8
 2741 0ec2 00       		.byte	0x0
 2742 0ec3 1E       		.uleb128 0x1e
 2743 0ec4 57647400 		.ascii	"Wdt\000"
 2744 0ec8 07       		.byte	0x7
 2745 0ec9 8019     		.2byte	0x1980
 2746 0ecb 8C0E0000 		.4byte	0xe8c
 2747 0ecf 0D       		.uleb128 0xd
 2748 0ed0 B3040000 		.4byte	.LASF196
 2749 0ed4 0C       		.byte	0xc
 2750 0ed5 08       		.byte	0x8
 2751 0ed6 A7       		.byte	0xa7
ARM GAS  /tmp/ccna6WhB.s 			page 53


 2752 0ed7 210F0000 		.4byte	0xf21
 2753 0edb 0B       		.uleb128 0xb
 2754 0edc 6B020000 		.4byte	.LASF197
 2755 0ee0 08       		.byte	0x8
 2756 0ee1 AA       		.byte	0xaa
 2757 0ee2 38090000 		.4byte	0x938
 2758 0ee6 02       		.byte	0x2
 2759 0ee7 23       		.byte	0x23
 2760 0ee8 00       		.uleb128 0x0
 2761 0ee9 0E       		.uleb128 0xe
 2762 0eea 70696F00 		.ascii	"pio\000"
 2763 0eee 08       		.byte	0x8
 2764 0eef AC       		.byte	0xac
 2765 0ef0 210F0000 		.4byte	0xf21
 2766 0ef4 02       		.byte	0x2
 2767 0ef5 23       		.byte	0x23
 2768 0ef6 04       		.uleb128 0x4
 2769 0ef7 0E       		.uleb128 0xe
 2770 0ef8 696400   		.ascii	"id\000"
 2771 0efb 08       		.byte	0x8
 2772 0efc AE       		.byte	0xae
 2773 0efd 2D090000 		.4byte	0x92d
 2774 0f01 02       		.byte	0x2
 2775 0f02 23       		.byte	0x23
 2776 0f03 08       		.uleb128 0x8
 2777 0f04 0B       		.uleb128 0xb
 2778 0f05 57000000 		.4byte	.LASF198
 2779 0f09 08       		.byte	0x8
 2780 0f0a B0       		.byte	0xb0
 2781 0f0b 2D090000 		.4byte	0x92d
 2782 0f0f 02       		.byte	0x2
 2783 0f10 23       		.byte	0x23
 2784 0f11 09       		.uleb128 0x9
 2785 0f12 0B       		.uleb128 0xb
 2786 0f13 03050000 		.4byte	.LASF199
 2787 0f17 08       		.byte	0x8
 2788 0f18 B2       		.byte	0xb2
 2789 0f19 2D090000 		.4byte	0x92d
 2790 0f1d 02       		.byte	0x2
 2791 0f1e 23       		.byte	0x23
 2792 0f1f 0A       		.uleb128 0xa
 2793 0f20 00       		.byte	0x0
 2794 0f21 0F       		.uleb128 0xf
 2795 0f22 04       		.byte	0x4
 2796 0f23 800E0000 		.4byte	0xe80
 2797 0f27 1F       		.uleb128 0x1f
 2798 0f28 50696E00 		.ascii	"Pin\000"
 2799 0f2c 08       		.byte	0x8
 2800 0f2d B3       		.byte	0xb3
 2801 0f2e CF0E0000 		.4byte	0xecf
 2802 0f32 20       		.uleb128 0x20
 2803 0f33 01       		.byte	0x1
 2804 0f34 CF070000 		.4byte	.LASF208
 2805 0f38 01       		.byte	0x1
 2806 0f39 13       		.byte	0x13
 2807 0f3a 45000000 		.4byte	0x45
 2808 0f3e 00000000 		.4byte	.LFB35
ARM GAS  /tmp/ccna6WhB.s 			page 54


 2809 0f42 30020000 		.4byte	.LFE35
 2810 0f46 00000000 		.4byte	.LLST0
 2811 0f4a A40F0000 		.4byte	0xfa4
 2812 0f4e 21       		.uleb128 0x21
 2813 0f4f 7400     		.ascii	"t\000"
 2814 0f51 01       		.byte	0x1
 2815 0f52 15       		.byte	0x15
 2816 0f53 45000000 		.4byte	0x45
 2817 0f57 02       		.byte	0x2
 2818 0f58 91       		.byte	0x91
 2819 0f59 6C       		.sleb128 -20
 2820 0f5a 22       		.uleb128 0x22
 2821 0f5b 67070000 		.4byte	.LASF200
 2822 0f5f 01       		.byte	0x1
 2823 0f60 16       		.byte	0x16
 2824 0f61 45000000 		.4byte	0x45
 2825 0f65 02       		.byte	0x2
 2826 0f66 91       		.byte	0x91
 2827 0f67 68       		.sleb128 -24
 2828 0f68 22       		.uleb128 0x22
 2829 0f69 FC060000 		.4byte	.LASF201
 2830 0f6d 01       		.byte	0x1
 2831 0f6e 17       		.byte	0x17
 2832 0f6f A40F0000 		.4byte	0xfa4
 2833 0f73 02       		.byte	0x2
 2834 0f74 91       		.byte	0x91
 2835 0f75 5C       		.sleb128 -36
 2836 0f76 22       		.uleb128 0x22
 2837 0f77 5E060000 		.4byte	.LASF202
 2838 0f7b 01       		.byte	0x1
 2839 0f7c 18       		.byte	0x18
 2840 0f7d B40F0000 		.4byte	0xfb4
 2841 0f81 03       		.byte	0x3
 2842 0f82 91       		.byte	0x91
 2843 0f83 BC7F     		.sleb128 -68
 2844 0f85 21       		.uleb128 0x21
 2845 0f86 636D6400 		.ascii	"cmd\000"
 2846 0f8a 01       		.byte	0x1
 2847 0f8b 19       		.byte	0x19
 2848 0f8c D8050000 		.4byte	0x5d8
 2849 0f90 03       		.byte	0x3
 2850 0f91 91       		.byte	0x91
 2851 0f92 BB7F     		.sleb128 -69
 2852 0f94 22       		.uleb128 0x22
 2853 0f95 59030000 		.4byte	.LASF203
 2854 0f99 01       		.byte	0x1
 2855 0f9a 1A       		.byte	0x1a
 2856 0f9b D40F0000 		.4byte	0xfd4
 2857 0f9f 03       		.byte	0x3
 2858 0fa0 91       		.byte	0x91
 2859 0fa1 A07F     		.sleb128 -96
 2860 0fa3 00       		.byte	0x0
 2861 0fa4 08       		.uleb128 0x8
 2862 0fa5 45000000 		.4byte	0x45
 2863 0fa9 B40F0000 		.4byte	0xfb4
 2864 0fad 09       		.uleb128 0x9
 2865 0fae 4C000000 		.4byte	0x4c
ARM GAS  /tmp/ccna6WhB.s 			page 55


 2866 0fb2 02       		.byte	0x2
 2867 0fb3 00       		.byte	0x0
 2868 0fb4 08       		.uleb128 0x8
 2869 0fb5 D8050000 		.4byte	0x5d8
 2870 0fb9 C40F0000 		.4byte	0xfc4
 2871 0fbd 09       		.uleb128 0x9
 2872 0fbe 4C000000 		.4byte	0x4c
 2873 0fc2 1F       		.byte	0x1f
 2874 0fc3 00       		.byte	0x0
 2875 0fc4 08       		.uleb128 0x8
 2876 0fc5 270F0000 		.4byte	0xf27
 2877 0fc9 D40F0000 		.4byte	0xfd4
 2878 0fcd 09       		.uleb128 0x9
 2879 0fce 4C000000 		.4byte	0x4c
 2880 0fd2 01       		.byte	0x1
 2881 0fd3 00       		.byte	0x0
 2882 0fd4 16       		.uleb128 0x16
 2883 0fd5 C40F0000 		.4byte	0xfc4
 2884 0fd9 23       		.uleb128 0x23
 2885 0fda 01       		.byte	0x1
 2886 0fdb DB070000 		.4byte	.LASF204
 2887 0fdf 01       		.byte	0x1
 2888 0fe0 62       		.byte	0x62
 2889 0fe1 00000000 		.4byte	.LFB36
 2890 0fe5 46000000 		.4byte	.LFE36
 2891 0fe9 3A000000 		.4byte	.LLST1
 2892 0fed 0A100000 		.4byte	0x100a
 2893 0ff1 21       		.uleb128 0x21
 2894 0ff2 7000     		.ascii	"p\000"
 2895 0ff4 01       		.byte	0x1
 2896 0ff5 64       		.byte	0x64
 2897 0ff6 0A100000 		.4byte	0x100a
 2898 0ffa 02       		.byte	0x2
 2899 0ffb 91       		.byte	0x91
 2900 0ffc 64       		.sleb128 -28
 2901 0ffd 21       		.uleb128 0x21
 2902 0ffe 7600     		.ascii	"v\000"
 2903 1000 01       		.byte	0x1
 2904 1001 65       		.byte	0x65
 2905 1002 0A100000 		.4byte	0x100a
 2906 1006 02       		.byte	0x2
 2907 1007 91       		.byte	0x91
 2908 1008 58       		.sleb128 -40
 2909 1009 00       		.byte	0x0
 2910 100a 16       		.uleb128 0x16
 2911 100b 270F0000 		.4byte	0xf27
 2912 100f 23       		.uleb128 0x23
 2913 1010 01       		.byte	0x1
 2914 1011 63060000 		.4byte	.LASF205
 2915 1015 01       		.byte	0x1
 2916 1016 69       		.byte	0x69
 2917 1017 00000000 		.4byte	.LFB37
 2918 101b 2E000000 		.4byte	.LFE37
 2919 101f 72000000 		.4byte	.LLST2
 2920 1023 36100000 		.4byte	0x1036
 2921 1027 22       		.uleb128 0x22
 2922 1028 F7060000 		.4byte	.LASF206
ARM GAS  /tmp/ccna6WhB.s 			page 56


 2923 102c 01       		.byte	0x1
 2924 102d 6B       		.byte	0x6b
 2925 102e 36100000 		.4byte	0x1036
 2926 1032 02       		.byte	0x2
 2927 1033 91       		.byte	0x91
 2928 1034 58       		.sleb128 -40
 2929 1035 00       		.byte	0x0
 2930 1036 16       		.uleb128 0x16
 2931 1037 C40F0000 		.4byte	0xfc4
 2932 103b 23       		.uleb128 0x23
 2933 103c 01       		.byte	0x1
 2934 103d 2B030000 		.4byte	.LASF207
 2935 1041 01       		.byte	0x1
 2936 1042 6F       		.byte	0x6f
 2937 1043 00000000 		.4byte	.LFB38
 2938 1047 46000000 		.4byte	.LFE38
 2939 104b AA000000 		.4byte	.LLST3
 2940 104f 6C100000 		.4byte	0x106c
 2941 1053 21       		.uleb128 0x21
 2942 1054 7000     		.ascii	"p\000"
 2943 1056 01       		.byte	0x1
 2944 1057 71       		.byte	0x71
 2945 1058 0A100000 		.4byte	0x100a
 2946 105c 02       		.byte	0x2
 2947 105d 91       		.byte	0x91
 2948 105e 64       		.sleb128 -28
 2949 105f 21       		.uleb128 0x21
 2950 1060 7600     		.ascii	"v\000"
 2951 1062 01       		.byte	0x1
 2952 1063 72       		.byte	0x72
 2953 1064 0A100000 		.4byte	0x100a
 2954 1068 02       		.byte	0x2
 2955 1069 91       		.byte	0x91
 2956 106a 58       		.sleb128 -40
 2957 106b 00       		.byte	0x0
 2958 106c 24       		.uleb128 0x24
 2959 106d 01       		.byte	0x1
 2960 106e 17030000 		.4byte	.LASF209
 2961 1072 01       		.byte	0x1
 2962 1073 76       		.byte	0x76
 2963 1074 01       		.byte	0x1
 2964 1075 00000000 		.4byte	.LFB39
 2965 1079 F0000000 		.4byte	.LFE39
 2966 107d E2000000 		.4byte	.LLST4
 2967 1081 94100000 		.4byte	0x1094
 2968 1085 25       		.uleb128 0x25
 2969 1086 6E657700 		.ascii	"new\000"
 2970 108a 01       		.byte	0x1
 2971 108b 76       		.byte	0x76
 2972 108c 2D090000 		.4byte	0x92d
 2973 1090 02       		.byte	0x2
 2974 1091 91       		.byte	0x91
 2975 1092 77       		.sleb128 -9
 2976 1093 00       		.byte	0x0
 2977 1094 26       		.uleb128 0x26
 2978 1095 76020000 		.4byte	.LASF210
 2979 1099 05       		.byte	0x5
ARM GAS  /tmp/ccna6WhB.s 			page 57


 2980 109a 3203     		.2byte	0x332
 2981 109c 6E040000 		.4byte	0x46e
 2982 10a0 01       		.byte	0x1
 2983 10a1 01       		.byte	0x1
 2984 10a2 26       		.uleb128 0x26
 2985 10a3 AF000000 		.4byte	.LASF211
 2986 10a7 09       		.byte	0x9
 2987 10a8 CE06     		.2byte	0x6ce
 2988 10aa B0100000 		.4byte	0x10b0
 2989 10ae 01       		.byte	0x1
 2990 10af 01       		.byte	0x1
 2991 10b0 1C       		.uleb128 0x1c
 2992 10b1 45000000 		.4byte	0x45
 2993 10b5 27       		.uleb128 0x27
 2994 10b6 7B010000 		.4byte	.LASF212
 2995 10ba 01       		.byte	0x1
 2996 10bb 09       		.byte	0x9
 2997 10bc 2D090000 		.4byte	0x92d
 2998 10c0 01       		.byte	0x1
 2999 10c1 01       		.byte	0x1
 3000 10c2 26       		.uleb128 0x26
 3001 10c3 76020000 		.4byte	.LASF210
 3002 10c7 05       		.byte	0x5
 3003 10c8 3203     		.2byte	0x332
 3004 10ca 6E040000 		.4byte	0x46e
 3005 10ce 01       		.byte	0x1
 3006 10cf 01       		.byte	0x1
 3007 10d0 26       		.uleb128 0x26
 3008 10d1 AF000000 		.4byte	.LASF211
 3009 10d5 09       		.byte	0x9
 3010 10d6 CE06     		.2byte	0x6ce
 3011 10d8 B0100000 		.4byte	0x10b0
 3012 10dc 01       		.byte	0x1
 3013 10dd 01       		.byte	0x1
 3014 10de 28       		.uleb128 0x28
 3015 10df 7B010000 		.4byte	.LASF212
 3016 10e3 01       		.byte	0x1
 3017 10e4 09       		.byte	0x9
 3018 10e5 2D090000 		.4byte	0x92d
 3019 10e9 01       		.byte	0x1
 3020 10ea 05       		.byte	0x5
 3021 10eb 03       		.byte	0x3
 3022 10ec 00000000 		.4byte	_state
 3023 10f0 00       		.byte	0x0
 3024              		.section	.debug_abbrev
 3025 0000 01       		.uleb128 0x1
 3026 0001 11       		.uleb128 0x11
 3027 0002 01       		.byte	0x1
 3028 0003 25       		.uleb128 0x25
 3029 0004 0E       		.uleb128 0xe
 3030 0005 13       		.uleb128 0x13
 3031 0006 0B       		.uleb128 0xb
 3032 0007 03       		.uleb128 0x3
 3033 0008 0E       		.uleb128 0xe
 3034 0009 1B       		.uleb128 0x1b
 3035 000a 0E       		.uleb128 0xe
 3036 000b 11       		.uleb128 0x11
ARM GAS  /tmp/ccna6WhB.s 			page 58


 3037 000c 01       		.uleb128 0x1
 3038 000d 52       		.uleb128 0x52
 3039 000e 01       		.uleb128 0x1
 3040 000f 55       		.uleb128 0x55
 3041 0010 06       		.uleb128 0x6
 3042 0011 10       		.uleb128 0x10
 3043 0012 06       		.uleb128 0x6
 3044 0013 00       		.byte	0x0
 3045 0014 00       		.byte	0x0
 3046 0015 02       		.uleb128 0x2
 3047 0016 24       		.uleb128 0x24
 3048 0017 00       		.byte	0x0
 3049 0018 0B       		.uleb128 0xb
 3050 0019 0B       		.uleb128 0xb
 3051 001a 3E       		.uleb128 0x3e
 3052 001b 0B       		.uleb128 0xb
 3053 001c 03       		.uleb128 0x3
 3054 001d 0E       		.uleb128 0xe
 3055 001e 00       		.byte	0x0
 3056 001f 00       		.byte	0x0
 3057 0020 03       		.uleb128 0x3
 3058 0021 24       		.uleb128 0x24
 3059 0022 00       		.byte	0x0
 3060 0023 0B       		.uleb128 0xb
 3061 0024 0B       		.uleb128 0xb
 3062 0025 3E       		.uleb128 0x3e
 3063 0026 0B       		.uleb128 0xb
 3064 0027 03       		.uleb128 0x3
 3065 0028 08       		.uleb128 0x8
 3066 0029 00       		.byte	0x0
 3067 002a 00       		.byte	0x0
 3068 002b 04       		.uleb128 0x4
 3069 002c 16       		.uleb128 0x16
 3070 002d 00       		.byte	0x0
 3071 002e 03       		.uleb128 0x3
 3072 002f 0E       		.uleb128 0xe
 3073 0030 3A       		.uleb128 0x3a
 3074 0031 0B       		.uleb128 0xb
 3075 0032 3B       		.uleb128 0x3b
 3076 0033 0B       		.uleb128 0xb
 3077 0034 49       		.uleb128 0x49
 3078 0035 13       		.uleb128 0x13
 3079 0036 00       		.byte	0x0
 3080 0037 00       		.byte	0x0
 3081 0038 05       		.uleb128 0x5
 3082 0039 16       		.uleb128 0x16
 3083 003a 00       		.byte	0x0
 3084 003b 03       		.uleb128 0x3
 3085 003c 0E       		.uleb128 0xe
 3086 003d 3A       		.uleb128 0x3a
 3087 003e 0B       		.uleb128 0xb
 3088 003f 3B       		.uleb128 0x3b
 3089 0040 05       		.uleb128 0x5
 3090 0041 49       		.uleb128 0x49
 3091 0042 13       		.uleb128 0x13
 3092 0043 00       		.byte	0x0
 3093 0044 00       		.byte	0x0
ARM GAS  /tmp/ccna6WhB.s 			page 59


 3094 0045 06       		.uleb128 0x6
 3095 0046 17       		.uleb128 0x17
 3096 0047 01       		.byte	0x1
 3097 0048 0B       		.uleb128 0xb
 3098 0049 0B       		.uleb128 0xb
 3099 004a 3A       		.uleb128 0x3a
 3100 004b 0B       		.uleb128 0xb
 3101 004c 3B       		.uleb128 0x3b
 3102 004d 0B       		.uleb128 0xb
 3103 004e 01       		.uleb128 0x1
 3104 004f 13       		.uleb128 0x13
 3105 0050 00       		.byte	0x0
 3106 0051 00       		.byte	0x0
 3107 0052 07       		.uleb128 0x7
 3108 0053 0D       		.uleb128 0xd
 3109 0054 00       		.byte	0x0
 3110 0055 03       		.uleb128 0x3
 3111 0056 0E       		.uleb128 0xe
 3112 0057 3A       		.uleb128 0x3a
 3113 0058 0B       		.uleb128 0xb
 3114 0059 3B       		.uleb128 0x3b
 3115 005a 0B       		.uleb128 0xb
 3116 005b 49       		.uleb128 0x49
 3117 005c 13       		.uleb128 0x13
 3118 005d 00       		.byte	0x0
 3119 005e 00       		.byte	0x0
 3120 005f 08       		.uleb128 0x8
 3121 0060 01       		.uleb128 0x1
 3122 0061 01       		.byte	0x1
 3123 0062 49       		.uleb128 0x49
 3124 0063 13       		.uleb128 0x13
 3125 0064 01       		.uleb128 0x1
 3126 0065 13       		.uleb128 0x13
 3127 0066 00       		.byte	0x0
 3128 0067 00       		.byte	0x0
 3129 0068 09       		.uleb128 0x9
 3130 0069 21       		.uleb128 0x21
 3131 006a 00       		.byte	0x0
 3132 006b 49       		.uleb128 0x49
 3133 006c 13       		.uleb128 0x13
 3134 006d 2F       		.uleb128 0x2f
 3135 006e 0B       		.uleb128 0xb
 3136 006f 00       		.byte	0x0
 3137 0070 00       		.byte	0x0
 3138 0071 0A       		.uleb128 0xa
 3139 0072 13       		.uleb128 0x13
 3140 0073 01       		.byte	0x1
 3141 0074 0B       		.uleb128 0xb
 3142 0075 0B       		.uleb128 0xb
 3143 0076 3A       		.uleb128 0x3a
 3144 0077 0B       		.uleb128 0xb
 3145 0078 3B       		.uleb128 0x3b
 3146 0079 0B       		.uleb128 0xb
 3147 007a 01       		.uleb128 0x1
 3148 007b 13       		.uleb128 0x13
 3149 007c 00       		.byte	0x0
 3150 007d 00       		.byte	0x0
ARM GAS  /tmp/ccna6WhB.s 			page 60


 3151 007e 0B       		.uleb128 0xb
 3152 007f 0D       		.uleb128 0xd
 3153 0080 00       		.byte	0x0
 3154 0081 03       		.uleb128 0x3
 3155 0082 0E       		.uleb128 0xe
 3156 0083 3A       		.uleb128 0x3a
 3157 0084 0B       		.uleb128 0xb
 3158 0085 3B       		.uleb128 0x3b
 3159 0086 0B       		.uleb128 0xb
 3160 0087 49       		.uleb128 0x49
 3161 0088 13       		.uleb128 0x13
 3162 0089 38       		.uleb128 0x38
 3163 008a 0A       		.uleb128 0xa
 3164 008b 00       		.byte	0x0
 3165 008c 00       		.byte	0x0
 3166 008d 0C       		.uleb128 0xc
 3167 008e 0F       		.uleb128 0xf
 3168 008f 00       		.byte	0x0
 3169 0090 0B       		.uleb128 0xb
 3170 0091 0B       		.uleb128 0xb
 3171 0092 00       		.byte	0x0
 3172 0093 00       		.byte	0x0
 3173 0094 0D       		.uleb128 0xd
 3174 0095 13       		.uleb128 0x13
 3175 0096 01       		.byte	0x1
 3176 0097 03       		.uleb128 0x3
 3177 0098 0E       		.uleb128 0xe
 3178 0099 0B       		.uleb128 0xb
 3179 009a 0B       		.uleb128 0xb
 3180 009b 3A       		.uleb128 0x3a
 3181 009c 0B       		.uleb128 0xb
 3182 009d 3B       		.uleb128 0x3b
 3183 009e 0B       		.uleb128 0xb
 3184 009f 01       		.uleb128 0x1
 3185 00a0 13       		.uleb128 0x13
 3186 00a1 00       		.byte	0x0
 3187 00a2 00       		.byte	0x0
 3188 00a3 0E       		.uleb128 0xe
 3189 00a4 0D       		.uleb128 0xd
 3190 00a5 00       		.byte	0x0
 3191 00a6 03       		.uleb128 0x3
 3192 00a7 08       		.uleb128 0x8
 3193 00a8 3A       		.uleb128 0x3a
 3194 00a9 0B       		.uleb128 0xb
 3195 00aa 3B       		.uleb128 0x3b
 3196 00ab 0B       		.uleb128 0xb
 3197 00ac 49       		.uleb128 0x49
 3198 00ad 13       		.uleb128 0x13
 3199 00ae 38       		.uleb128 0x38
 3200 00af 0A       		.uleb128 0xa
 3201 00b0 00       		.byte	0x0
 3202 00b1 00       		.byte	0x0
 3203 00b2 0F       		.uleb128 0xf
 3204 00b3 0F       		.uleb128 0xf
 3205 00b4 00       		.byte	0x0
 3206 00b5 0B       		.uleb128 0xb
 3207 00b6 0B       		.uleb128 0xb
ARM GAS  /tmp/ccna6WhB.s 			page 61


 3208 00b7 49       		.uleb128 0x49
 3209 00b8 13       		.uleb128 0x13
 3210 00b9 00       		.byte	0x0
 3211 00ba 00       		.byte	0x0
 3212 00bb 10       		.uleb128 0x10
 3213 00bc 13       		.uleb128 0x13
 3214 00bd 01       		.byte	0x1
 3215 00be 03       		.uleb128 0x3
 3216 00bf 0E       		.uleb128 0xe
 3217 00c0 0B       		.uleb128 0xb
 3218 00c1 05       		.uleb128 0x5
 3219 00c2 3A       		.uleb128 0x3a
 3220 00c3 0B       		.uleb128 0xb
 3221 00c4 3B       		.uleb128 0x3b
 3222 00c5 0B       		.uleb128 0xb
 3223 00c6 01       		.uleb128 0x1
 3224 00c7 13       		.uleb128 0x13
 3225 00c8 00       		.byte	0x0
 3226 00c9 00       		.byte	0x0
 3227 00ca 11       		.uleb128 0x11
 3228 00cb 15       		.uleb128 0x15
 3229 00cc 00       		.byte	0x0
 3230 00cd 27       		.uleb128 0x27
 3231 00ce 0C       		.uleb128 0xc
 3232 00cf 00       		.byte	0x0
 3233 00d0 00       		.byte	0x0
 3234 00d1 12       		.uleb128 0x12
 3235 00d2 15       		.uleb128 0x15
 3236 00d3 01       		.byte	0x1
 3237 00d4 27       		.uleb128 0x27
 3238 00d5 0C       		.uleb128 0xc
 3239 00d6 49       		.uleb128 0x49
 3240 00d7 13       		.uleb128 0x13
 3241 00d8 01       		.uleb128 0x1
 3242 00d9 13       		.uleb128 0x13
 3243 00da 00       		.byte	0x0
 3244 00db 00       		.byte	0x0
 3245 00dc 13       		.uleb128 0x13
 3246 00dd 05       		.uleb128 0x5
 3247 00de 00       		.byte	0x0
 3248 00df 49       		.uleb128 0x49
 3249 00e0 13       		.uleb128 0x13
 3250 00e1 00       		.byte	0x0
 3251 00e2 00       		.byte	0x0
 3252 00e3 14       		.uleb128 0x14
 3253 00e4 13       		.uleb128 0x13
 3254 00e5 01       		.byte	0x1
 3255 00e6 03       		.uleb128 0x3
 3256 00e7 0E       		.uleb128 0xe
 3257 00e8 0B       		.uleb128 0xb
 3258 00e9 05       		.uleb128 0x5
 3259 00ea 3A       		.uleb128 0x3a
 3260 00eb 0B       		.uleb128 0xb
 3261 00ec 3B       		.uleb128 0x3b
 3262 00ed 05       		.uleb128 0x5
 3263 00ee 01       		.uleb128 0x1
 3264 00ef 13       		.uleb128 0x13
ARM GAS  /tmp/ccna6WhB.s 			page 62


 3265 00f0 00       		.byte	0x0
 3266 00f1 00       		.byte	0x0
 3267 00f2 15       		.uleb128 0x15
 3268 00f3 0D       		.uleb128 0xd
 3269 00f4 00       		.byte	0x0
 3270 00f5 03       		.uleb128 0x3
 3271 00f6 0E       		.uleb128 0xe
 3272 00f7 3A       		.uleb128 0x3a
 3273 00f8 0B       		.uleb128 0xb
 3274 00f9 3B       		.uleb128 0x3b
 3275 00fa 05       		.uleb128 0x5
 3276 00fb 49       		.uleb128 0x49
 3277 00fc 13       		.uleb128 0x13
 3278 00fd 38       		.uleb128 0x38
 3279 00fe 0A       		.uleb128 0xa
 3280 00ff 00       		.byte	0x0
 3281 0100 00       		.byte	0x0
 3282 0101 16       		.uleb128 0x16
 3283 0102 26       		.uleb128 0x26
 3284 0103 00       		.byte	0x0
 3285 0104 49       		.uleb128 0x49
 3286 0105 13       		.uleb128 0x13
 3287 0106 00       		.byte	0x0
 3288 0107 00       		.byte	0x0
 3289 0108 17       		.uleb128 0x17
 3290 0109 13       		.uleb128 0x13
 3291 010a 01       		.byte	0x1
 3292 010b 03       		.uleb128 0x3
 3293 010c 0E       		.uleb128 0xe
 3294 010d 0B       		.uleb128 0xb
 3295 010e 0B       		.uleb128 0xb
 3296 010f 3A       		.uleb128 0x3a
 3297 0110 0B       		.uleb128 0xb
 3298 0111 3B       		.uleb128 0x3b
 3299 0112 05       		.uleb128 0x5
 3300 0113 01       		.uleb128 0x1
 3301 0114 13       		.uleb128 0x13
 3302 0115 00       		.byte	0x0
 3303 0116 00       		.byte	0x0
 3304 0117 18       		.uleb128 0x18
 3305 0118 13       		.uleb128 0x13
 3306 0119 01       		.byte	0x1
 3307 011a 0B       		.uleb128 0xb
 3308 011b 0B       		.uleb128 0xb
 3309 011c 3A       		.uleb128 0x3a
 3310 011d 0B       		.uleb128 0xb
 3311 011e 3B       		.uleb128 0x3b
 3312 011f 05       		.uleb128 0x5
 3313 0120 01       		.uleb128 0x1
 3314 0121 13       		.uleb128 0x13
 3315 0122 00       		.byte	0x0
 3316 0123 00       		.byte	0x0
 3317 0124 19       		.uleb128 0x19
 3318 0125 17       		.uleb128 0x17
 3319 0126 01       		.byte	0x1
 3320 0127 0B       		.uleb128 0xb
 3321 0128 0B       		.uleb128 0xb
ARM GAS  /tmp/ccna6WhB.s 			page 63


 3322 0129 3A       		.uleb128 0x3a
 3323 012a 0B       		.uleb128 0xb
 3324 012b 3B       		.uleb128 0x3b
 3325 012c 05       		.uleb128 0x5
 3326 012d 01       		.uleb128 0x1
 3327 012e 13       		.uleb128 0x13
 3328 012f 00       		.byte	0x0
 3329 0130 00       		.byte	0x0
 3330 0131 1A       		.uleb128 0x1a
 3331 0132 0D       		.uleb128 0xd
 3332 0133 00       		.byte	0x0
 3333 0134 03       		.uleb128 0x3
 3334 0135 0E       		.uleb128 0xe
 3335 0136 3A       		.uleb128 0x3a
 3336 0137 0B       		.uleb128 0xb
 3337 0138 3B       		.uleb128 0x3b
 3338 0139 05       		.uleb128 0x5
 3339 013a 49       		.uleb128 0x49
 3340 013b 13       		.uleb128 0x13
 3341 013c 00       		.byte	0x0
 3342 013d 00       		.byte	0x0
 3343 013e 1B       		.uleb128 0x1b
 3344 013f 15       		.uleb128 0x15
 3345 0140 01       		.byte	0x1
 3346 0141 27       		.uleb128 0x27
 3347 0142 0C       		.uleb128 0xc
 3348 0143 01       		.uleb128 0x1
 3349 0144 13       		.uleb128 0x13
 3350 0145 00       		.byte	0x0
 3351 0146 00       		.byte	0x0
 3352 0147 1C       		.uleb128 0x1c
 3353 0148 35       		.uleb128 0x35
 3354 0149 00       		.byte	0x0
 3355 014a 49       		.uleb128 0x49
 3356 014b 13       		.uleb128 0x13
 3357 014c 00       		.byte	0x0
 3358 014d 00       		.byte	0x0
 3359 014e 1D       		.uleb128 0x1d
 3360 014f 13       		.uleb128 0x13
 3361 0150 01       		.byte	0x1
 3362 0151 0B       		.uleb128 0xb
 3363 0152 05       		.uleb128 0x5
 3364 0153 3A       		.uleb128 0x3a
 3365 0154 0B       		.uleb128 0xb
 3366 0155 3B       		.uleb128 0x3b
 3367 0156 05       		.uleb128 0x5
 3368 0157 01       		.uleb128 0x1
 3369 0158 13       		.uleb128 0x13
 3370 0159 00       		.byte	0x0
 3371 015a 00       		.byte	0x0
 3372 015b 1E       		.uleb128 0x1e
 3373 015c 16       		.uleb128 0x16
 3374 015d 00       		.byte	0x0
 3375 015e 03       		.uleb128 0x3
 3376 015f 08       		.uleb128 0x8
 3377 0160 3A       		.uleb128 0x3a
 3378 0161 0B       		.uleb128 0xb
ARM GAS  /tmp/ccna6WhB.s 			page 64


 3379 0162 3B       		.uleb128 0x3b
 3380 0163 05       		.uleb128 0x5
 3381 0164 49       		.uleb128 0x49
 3382 0165 13       		.uleb128 0x13
 3383 0166 00       		.byte	0x0
 3384 0167 00       		.byte	0x0
 3385 0168 1F       		.uleb128 0x1f
 3386 0169 16       		.uleb128 0x16
 3387 016a 00       		.byte	0x0
 3388 016b 03       		.uleb128 0x3
 3389 016c 08       		.uleb128 0x8
 3390 016d 3A       		.uleb128 0x3a
 3391 016e 0B       		.uleb128 0xb
 3392 016f 3B       		.uleb128 0x3b
 3393 0170 0B       		.uleb128 0xb
 3394 0171 49       		.uleb128 0x49
 3395 0172 13       		.uleb128 0x13
 3396 0173 00       		.byte	0x0
 3397 0174 00       		.byte	0x0
 3398 0175 20       		.uleb128 0x20
 3399 0176 2E       		.uleb128 0x2e
 3400 0177 01       		.byte	0x1
 3401 0178 3F       		.uleb128 0x3f
 3402 0179 0C       		.uleb128 0xc
 3403 017a 03       		.uleb128 0x3
 3404 017b 0E       		.uleb128 0xe
 3405 017c 3A       		.uleb128 0x3a
 3406 017d 0B       		.uleb128 0xb
 3407 017e 3B       		.uleb128 0x3b
 3408 017f 0B       		.uleb128 0xb
 3409 0180 49       		.uleb128 0x49
 3410 0181 13       		.uleb128 0x13
 3411 0182 11       		.uleb128 0x11
 3412 0183 01       		.uleb128 0x1
 3413 0184 12       		.uleb128 0x12
 3414 0185 01       		.uleb128 0x1
 3415 0186 40       		.uleb128 0x40
 3416 0187 06       		.uleb128 0x6
 3417 0188 01       		.uleb128 0x1
 3418 0189 13       		.uleb128 0x13
 3419 018a 00       		.byte	0x0
 3420 018b 00       		.byte	0x0
 3421 018c 21       		.uleb128 0x21
 3422 018d 34       		.uleb128 0x34
 3423 018e 00       		.byte	0x0
 3424 018f 03       		.uleb128 0x3
 3425 0190 08       		.uleb128 0x8
 3426 0191 3A       		.uleb128 0x3a
 3427 0192 0B       		.uleb128 0xb
 3428 0193 3B       		.uleb128 0x3b
 3429 0194 0B       		.uleb128 0xb
 3430 0195 49       		.uleb128 0x49
 3431 0196 13       		.uleb128 0x13
 3432 0197 02       		.uleb128 0x2
 3433 0198 0A       		.uleb128 0xa
 3434 0199 00       		.byte	0x0
 3435 019a 00       		.byte	0x0
ARM GAS  /tmp/ccna6WhB.s 			page 65


 3436 019b 22       		.uleb128 0x22
 3437 019c 34       		.uleb128 0x34
 3438 019d 00       		.byte	0x0
 3439 019e 03       		.uleb128 0x3
 3440 019f 0E       		.uleb128 0xe
 3441 01a0 3A       		.uleb128 0x3a
 3442 01a1 0B       		.uleb128 0xb
 3443 01a2 3B       		.uleb128 0x3b
 3444 01a3 0B       		.uleb128 0xb
 3445 01a4 49       		.uleb128 0x49
 3446 01a5 13       		.uleb128 0x13
 3447 01a6 02       		.uleb128 0x2
 3448 01a7 0A       		.uleb128 0xa
 3449 01a8 00       		.byte	0x0
 3450 01a9 00       		.byte	0x0
 3451 01aa 23       		.uleb128 0x23
 3452 01ab 2E       		.uleb128 0x2e
 3453 01ac 01       		.byte	0x1
 3454 01ad 3F       		.uleb128 0x3f
 3455 01ae 0C       		.uleb128 0xc
 3456 01af 03       		.uleb128 0x3
 3457 01b0 0E       		.uleb128 0xe
 3458 01b1 3A       		.uleb128 0x3a
 3459 01b2 0B       		.uleb128 0xb
 3460 01b3 3B       		.uleb128 0x3b
 3461 01b4 0B       		.uleb128 0xb
 3462 01b5 11       		.uleb128 0x11
 3463 01b6 01       		.uleb128 0x1
 3464 01b7 12       		.uleb128 0x12
 3465 01b8 01       		.uleb128 0x1
 3466 01b9 40       		.uleb128 0x40
 3467 01ba 06       		.uleb128 0x6
 3468 01bb 01       		.uleb128 0x1
 3469 01bc 13       		.uleb128 0x13
 3470 01bd 00       		.byte	0x0
 3471 01be 00       		.byte	0x0
 3472 01bf 24       		.uleb128 0x24
 3473 01c0 2E       		.uleb128 0x2e
 3474 01c1 01       		.byte	0x1
 3475 01c2 3F       		.uleb128 0x3f
 3476 01c3 0C       		.uleb128 0xc
 3477 01c4 03       		.uleb128 0x3
 3478 01c5 0E       		.uleb128 0xe
 3479 01c6 3A       		.uleb128 0x3a
 3480 01c7 0B       		.uleb128 0xb
 3481 01c8 3B       		.uleb128 0x3b
 3482 01c9 0B       		.uleb128 0xb
 3483 01ca 27       		.uleb128 0x27
 3484 01cb 0C       		.uleb128 0xc
 3485 01cc 11       		.uleb128 0x11
 3486 01cd 01       		.uleb128 0x1
 3487 01ce 12       		.uleb128 0x12
 3488 01cf 01       		.uleb128 0x1
 3489 01d0 40       		.uleb128 0x40
 3490 01d1 06       		.uleb128 0x6
 3491 01d2 01       		.uleb128 0x1
 3492 01d3 13       		.uleb128 0x13
ARM GAS  /tmp/ccna6WhB.s 			page 66


 3493 01d4 00       		.byte	0x0
 3494 01d5 00       		.byte	0x0
 3495 01d6 25       		.uleb128 0x25
 3496 01d7 05       		.uleb128 0x5
 3497 01d8 00       		.byte	0x0
 3498 01d9 03       		.uleb128 0x3
 3499 01da 08       		.uleb128 0x8
 3500 01db 3A       		.uleb128 0x3a
 3501 01dc 0B       		.uleb128 0xb
 3502 01dd 3B       		.uleb128 0x3b
 3503 01de 0B       		.uleb128 0xb
 3504 01df 49       		.uleb128 0x49
 3505 01e0 13       		.uleb128 0x13
 3506 01e1 02       		.uleb128 0x2
 3507 01e2 0A       		.uleb128 0xa
 3508 01e3 00       		.byte	0x0
 3509 01e4 00       		.byte	0x0
 3510 01e5 26       		.uleb128 0x26
 3511 01e6 34       		.uleb128 0x34
 3512 01e7 00       		.byte	0x0
 3513 01e8 03       		.uleb128 0x3
 3514 01e9 0E       		.uleb128 0xe
 3515 01ea 3A       		.uleb128 0x3a
 3516 01eb 0B       		.uleb128 0xb
 3517 01ec 3B       		.uleb128 0x3b
 3518 01ed 05       		.uleb128 0x5
 3519 01ee 49       		.uleb128 0x49
 3520 01ef 13       		.uleb128 0x13
 3521 01f0 3F       		.uleb128 0x3f
 3522 01f1 0C       		.uleb128 0xc
 3523 01f2 3C       		.uleb128 0x3c
 3524 01f3 0C       		.uleb128 0xc
 3525 01f4 00       		.byte	0x0
 3526 01f5 00       		.byte	0x0
 3527 01f6 27       		.uleb128 0x27
 3528 01f7 34       		.uleb128 0x34
 3529 01f8 00       		.byte	0x0
 3530 01f9 03       		.uleb128 0x3
 3531 01fa 0E       		.uleb128 0xe
 3532 01fb 3A       		.uleb128 0x3a
 3533 01fc 0B       		.uleb128 0xb
 3534 01fd 3B       		.uleb128 0x3b
 3535 01fe 0B       		.uleb128 0xb
 3536 01ff 49       		.uleb128 0x49
 3537 0200 13       		.uleb128 0x13
 3538 0201 3F       		.uleb128 0x3f
 3539 0202 0C       		.uleb128 0xc
 3540 0203 3C       		.uleb128 0x3c
 3541 0204 0C       		.uleb128 0xc
 3542 0205 00       		.byte	0x0
 3543 0206 00       		.byte	0x0
 3544 0207 28       		.uleb128 0x28
 3545 0208 34       		.uleb128 0x34
 3546 0209 00       		.byte	0x0
 3547 020a 03       		.uleb128 0x3
 3548 020b 0E       		.uleb128 0xe
 3549 020c 3A       		.uleb128 0x3a
ARM GAS  /tmp/ccna6WhB.s 			page 67


 3550 020d 0B       		.uleb128 0xb
 3551 020e 3B       		.uleb128 0x3b
 3552 020f 0B       		.uleb128 0xb
 3553 0210 49       		.uleb128 0x49
 3554 0211 13       		.uleb128 0x13
 3555 0212 3F       		.uleb128 0x3f
 3556 0213 0C       		.uleb128 0xc
 3557 0214 02       		.uleb128 0x2
 3558 0215 0A       		.uleb128 0xa
 3559 0216 00       		.byte	0x0
 3560 0217 00       		.byte	0x0
 3561 0218 00       		.byte	0x0
 3562              		.section	.debug_pubnames,"",%progbits
 3563 0000 51000000 		.4byte	0x51
 3564 0004 0200     		.2byte	0x2
 3565 0006 00000000 		.4byte	.Ldebug_info0
 3566 000a F1100000 		.4byte	0x10f1
 3567 000e 320F0000 		.4byte	0xf32
 3568 0012 6D61696E 		.ascii	"main\000"
 3568      00
 3569 0017 D90F0000 		.4byte	0xfd9
 3570 001b 646F5F70 		.ascii	"do_press\000"
 3570      72657373 
 3570      00
 3571 0024 0F100000 		.4byte	0x100f
 3572 0028 646F5F68 		.ascii	"do_hold\000"
 3572      6F6C6400 
 3573 0030 3B100000 		.4byte	0x103b
 3574 0034 646F5F76 		.ascii	"do_vent\000"
 3574      656E7400 
 3575 003c 6C100000 		.4byte	0x106c
 3576 0040 656E7465 		.ascii	"enter\000"
 3576      7200
 3577 0046 DE100000 		.4byte	0x10de
 3578 004a 5F737461 		.ascii	"_state\000"
 3578      746500
 3579 0051 00000000 		.4byte	0x0
 3580              		.section	.debug_pubtypes,"",%progbits
 3581 0000 13010000 		.4byte	0x113
 3582 0004 0200     		.2byte	0x2
 3583 0006 00000000 		.4byte	.Ldebug_info0
 3584 000a F1100000 		.4byte	0x10f1
 3585 000e 61000000 		.4byte	0x61
 3586 0012 5F4C4F43 		.ascii	"_LOCK_RECURSIVE_T\000"
 3586      4B5F5245 
 3586      43555253 
 3586      4956455F 
 3586      5400
 3587 0024 73000000 		.4byte	0x73
 3588 0028 5F66706F 		.ascii	"_fpos_t\000"
 3588      735F7400 
 3589 0030 7E000000 		.4byte	0x7e
 3590 0034 77696E74 		.ascii	"wint_t\000"
 3590      5F7400
 3591 003b DE000000 		.4byte	0xde
 3592 003f 5F6D6273 		.ascii	"_mbstate_t\000"
 3592      74617465 
ARM GAS  /tmp/ccna6WhB.s 			page 68


 3592      5F7400
 3593 004a E9000000 		.4byte	0xe9
 3594 004e 5F666C6F 		.ascii	"_flock_t\000"
 3594      636B5F74 
 3594      00
 3595 0057 F6000000 		.4byte	0xf6
 3596 005b 5F5F554C 		.ascii	"__ULong\000"
 3596      6F6E6700 
 3597 0063 08010000 		.4byte	0x108
 3598 0067 5F426967 		.ascii	"_Bigint\000"
 3598      696E7400 
 3599 006f 7D010000 		.4byte	0x17d
 3600 0073 5F5F746D 		.ascii	"__tm\000"
 3600      00
 3601 0078 08020000 		.4byte	0x208
 3602 007c 5F6F6E5F 		.ascii	"_on_exit_args\000"
 3602      65786974 
 3602      5F617267 
 3602      7300
 3603 008a 61020000 		.4byte	0x261
 3604 008e 5F617465 		.ascii	"_atexit\000"
 3604      78697400 
 3605 0096 C6020000 		.4byte	0x2c6
 3606 009a 5F5F7362 		.ascii	"__sbuf\000"
 3606      756600
 3607 00a1 F5020000 		.4byte	0x2f5
 3608 00a5 5F5F7346 		.ascii	"__sFILE\000"
 3608      494C4500 
 3609 00ad 75060000 		.4byte	0x675
 3610 00b1 5F5F4649 		.ascii	"__FILE\000"
 3610      4C4500
 3611 00b8 81060000 		.4byte	0x681
 3612 00bc 5F676C75 		.ascii	"_glue\000"
 3612      6500
 3613 00c2 C8060000 		.4byte	0x6c8
 3614 00c6 5F72616E 		.ascii	"_rand48\000"
 3614      64343800 
 3615 00ce 74040000 		.4byte	0x474
 3616 00d2 5F726565 		.ascii	"_reent\000"
 3616      6E7400
 3617 00d9 2D090000 		.4byte	0x92d
 3618 00dd 75696E74 		.ascii	"uint8_t\000"
 3618      385F7400 
 3619 00e5 38090000 		.4byte	0x938
 3620 00e9 75696E74 		.ascii	"uint32_t\000"
 3620      33325F74 
 3620      00
 3621 00f2 800E0000 		.4byte	0xe80
 3622 00f6 50696F00 		.ascii	"Pio\000"
 3623 00fa C30E0000 		.4byte	0xec3
 3624 00fe 57647400 		.ascii	"Wdt\000"
 3625 0102 CF0E0000 		.4byte	0xecf
 3626 0106 5F50696E 		.ascii	"_Pin\000"
 3626      00
 3627 010b 270F0000 		.4byte	0xf27
 3628 010f 50696E00 		.ascii	"Pin\000"
 3629 0113 00000000 		.4byte	0x0
ARM GAS  /tmp/ccna6WhB.s 			page 69


 3630              		.section	.debug_aranges,"",%progbits
 3631 0000 3C000000 		.4byte	0x3c
 3632 0004 0200     		.2byte	0x2
 3633 0006 00000000 		.4byte	.Ldebug_info0
 3634 000a 04       		.byte	0x4
 3635 000b 00       		.byte	0x0
 3636 000c 0000     		.2byte	0x0
 3637 000e 0000     		.2byte	0x0
 3638 0010 00000000 		.4byte	.LFB35
 3639 0014 30020000 		.4byte	.LFE35-.LFB35
 3640 0018 00000000 		.4byte	.LFB36
 3641 001c 46000000 		.4byte	.LFE36-.LFB36
 3642 0020 00000000 		.4byte	.LFB37
 3643 0024 2E000000 		.4byte	.LFE37-.LFB37
 3644 0028 00000000 		.4byte	.LFB38
 3645 002c 46000000 		.4byte	.LFE38-.LFB38
 3646 0030 00000000 		.4byte	.LFB39
 3647 0034 F0000000 		.4byte	.LFE39-.LFB39
 3648 0038 00000000 		.4byte	0x0
 3649 003c 00000000 		.4byte	0x0
 3650              		.section	.debug_ranges,"",%progbits
 3651              	.Ldebug_ranges0:
 3652 0000 00000000 		.4byte	.LFB35
 3653 0004 30020000 		.4byte	.LFE35
 3654 0008 00000000 		.4byte	.LFB36
 3655 000c 46000000 		.4byte	.LFE36
 3656 0010 00000000 		.4byte	.LFB37
 3657 0014 2E000000 		.4byte	.LFE37
 3658 0018 00000000 		.4byte	.LFB38
 3659 001c 46000000 		.4byte	.LFE38
 3660 0020 00000000 		.4byte	.LFB39
 3661 0024 F0000000 		.4byte	.LFE39
 3662 0028 00000000 		.4byte	0x0
 3663 002c 00000000 		.4byte	0x0
 3664              		.section	.debug_str,"MS",%progbits,1
 3665              	.LASF36:
 3666 0000 5F64736F 		.ascii	"_dso_handle\000"
 3666      5F68616E 
 3666      646C6500 
 3667              	.LASF182:
 3668 000c 50494F5F 		.ascii	"PIO_PCRHR\000"
 3668      50435248 
 3668      5200
 3669              	.LASF35:
 3670 0016 5F666E61 		.ascii	"_fnargs\000"
 3670      72677300 
 3671              	.LASF89:
 3672 001e 5F72616E 		.ascii	"_rand48\000"
 3672      64343800 
 3673              	.LASF68:
 3674 0026 5F656D65 		.ascii	"_emergency\000"
 3674      7267656E 
 3674      637900
 3675              	.LASF185:
 3676 0031 50494F5F 		.ascii	"PIO_TPR\000"
 3676      54505200 
 3677              	.LASF60:
ARM GAS  /tmp/ccna6WhB.s 			page 70


 3678 0039 5F6D6273 		.ascii	"_mbstate\000"
 3678      74617465 
 3678      00
 3679              	.LASF175:
 3680 0042 50494F5F 		.ascii	"PIO_SCHMITT\000"
 3680      5343484D 
 3680      49545400 
 3681              	.LASF80:
 3682 004e 5F617465 		.ascii	"_atexit0\000"
 3682      78697430 
 3682      00
 3683              	.LASF198:
 3684 0057 74797065 		.ascii	"type\000"
 3684      00
 3685              	.LASF155:
 3686 005c 50494F5F 		.ascii	"PIO_OWER\000"
 3686      4F574552 
 3686      00
 3687              	.LASF110:
 3688 0065 5F776373 		.ascii	"_wcsrtombs_state\000"
 3688      72746F6D 
 3688      62735F73 
 3688      74617465 
 3688      00
 3689              	.LASF6:
 3690 0076 6C6F6E67 		.ascii	"long long unsigned int\000"
 3690      206C6F6E 
 3690      6720756E 
 3690      7369676E 
 3690      65642069 
 3691              	.LASF48:
 3692 008d 5F6C6266 		.ascii	"_lbfsize\000"
 3692      73697A65 
 3692      00
 3693              	.LASF179:
 3694 0096 50494F5F 		.ascii	"PIO_PCIDR\000"
 3694      50434944 
 3694      5200
 3695              	.LASF43:
 3696 00a0 5F626173 		.ascii	"_base\000"
 3696      6500
 3697              	.LASF188:
 3698 00a6 50494F5F 		.ascii	"PIO_RNCR\000"
 3698      524E4352 
 3698      00
 3699              	.LASF211:
 3700 00af 49544D5F 		.ascii	"ITM_RxBuffer\000"
 3700      52784275 
 3700      66666572 
 3700      00
 3701              	.LASF150:
 3702 00bc 50494F5F 		.ascii	"PIO_SCDR\000"
 3702      53434452 
 3702      00
 3703              	.LASF143:
 3704 00c5 50494F5F 		.ascii	"PIO_PUSR\000"
 3704      50555352 
ARM GAS  /tmp/ccna6WhB.s 			page 71


 3704      00
 3705              	.LASF102:
 3706 00ce 5F776374 		.ascii	"_wctomb_state\000"
 3706      6F6D625F 
 3706      73746174 
 3706      6500
 3707              	.LASF25:
 3708 00dc 5F5F746D 		.ascii	"__tm_sec\000"
 3708      5F736563 
 3708      00
 3709              	.LASF53:
 3710 00e5 5F636C6F 		.ascii	"_close\000"
 3710      736500
 3711              	.LASF0:
 3712 00ec 7369676E 		.ascii	"signed char\000"
 3712      65642063 
 3712      68617200 
 3713              	.LASF193:
 3714 00f8 5744545F 		.ascii	"WDT_CR\000"
 3714      435200
 3715              	.LASF163:
 3716 00ff 50494F5F 		.ascii	"PIO_ESR\000"
 3716      45535200 
 3717              	.LASF54:
 3718 0107 5F756275 		.ascii	"_ubuf\000"
 3718      6600
 3719              	.LASF166:
 3720 010d 52657365 		.ascii	"Reserved10\000"
 3720      72766564 
 3720      313000
 3721              	.LASF119:
 3722 0118 50494F5F 		.ascii	"PIO_PSR\000"
 3722      50535200 
 3723              	.LASF120:
 3724 0120 52657365 		.ascii	"Reserved1\000"
 3724      72766564 
 3724      3100
 3725              	.LASF124:
 3726 012a 52657365 		.ascii	"Reserved2\000"
 3726      72766564 
 3726      3200
 3727              	.LASF128:
 3728 0134 52657365 		.ascii	"Reserved3\000"
 3728      72766564 
 3728      3300
 3729              	.LASF140:
 3730 013e 52657365 		.ascii	"Reserved4\000"
 3730      72766564 
 3730      3400
 3731              	.LASF83:
 3732 0148 5F5F7366 		.ascii	"__sf\000"
 3732      00
 3733              	.LASF34:
 3734 014d 5F6F6E5F 		.ascii	"_on_exit_args\000"
 3734      65786974 
 3734      5F617267 
 3734      7300
ARM GAS  /tmp/ccna6WhB.s 			page 72


 3735              	.LASF154:
 3736 015b 52657365 		.ascii	"Reserved7\000"
 3736      72766564 
 3736      3700
 3737              	.LASF213:
 3738 0165 474E5520 		.ascii	"GNU C 4.5.2\000"
 3738      4320342E 
 3738      352E3200 
 3739              	.LASF162:
 3740 0171 52657365 		.ascii	"Reserved9\000"
 3740      72766564 
 3740      3900
 3741              	.LASF212:
 3742 017b 5F737461 		.ascii	"_state\000"
 3742      746500
 3743              	.LASF49:
 3744 0182 5F636F6F 		.ascii	"_cookie\000"
 3744      6B696500 
 3745              	.LASF118:
 3746 018a 50494F5F 		.ascii	"PIO_PDR\000"
 3746      50445200 
 3747              	.LASF82:
 3748 0192 5F5F7367 		.ascii	"__sglue\000"
 3748      6C756500 
 3749              	.LASF7:
 3750 019a 6C6F6E67 		.ascii	"long int\000"
 3750      20696E74 
 3750      00
 3751              	.LASF141:
 3752 01a3 50494F5F 		.ascii	"PIO_PUDR\000"
 3752      50554452 
 3752      00
 3753              	.LASF46:
 3754 01ac 5F666C61 		.ascii	"_flags\000"
 3754      677300
 3755              	.LASF38:
 3756 01b3 5F69735F 		.ascii	"_is_cxa\000"
 3756      63786100 
 3757              	.LASF64:
 3758 01bb 5F737464 		.ascii	"_stdin\000"
 3758      696E00
 3759              	.LASF85:
 3760 01c2 5F5F4649 		.ascii	"__FILE\000"
 3760      4C4500
 3761              	.LASF177:
 3762 01c9 50494F5F 		.ascii	"PIO_PCMR\000"
 3762      50434D52 
 3762      00
 3763              	.LASF74:
 3764 01d2 5F726573 		.ascii	"_result_k\000"
 3764      756C745F 
 3764      6B00
 3765              	.LASF180:
 3766 01dc 50494F5F 		.ascii	"PIO_PCIMR\000"
 3766      5043494D 
 3766      5200
 3767              	.LASF5:
ARM GAS  /tmp/ccna6WhB.s 			page 73


 3768 01e6 6C6F6E67 		.ascii	"long long int\000"
 3768      206C6F6E 
 3768      6720696E 
 3768      7400
 3769              	.LASF191:
 3770 01f4 50494F5F 		.ascii	"PIO_PTCR\000"
 3770      50544352 
 3770      00
 3771              	.LASF178:
 3772 01fd 50494F5F 		.ascii	"PIO_PCIER\000"
 3772      50434945 
 3772      5200
 3773              	.LASF78:
 3774 0207 5F637674 		.ascii	"_cvtbuf\000"
 3774      62756600 
 3775              	.LASF132:
 3776 020f 50494F5F 		.ascii	"PIO_PDSR\000"
 3776      50445352 
 3776      00
 3777              	.LASF136:
 3778 0218 50494F5F 		.ascii	"PIO_ISR\000"
 3778      49535200 
 3779              	.LASF195:
 3780 0220 5744545F 		.ascii	"WDT_SR\000"
 3780      535200
 3781              	.LASF108:
 3782 0227 5F6D6273 		.ascii	"_mbsrtowcs_state\000"
 3782      72746F77 
 3782      63735F73 
 3782      74617465 
 3782      00
 3783              	.LASF94:
 3784 0238 5F737472 		.ascii	"_strtok_last\000"
 3784      746F6B5F 
 3784      6C617374 
 3784      00
 3785              	.LASF106:
 3786 0245 5F6D6272 		.ascii	"_mbrlen_state\000"
 3786      6C656E5F 
 3786      73746174 
 3786      6500
 3787              	.LASF145:
 3788 0253 50494F5F 		.ascii	"PIO_ABCDSR\000"
 3788      41424344 
 3788      535200
 3789              	.LASF164:
 3790 025e 50494F5F 		.ascii	"PIO_LSR\000"
 3790      4C535200 
 3791              	.LASF41:
 3792 0266 5F666E73 		.ascii	"_fns\000"
 3792      00
 3793              	.LASF197:
 3794 026b 6D61736B 		.ascii	"mask\000"
 3794      00
 3795              	.LASF21:
 3796 0270 5F736967 		.ascii	"_sign\000"
 3796      6E00
ARM GAS  /tmp/ccna6WhB.s 			page 74


 3797              	.LASF210:
 3798 0276 5F696D70 		.ascii	"_impure_ptr\000"
 3798      7572655F 
 3798      70747200 
 3799              	.LASF170:
 3800 0282 52657365 		.ascii	"Reserved11\000"
 3800      72766564 
 3800      313100
 3801              	.LASF174:
 3802 028d 52657365 		.ascii	"Reserved12\000"
 3802      72766564 
 3802      313200
 3803              	.LASF176:
 3804 0298 52657365 		.ascii	"Reserved13\000"
 3804      72766564 
 3804      313300
 3805              	.LASF19:
 3806 02a3 5F6E6578 		.ascii	"_next\000"
 3806      7400
 3807              	.LASF27:
 3808 02a9 5F5F746D 		.ascii	"__tm_hour\000"
 3808      5F686F75 
 3808      7200
 3809              	.LASF173:
 3810 02b3 50494F5F 		.ascii	"PIO_WPSR\000"
 3810      57505352 
 3810      00
 3811              	.LASF50:
 3812 02bc 5F726561 		.ascii	"_read\000"
 3812      6400
 3813              	.LASF24:
 3814 02c2 5F5F746D 		.ascii	"__tm\000"
 3814      00
 3815              	.LASF117:
 3816 02c7 50494F5F 		.ascii	"PIO_PER\000"
 3816      50455200 
 3817              	.LASF12:
 3818 02cf 5F5F7763 		.ascii	"__wchb\000"
 3818      686200
 3819              	.LASF186:
 3820 02d6 50494F5F 		.ascii	"PIO_TCR\000"
 3820      54435200 
 3821              	.LASF65:
 3822 02de 5F737464 		.ascii	"_stdout\000"
 3822      6F757400 
 3823              	.LASF123:
 3824 02e6 50494F5F 		.ascii	"PIO_OSR\000"
 3824      4F535200 
 3825              	.LASF77:
 3826 02ee 5F637674 		.ascii	"_cvtlen\000"
 3826      6C656E00 
 3827              	.LASF18:
 3828 02f6 6C6F6E67 		.ascii	"long unsigned int\000"
 3828      20756E73 
 3828      69676E65 
 3828      6420696E 
 3828      7400
ARM GAS  /tmp/ccna6WhB.s 			page 75


 3829              	.LASF192:
 3830 0308 50494F5F 		.ascii	"PIO_PTSR\000"
 3830      50545352 
 3830      00
 3831              	.LASF47:
 3832 0311 5F66696C 		.ascii	"_file\000"
 3832      6500
 3833              	.LASF209:
 3834 0317 656E7465 		.ascii	"enter\000"
 3834      7200
 3835              	.LASF122:
 3836 031d 50494F5F 		.ascii	"PIO_ODR\000"
 3836      4F445200 
 3837              	.LASF58:
 3838 0325 5F646174 		.ascii	"_data\000"
 3838      6100
 3839              	.LASF207:
 3840 032b 646F5F76 		.ascii	"do_vent\000"
 3840      656E7400 
 3841              	.LASF87:
 3842 0333 5F6E696F 		.ascii	"_niobs\000"
 3842      627300
 3843              	.LASF144:
 3844 033a 52657365 		.ascii	"Reserved5\000"
 3844      72766564 
 3844      3500
 3845              	.LASF146:
 3846 0344 52657365 		.ascii	"Reserved6\000"
 3846      72766564 
 3846      3600
 3847              	.LASF98:
 3848 034e 5F72616E 		.ascii	"_rand_next\000"
 3848      645F6E65 
 3848      787400
 3849              	.LASF203:
 3850 0359 70696E73 		.ascii	"pinsout\000"
 3850      6F757400 
 3851              	.LASF158:
 3852 0361 52657365 		.ascii	"Reserved8\000"
 3852      72766564 
 3852      3800
 3853              	.LASF104:
 3854 036b 5F736967 		.ascii	"_signal_buf\000"
 3854      6E616C5F 
 3854      62756600 
 3855              	.LASF95:
 3856 0377 5F617363 		.ascii	"_asctime_buf\000"
 3856      74696D65 
 3856      5F627566 
 3856      00
 3857              	.LASF183:
 3858 0384 50494F5F 		.ascii	"PIO_RPR\000"
 3858      52505200 
 3859              	.LASF73:
 3860 038c 5F726573 		.ascii	"_result\000"
 3860      756C7400 
 3861              	.LASF11:
ARM GAS  /tmp/ccna6WhB.s 			page 76


 3862 0394 5F5F7763 		.ascii	"__wch\000"
 3862      6800
 3863              	.LASF171:
 3864 039a 50494F5F 		.ascii	"PIO_LOCKSR\000"
 3864      4C4F434B 
 3864      535200
 3865              	.LASF214:
 3866 03a5 6D61696E 		.ascii	"main.c\000"
 3866      2E6300
 3867              	.LASF159:
 3868 03ac 50494F5F 		.ascii	"PIO_AIMER\000"
 3868      41494D45 
 3868      5200
 3869              	.LASF79:
 3870 03b6 5F6E6577 		.ascii	"_new\000"
 3870      00
 3871              	.LASF59:
 3872 03bb 5F6C6F63 		.ascii	"_lock\000"
 3872      6B00
 3873              	.LASF91:
 3874 03c1 5F6D756C 		.ascii	"_mult\000"
 3874      7400
 3875              	.LASF134:
 3876 03c7 50494F5F 		.ascii	"PIO_IDR\000"
 3876      49445200 
 3877              	.LASF194:
 3878 03cf 5744545F 		.ascii	"WDT_MR\000"
 3878      4D5200
 3879              	.LASF51:
 3880 03d6 5F777269 		.ascii	"_write\000"
 3880      746500
 3881              	.LASF30:
 3882 03dd 5F5F746D 		.ascii	"__tm_year\000"
 3882      5F796561 
 3882      7200
 3883              	.LASF161:
 3884 03e7 50494F5F 		.ascii	"PIO_AIMMR\000"
 3884      41494D4D 
 3884      5200
 3885              	.LASF113:
 3886 03f1 5F6E6D61 		.ascii	"_nmalloc\000"
 3886      6C6C6F63 
 3886      00
 3887              	.LASF215:
 3888 03fa 2F686F6D 		.ascii	"/home/mo/doc/studium/aktuell/Diplomarbeit/code\000"
 3888      652F6D6F 
 3888      2F646F63 
 3888      2F737475 
 3888      6469756D 
 3889              	.LASF121:
 3890 0429 50494F5F 		.ascii	"PIO_OER\000"
 3890      4F455200 
 3891              	.LASF57:
 3892 0431 5F6F6666 		.ascii	"_offset\000"
 3892      73657400 
 3893              	.LASF172:
 3894 0439 50494F5F 		.ascii	"PIO_WPMR\000"
ARM GAS  /tmp/ccna6WhB.s 			page 77


 3894      57504D52 
 3894      00
 3895              	.LASF112:
 3896 0442 5F6E6578 		.ascii	"_nextf\000"
 3896      746600
 3897              	.LASF142:
 3898 0449 50494F5F 		.ascii	"PIO_PUER\000"
 3898      50554552 
 3898      00
 3899              	.LASF153:
 3900 0452 50494F5F 		.ascii	"PIO_PPDSR\000"
 3900      50504453 
 3900      5200
 3901              	.LASF29:
 3902 045c 5F5F746D 		.ascii	"__tm_mon\000"
 3902      5F6D6F6E 
 3902      00
 3903              	.LASF125:
 3904 0465 50494F5F 		.ascii	"PIO_IFER\000"
 3904      49464552 
 3904      00
 3905              	.LASF39:
 3906 046e 5F617465 		.ascii	"_atexit\000"
 3906      78697400 
 3907              	.LASF71:
 3908 0476 5F5F7364 		.ascii	"__sdidinit\000"
 3908      6964696E 
 3908      697400
 3909              	.LASF97:
 3910 0481 5F67616D 		.ascii	"_gamma_signgam\000"
 3910      6D615F73 
 3910      69676E67 
 3910      616D00
 3911              	.LASF131:
 3912 0490 50494F5F 		.ascii	"PIO_ODSR\000"
 3912      4F445352 
 3912      00
 3913              	.LASF139:
 3914 0499 50494F5F 		.ascii	"PIO_MDSR\000"
 3914      4D445352 
 3914      00
 3915              	.LASF10:
 3916 04a2 77696E74 		.ascii	"wint_t\000"
 3916      5F7400
 3917              	.LASF151:
 3918 04a9 50494F5F 		.ascii	"PIO_PPDDR\000"
 3918      50504444 
 3918      5200
 3919              	.LASF196:
 3920 04b3 5F50696E 		.ascii	"_Pin\000"
 3920      00
 3921              	.LASF133:
 3922 04b8 50494F5F 		.ascii	"PIO_IER\000"
 3922      49455200 
 3923              	.LASF76:
 3924 04c0 5F667265 		.ascii	"_freelist\000"
 3924      656C6973 
ARM GAS  /tmp/ccna6WhB.s 			page 78


 3924      7400
 3925              	.LASF138:
 3926 04ca 50494F5F 		.ascii	"PIO_MDDR\000"
 3926      4D444452 
 3926      00
 3927              	.LASF189:
 3928 04d3 50494F5F 		.ascii	"PIO_TNPR\000"
 3928      544E5052 
 3928      00
 3929              	.LASF8:
 3930 04dc 5F4C4F43 		.ascii	"_LOCK_RECURSIVE_T\000"
 3930      4B5F5245 
 3930      43555253 
 3930      4956455F 
 3930      5400
 3931              	.LASF167:
 3932 04ee 50494F5F 		.ascii	"PIO_FELLSR\000"
 3932      46454C4C 
 3932      535200
 3933              	.LASF28:
 3934 04f9 5F5F746D 		.ascii	"__tm_mday\000"
 3934      5F6D6461 
 3934      7900
 3935              	.LASF199:
 3936 0503 61747472 		.ascii	"attribute\000"
 3936      69627574 
 3936      6500
 3937              	.LASF1:
 3938 050d 756E7369 		.ascii	"unsigned char\000"
 3938      676E6564 
 3938      20636861 
 3938      7200
 3939              	.LASF88:
 3940 051b 5F696F62 		.ascii	"_iobs\000"
 3940      7300
 3941              	.LASF127:
 3942 0521 50494F5F 		.ascii	"PIO_IFSR\000"
 3942      49465352 
 3942      00
 3943              	.LASF111:
 3944 052a 5F685F65 		.ascii	"_h_errno\000"
 3944      72726E6F 
 3944      00
 3945              	.LASF16:
 3946 0533 5F666C6F 		.ascii	"_flock_t\000"
 3946      636B5F74 
 3946      00
 3947              	.LASF32:
 3948 053c 5F5F746D 		.ascii	"__tm_yday\000"
 3948      5F796461 
 3948      7900
 3949              	.LASF61:
 3950 0546 5F666C61 		.ascii	"_flags2\000"
 3950      67733200 
 3951              	.LASF126:
 3952 054e 50494F5F 		.ascii	"PIO_IFDR\000"
 3952      49464452 
ARM GAS  /tmp/ccna6WhB.s 			page 79


 3952      00
 3953              	.LASF15:
 3954 0557 5F6D6273 		.ascii	"_mbstate_t\000"
 3954      74617465 
 3954      5F7400
 3955              	.LASF45:
 3956 0562 5F5F7346 		.ascii	"__sFILE\000"
 3956      494C4500 
 3957              	.LASF130:
 3958 056a 50494F5F 		.ascii	"PIO_CODR\000"
 3958      434F4452 
 3958      00
 3959              	.LASF184:
 3960 0573 50494F5F 		.ascii	"PIO_RCR\000"
 3960      52435200 
 3961              	.LASF135:
 3962 057b 50494F5F 		.ascii	"PIO_IMR\000"
 3962      494D5200 
 3963              	.LASF100:
 3964 0583 5F6D626C 		.ascii	"_mblen_state\000"
 3964      656E5F73 
 3964      74617465 
 3964      00
 3965              	.LASF67:
 3966 0590 5F696E63 		.ascii	"_inc\000"
 3966      00
 3967              	.LASF40:
 3968 0595 5F696E64 		.ascii	"_ind\000"
 3968      00
 3969              	.LASF70:
 3970 059a 5F637572 		.ascii	"_current_locale\000"
 3970      72656E74 
 3970      5F6C6F63 
 3970      616C6500 
 3971              	.LASF152:
 3972 05aa 50494F5F 		.ascii	"PIO_PPDER\000"
 3972      50504445 
 3972      5200
 3973              	.LASF20:
 3974 05b4 5F6D6178 		.ascii	"_maxwds\000"
 3974      77647300 
 3975              	.LASF62:
 3976 05bc 5F726565 		.ascii	"_reent\000"
 3976      6E7400
 3977              	.LASF90:
 3978 05c3 5F736565 		.ascii	"_seed\000"
 3978      6400
 3979              	.LASF13:
 3980 05c9 5F5F636F 		.ascii	"__count\000"
 3980      756E7400 
 3981              	.LASF137:
 3982 05d1 50494F5F 		.ascii	"PIO_MDER\000"
 3982      4D444552 
 3982      00
 3983              	.LASF14:
 3984 05da 5F5F7661 		.ascii	"__value\000"
 3984      6C756500 
ARM GAS  /tmp/ccna6WhB.s 			page 80


 3985              	.LASF168:
 3986 05e2 50494F5F 		.ascii	"PIO_REHLSR\000"
 3986      5245484C 
 3986      535200
 3987              	.LASF52:
 3988 05ed 5F736565 		.ascii	"_seek\000"
 3988      6B00
 3989              	.LASF31:
 3990 05f3 5F5F746D 		.ascii	"__tm_wday\000"
 3990      5F776461 
 3990      7900
 3991              	.LASF9:
 3992 05fd 5F66706F 		.ascii	"_fpos_t\000"
 3992      735F7400 
 3993              	.LASF63:
 3994 0605 5F657272 		.ascii	"_errno\000"
 3994      6E6F00
 3995              	.LASF84:
 3996 060c 63686172 		.ascii	"char\000"
 3996      00
 3997              	.LASF56:
 3998 0611 5F626C6B 		.ascii	"_blksize\000"
 3998      73697A65 
 3998      00
 3999              	.LASF160:
 4000 061a 50494F5F 		.ascii	"PIO_AIMDR\000"
 4000      41494D44 
 4000      5200
 4001              	.LASF44:
 4002 0624 5F73697A 		.ascii	"_size\000"
 4002      6500
 4003              	.LASF4:
 4004 062a 756E7369 		.ascii	"unsigned int\000"
 4004      676E6564 
 4004      20696E74 
 4004      00
 4005              	.LASF149:
 4006 0637 50494F5F 		.ascii	"PIO_IFSCSR\000"
 4006      49465343 
 4006      535200
 4007              	.LASF2:
 4008 0642 73686F72 		.ascii	"short int\000"
 4008      7420696E 
 4008      7400
 4009              	.LASF181:
 4010 064c 50494F5F 		.ascii	"PIO_PCISR\000"
 4010      50434953 
 4010      5200
 4011              	.LASF66:
 4012 0656 5F737464 		.ascii	"_stderr\000"
 4012      65727200 
 4013              	.LASF202:
 4014 065e 6C696E65 		.ascii	"line\000"
 4014      00
 4015              	.LASF205:
 4016 0663 646F5F68 		.ascii	"do_hold\000"
 4016      6F6C6400 
ARM GAS  /tmp/ccna6WhB.s 			page 81


 4017              	.LASF37:
 4018 066b 5F666E74 		.ascii	"_fntypes\000"
 4018      79706573 
 4018      00
 4019              	.LASF187:
 4020 0674 50494F5F 		.ascii	"PIO_RNPR\000"
 4020      524E5052 
 4020      00
 4021              	.LASF3:
 4022 067d 73686F72 		.ascii	"short unsigned int\000"
 4022      7420756E 
 4022      7369676E 
 4022      65642069 
 4022      6E7400
 4023              	.LASF109:
 4024 0690 5F776372 		.ascii	"_wcrtomb_state\000"
 4024      746F6D62 
 4024      5F737461 
 4024      746500
 4025              	.LASF92:
 4026 069f 5F616464 		.ascii	"_add\000"
 4026      00
 4027              	.LASF17:
 4028 06a4 5F5F554C 		.ascii	"__ULong\000"
 4028      6F6E6700 
 4029              	.LASF169:
 4030 06ac 50494F5F 		.ascii	"PIO_FRLHSR\000"
 4030      46524C48 
 4030      535200
 4031              	.LASF105:
 4032 06b7 5F676574 		.ascii	"_getdate_err\000"
 4032      64617465 
 4032      5F657272 
 4032      00
 4033              	.LASF107:
 4034 06c4 5F6D6272 		.ascii	"_mbrtowc_state\000"
 4034      746F7763 
 4034      5F737461 
 4034      746500
 4035              	.LASF165:
 4036 06d3 50494F5F 		.ascii	"PIO_ELSR\000"
 4036      454C5352 
 4036      00
 4037              	.LASF69:
 4038 06dc 5F637572 		.ascii	"_current_category\000"
 4038      72656E74 
 4038      5F636174 
 4038      65676F72 
 4038      7900
 4039              	.LASF116:
 4040 06ee 75696E74 		.ascii	"uint32_t\000"
 4040      33325F74 
 4040      00
 4041              	.LASF206:
 4042 06f7 70696E73 		.ascii	"pins\000"
 4042      00
 4043              	.LASF201:
ARM GAS  /tmp/ccna6WhB.s 			page 82


 4044 06fc 61726776 		.ascii	"argv\000"
 4044      00
 4045              	.LASF93:
 4046 0701 5F756E75 		.ascii	"_unused_rand\000"
 4046      7365645F 
 4046      72616E64 
 4046      00
 4047              	.LASF72:
 4048 070e 5F5F636C 		.ascii	"__cleanup\000"
 4048      65616E75 
 4048      7000
 4049              	.LASF22:
 4050 0718 5F776473 		.ascii	"_wds\000"
 4050      00
 4051              	.LASF86:
 4052 071d 5F676C75 		.ascii	"_glue\000"
 4052      6500
 4053              	.LASF190:
 4054 0723 50494F5F 		.ascii	"PIO_TNCR\000"
 4054      544E4352 
 4054      00
 4055              	.LASF115:
 4056 072c 75696E74 		.ascii	"uint8_t\000"
 4056      385F7400 
 4057              	.LASF103:
 4058 0734 5F6C3634 		.ascii	"_l64a_buf\000"
 4058      615F6275 
 4058      6600
 4059              	.LASF23:
 4060 073e 5F426967 		.ascii	"_Bigint\000"
 4060      696E7400 
 4061              	.LASF81:
 4062 0746 5F736967 		.ascii	"_sig_func\000"
 4062      5F66756E 
 4062      6300
 4063              	.LASF157:
 4064 0750 50494F5F 		.ascii	"PIO_OWSR\000"
 4064      4F575352 
 4064      00
 4065              	.LASF55:
 4066 0759 5F6E6275 		.ascii	"_nbuf\000"
 4066      6600
 4067              	.LASF114:
 4068 075f 5F756E75 		.ascii	"_unused\000"
 4068      73656400 
 4069              	.LASF200:
 4070 0767 61726763 		.ascii	"argc\000"
 4070      00
 4071              	.LASF148:
 4072 076c 50494F5F 		.ascii	"PIO_IFSCER\000"
 4072      49465343 
 4072      455200
 4073              	.LASF33:
 4074 0777 5F5F746D 		.ascii	"__tm_isdst\000"
 4074      5F697364 
 4074      737400
 4075              	.LASF96:
ARM GAS  /tmp/ccna6WhB.s 			page 83


 4076 0782 5F6C6F63 		.ascii	"_localtime_buf\000"
 4076      616C7469 
 4076      6D655F62 
 4076      756600
 4077              	.LASF26:
 4078 0791 5F5F746D 		.ascii	"__tm_min\000"
 4078      5F6D696E 
 4078      00
 4079              	.LASF156:
 4080 079a 50494F5F 		.ascii	"PIO_OWDR\000"
 4080      4F574452 
 4080      00
 4081              	.LASF99:
 4082 07a3 5F723438 		.ascii	"_r48\000"
 4082      00
 4083              	.LASF129:
 4084 07a8 50494F5F 		.ascii	"PIO_SODR\000"
 4084      534F4452 
 4084      00
 4085              	.LASF147:
 4086 07b1 50494F5F 		.ascii	"PIO_IFSCDR\000"
 4086      49465343 
 4086      445200
 4087              	.LASF101:
 4088 07bc 5F6D6274 		.ascii	"_mbtowc_state\000"
 4088      6F77635F 
 4088      73746174 
 4088      6500
 4089              	.LASF75:
 4090 07ca 5F703573 		.ascii	"_p5s\000"
 4090      00
 4091              	.LASF208:
 4092 07cf 6D61696E 		.ascii	"main\000"
 4092      00
 4093              	.LASF42:
 4094 07d4 5F5F7362 		.ascii	"__sbuf\000"
 4094      756600
 4095              	.LASF204:
 4096 07db 646F5F70 		.ascii	"do_press\000"
 4096      72657373 
 4096      00
 4097              		.ident	"GCC: (Linaro GCC 4.5-2011.02-0) 4.5.2"
ARM GAS  /tmp/ccna6WhB.s 			page 84


DEFINED SYMBOLS
                            *ABS*:0000000000000000 main.c
     /tmp/ccna6WhB.s:27     .data:0000000000000000 _state
     /tmp/ccna6WhB.s:30     .rodata:0000000000000000 $d
     /tmp/ccna6WhB.s:31     .rodata:0000000000000000 .LC0
     /tmp/ccna6WhB.s:34     .rodata:0000000000000018 .LC1
     /tmp/ccna6WhB.s:37     .rodata:0000000000000044 .LC2
     /tmp/ccna6WhB.s:40     .rodata:0000000000000050 .LC3
     /tmp/ccna6WhB.s:43     .rodata:000000000000006c .LC4
     /tmp/ccna6WhB.s:46     .text.main:0000000000000000 $t
     /tmp/ccna6WhB.s:51     .text.main:0000000000000000 main
     /tmp/ccna6WhB.s:662    .rodata:0000000000000144 C.10.6302
     /tmp/ccna6WhB.s:480    .text.enter:0000000000000000 enter
     /tmp/ccna6WhB.s:229    .text.main:000000000000017c $d
     /tmp/ccna6WhB.s:235    .text.main:000000000000018c $t
     /tmp/ccna6WhB.s:314    .text.do_press:0000000000000000 $t
     /tmp/ccna6WhB.s:319    .text.do_press:0000000000000000 do_press
     /tmp/ccna6WhB.s:642    .rodata:000000000000012c C.8.6300
     /tmp/ccna6WhB.s:652    .rodata:0000000000000138 C.9.6301
     /tmp/ccna6WhB.s:364    .text.do_hold:0000000000000000 $t
     /tmp/ccna6WhB.s:369    .text.do_hold:0000000000000000 do_hold
     /tmp/ccna6WhB.s:626    .rodata:0000000000000114 C.7.6299
     /tmp/ccna6WhB.s:409    .text.do_vent:0000000000000000 $t
     /tmp/ccna6WhB.s:414    .text.do_vent:0000000000000000 do_vent
     /tmp/ccna6WhB.s:606    .rodata:00000000000000fc C.5.6297
     /tmp/ccna6WhB.s:616    .rodata:0000000000000108 C.6.6298
     /tmp/ccna6WhB.s:460    .rodata:0000000000000080 .LC5
     /tmp/ccna6WhB.s:463    .rodata:0000000000000098 .LC6
     /tmp/ccna6WhB.s:466    .rodata:00000000000000b4 .LC7
     /tmp/ccna6WhB.s:469    .rodata:00000000000000cc .LC8
     /tmp/ccna6WhB.s:472    .rodata:00000000000000e4 .LC9
     /tmp/ccna6WhB.s:475    .text.enter:0000000000000000 $t
     /tmp/ccna6WhB.s:513    .text.enter:0000000000000028 $d
     /tmp/ccna6WhB.s:519    .text.enter:0000000000000038 $t
                     .debug_frame:0000000000000010 $d

UNDEFINED SYMBOLS
_impure_ptr
fiprintf
TimeTick_Configure
LEDs_configure
LED_blink
PIO_Configure
input_init
USBC_Configure
USBC_isConfigured
setbuf
LED_blinkstop
USBC_hasData
gets
siscanf
GetTickCount
LED_blinking
PIO_Clear
PIO_Set
LED_clr
