ARM GAS  /tmp/cctY1dQA.s 			page 1


   1              		.syntax unified
   2              		.cpu cortex-m3
   3              		.fpu softvfp
   4              		.eabi_attribute 20, 1
   5              		.eabi_attribute 21, 1
   6              		.eabi_attribute 23, 3
   7              		.eabi_attribute 24, 1
   8              		.eabi_attribute 25, 1
   9              		.eabi_attribute 26, 1
  10              		.eabi_attribute 30, 6
  11              		.eabi_attribute 34, 1
  12              		.eabi_attribute 18, 4
  13              		.thumb
  14              		.file	"system.c"
  15              		.text
  16              	.Ltext0:
  17              		.cfi_sections	.debug_frame
  18              		.global	SystemCoreClock
  19              		.data
  20              		.align	2
  21              		.type	SystemCoreClock, %object
  22              		.size	SystemCoreClock, 4
  23              	SystemCoreClock:
  24 0000 01093D00 		.word	4000001
  25              		.section	.text.SystemCoreClockUpdate,"ax",%progbits
  26              		.align	2
  27              		.global	SystemCoreClockUpdate
  28              		.thumb
  29              		.thumb_func
  30              		.type	SystemCoreClockUpdate, %function
  31              	SystemCoreClockUpdate:
  32              	.LFB35:
  33              		.file 1 "board/system.c"
   1:board/system.c **** /* ----------------------------------------------------------------------------
   2:board/system.c ****  *         ATMEL Microcontroller Software Support
   3:board/system.c ****  * ----------------------------------------------------------------------------
   4:board/system.c ****  * Copyright (c) 2009, Atmel Corporation
   5:board/system.c ****  *
   6:board/system.c ****  * All rights reserved.
   7:board/system.c ****  *
   8:board/system.c ****  * Redistribution and use in source and binary forms, with or without
   9:board/system.c ****  * modification, are permitted provided that the following conditions are met:
  10:board/system.c ****  *
  11:board/system.c ****  * - Redistributions of source code must retain the above copyright notice,
  12:board/system.c ****  * this list of conditions and the disclaimer below.
  13:board/system.c ****  *
  14:board/system.c ****  * Atmel's name may not be used to endorse or promote products derived from
  15:board/system.c ****  * this software without specific prior written permission.
  16:board/system.c ****  *
  17:board/system.c ****  * DISCLAIMER: THIS SOFTWARE IS PROVIDED BY ATMEL "AS IS" AND ANY EXPRESS OR
  18:board/system.c ****  * IMPLIED WARRANTIES, INCLUDING, BUT NOT LIMITED TO, THE IMPLIED WARRANTIES OF
  19:board/system.c ****  * MERCHANTABILITY, FITNESS FOR A PARTICULAR PURPOSE AND NON-INFRINGEMENT ARE
  20:board/system.c ****  * DISCLAIMED. IN NO EVENT SHALL ATMEL BE LIABLE FOR ANY DIRECT, INDIRECT,
  21:board/system.c ****  * INCIDENTAL, SPECIAL, EXEMPLARY, OR CONSEQUENTIAL DAMAGES (INCLUDING, BUT NOT
  22:board/system.c ****  * LIMITED TO, PROCUREMENT OF SUBSTITUTE GOODS OR SERVICES; LOSS OF USE, DATA,
  23:board/system.c ****  * OR PROFITS; OR BUSINESS INTERRUPTION) HOWEVER CAUSED AND ON ANY THEORY OF
  24:board/system.c ****  * LIABILITY, WHETHER IN CONTRACT, STRICT LIABILITY, OR TORT (INCLUDING
ARM GAS  /tmp/cctY1dQA.s 			page 2


  25:board/system.c ****  * NEGLIGENCE OR OTHERWISE) ARISING IN ANY WAY OUT OF THE USE OF THIS SOFTWARE,
  26:board/system.c ****  * EVEN IF ADVISED OF THE POSSIBILITY OF SUCH DAMAGE.
  27:board/system.c ****  * ----------------------------------------------------------------------------
  28:board/system.c ****  */
  29:board/system.c **** 
  30:board/system.c **** /**
  31:board/system.c ****  * \file
  32:board/system.c ****  *
  33:board/system.c ****  * Provides the low-level initialization function that called on chip startup.
  34:board/system.c ****  */
  35:board/system.c **** 
  36:board/system.c **** /*----------------------------------------------------------------------------
  37:board/system.c ****  *        Headers
  38:board/system.c ****  *----------------------------------------------------------------------------*/
  39:board/system.c **** 
  40:board/system.c **** #include "board.h"
  41:board/system.c **** 
  42:board/system.c **** /*----------------------------------------------------------------------------
  43:board/system.c ****  *        Local definitions
  44:board/system.c ****  *----------------------------------------------------------------------------*/
  45:board/system.c **** /* Clock settings at 48MHz */
  46:board/system.c **** #if (BOARD_MCK == 48000000)
  47:board/system.c **** #define BOARD_OSCOUNT   (CKGR_MOR_MOSCXTST(0x8))
  48:board/system.c **** #define BOARD_PLLAR     (CKGR_PLLAR_STUCKTO1 \
  49:board/system.c ****                        | CKGR_PLLAR_MULA(0x7) \
  50:board/system.c ****                        | CKGR_PLLAR_PLLACOUNT(0x1) \
  51:board/system.c ****                        | CKGR_PLLAR_DIVA(0x1))
  52:board/system.c **** #define BOARD_MCKR      (PMC_MCKR_PRES_CLK_2 | PMC_MCKR_CSS_PLLA_CLK)
  53:board/system.c **** 
  54:board/system.c **** /* Clock settings at 64MHz */
  55:board/system.c **** #elif (BOARD_MCK == 64000000)
  56:board/system.c **** #define BOARD_OSCOUNT   (CKGR_MOR_MOSCXTST(0x8))
  57:board/system.c **** #define BOARD_PLLAR     (CKGR_PLLAR_STUCKTO1 \
  58:board/system.c ****                        | CKGR_PLLAR_MULA(0x0f) \
  59:board/system.c ****                        | CKGR_PLLAR_PLLACOUNT(0x1) \
  60:board/system.c ****                        | CKGR_PLLAR_DIVA(0x3))
  61:board/system.c **** #define BOARD_MCKR      (PMC_MCKR_PRES_CLK | PMC_MCKR_CSS_PLLA_CLK)
  62:board/system.c **** 
  63:board/system.c **** #else
  64:board/system.c ****     #error "No settings for current BOARD_MCK."
  65:board/system.c **** #endif
  66:board/system.c **** 
  67:board/system.c **** /* Define clock timeout */
  68:board/system.c **** #define CLOCK_TIMEOUT    0xFFFFFFFF
  69:board/system.c **** 
  70:board/system.c **** /*----------------------------------------------------------------------------
  71:board/system.c ****  *        Exported functions
  72:board/system.c ****  *----------------------------------------------------------------------------*/
  73:board/system.c **** 
  74:board/system.c **** volatile uint32_t SystemCoreClock = 4000001;
  75:board/system.c **** 
  76:board/system.c **** /*
  77:board/system.c ****  * Calculates system frequency from
  78:board/system.c ****  * measurement and register settings.
  79:board/system.c ****  *
  80:board/system.c ****  * This only works with a precise slow clock xtal
  81:board/system.c ****  * connected!
ARM GAS  /tmp/cctY1dQA.s 			page 3


  82:board/system.c ****  */
  83:board/system.c **** void SystemCoreClockUpdate()	
  84:board/system.c **** {
  34              		.loc 1 84 0
  35              		.cfi_startproc
  36              		@ args = 0, pretend = 0, frame = 0
  37              		@ frame_needed = 1, uses_anonymous_args = 0
  38              		@ link register save eliminated.
  39 0000 80B4     		push	{r7}
  40              	.LCFI0:
  41              		.cfi_def_cfa_offset 4
  42              		.cfi_offset 7, -4
  43 0002 00AF     		add	r7, sp, #0
  44              	.LCFI1:
  45              		.cfi_def_cfa_register 7
  85:board/system.c **** #ifndef HAS_SLOWCLK
  86:board/system.c **** 	SystemCoreClock = BOARD_MCK;
  46              		.loc 1 86 0
  47 0004 40F20003 		movw	r3, #:lower16:SystemCoreClock
  48 0008 C0F20003 		movt	r3, #:upper16:SystemCoreClock
  49 000c 4FF4D842 		mov	r2, #27648
  50 0010 C0F2DC22 		movt	r2, 732
  51 0014 1A60     		str	r2, [r3, #0]
  87:board/system.c **** #else
  88:board/system.c **** 	uint32_t mainf;
  89:board/system.c **** 	uint32_t sysf;
  90:board/system.c **** 	uint16_t mul;
  91:board/system.c **** 	uint8_t div;
  92:board/system.c **** 	uint8_t prescaler;
  93:board/system.c **** 
  94:board/system.c **** 	while(!(PMC->CKGR_MCFR & CKGR_MCFR_MAINFRDY));
  95:board/system.c **** 	/* MAINF holds MAINCLK cycles within 16 slow clock periods:
  96:board/system.c **** 	 * f = MAINF/(16 * 1/32768 Hz) = (MAINF * 2^15 Hz) / 2^4
  97:board/system.c **** 	 * f = MAINF * 2^11
  98:board/system.c **** 	 */
  99:board/system.c **** 	mainf = (PMC->CKGR_MCFR & CKGR_MCFR_MAINF_Msk) << 11;
 100:board/system.c **** 
 101:board/system.c **** 	switch(PMC->PMC_MCKR & PMC_MCKR_CSS_Msk) {
 102:board/system.c **** 		case PMC_MCKR_CSS_SLOW_CLK: // SLOW CLOCK selected
 103:board/system.c **** 			sysf = 32768; // lucky guess 
 104:board/system.c **** 			break;
 105:board/system.c **** 		case PMC_MCKR_CSS_MAIN_CLK: // MAIN CLOCK selected
 106:board/system.c **** 			sysf = mainf;
 107:board/system.c **** 			break;
 108:board/system.c **** 		case PMC_MCKR_CSS_PLLA_CLK: // PLLA CLOCK selected
 109:board/system.c **** 			mul = ((BOARD_PLLAR & CKGR_PLLAR_MULA_Msk) >> CKGR_PLLAR_MULA_Pos);
 110:board/system.c **** 			mul = (uint16_t)((PMC->CKGR_PLLAR & CKGR_PLLAR_MULA_Msk) >> CKGR_PLLAR_MULA_Pos);
 111:board/system.c **** 			div = (uint8_t) (PMC->CKGR_PLLAR & CKGR_PLLAR_DIVA_Msk);
 112:board/system.c **** 			if (mul == 0) // plla disabled? 
 113:board/system.c **** 				sysf = mainf;
 114:board/system.c **** 			else {
 115:board/system.c **** 				sysf = div == 0 ? 0 : mainf * (mul+1)/div;
 116:board/system.c **** 				if (PMC->PMC_MCKR & PMC_MCKR_PLLADIV2)
 117:board/system.c **** 					sysf = sysf >> 1;
 118:board/system.c **** 			}
 119:board/system.c **** 			break;
 120:board/system.c **** 		case PMC_MCKR_CSS_PLLB_CLK: // PLLB CLOCK selected
ARM GAS  /tmp/cctY1dQA.s 			page 4


 121:board/system.c **** 			mul = (uint16_t)((PMC->CKGR_PLLBR & CKGR_PLLBR_MULB_Msk) >> CKGR_PLLAR_MULA_Pos);
 122:board/system.c **** 			div = (uint8_t) (PMC->CKGR_PLLBR & CKGR_PLLBR_DIVB_Msk);
 123:board/system.c **** 			if (mul == 0) // pllb disabled? 
 124:board/system.c **** 				sysf = mainf;
 125:board/system.c **** 			else {
 126:board/system.c **** 				sysf = div == 0 ? 0 : mainf * (mul+1)/div;
 127:board/system.c **** 				if (PMC->PMC_MCKR & PMC_MCKR_PLLBDIV2)
 128:board/system.c **** 					sysf = sysf >> 1;
 129:board/system.c **** 			}
 130:board/system.c **** 			break;
 131:board/system.c **** 	}
 132:board/system.c **** 
 133:board/system.c **** 	prescaler = (PMC->PMC_MCKR & PMC_MCKR_PRES_Msk) >> PMC_MCKR_PRES_Pos;
 134:board/system.c **** 	SystemCoreClock = sysf >> prescaler;
 135:board/system.c **** #endif
 136:board/system.c **** }
  52              		.loc 1 136 0
  53 0016 BD46     		mov	sp, r7
  54 0018 80BC     		pop	{r7}
  55 001a 7047     		bx	lr
  56              		.cfi_endproc
  57              	.LFE35:
  58              		.size	SystemCoreClockUpdate, .-SystemCoreClockUpdate
  59              		.section	.text.SystemInit,"ax",%progbits
  60              		.align	2
  61              		.weak	SystemInit
  62              		.thumb
  63              		.thumb_func
  64              		.type	SystemInit, %function
  65              	SystemInit:
  66              	.LFB36:
 137:board/system.c **** 
 138:board/system.c **** /**
 139:board/system.c ****  * \brief Performs the low-level initialization of the chip.
 140:board/system.c ****  * This includes EFC and master clock configuration.
 141:board/system.c ****  * It also enable a low level on the pin NRST triggers a user reset.
 142:board/system.c ****  */
 143:board/system.c **** WEAK void SystemInit( void )
 144:board/system.c **** {
  67              		.loc 1 144 0
  68              		.cfi_startproc
  69              		@ args = 0, pretend = 0, frame = 8
  70              		@ frame_needed = 1, uses_anonymous_args = 0
  71              		@ link register save eliminated.
  72 0000 80B4     		push	{r7}
  73              	.LCFI2:
  74              		.cfi_def_cfa_offset 4
  75              		.cfi_offset 7, -4
  76 0002 83B0     		sub	sp, sp, #12
  77              	.LCFI3:
  78              		.cfi_def_cfa_offset 16
  79 0004 00AF     		add	r7, sp, #0
  80              	.LCFI4:
  81              		.cfi_def_cfa_register 7
 145:board/system.c ****     uint32_t timeout = 0;
  82              		.loc 1 145 0
  83 0006 4FF00003 		mov	r3, #0
ARM GAS  /tmp/cctY1dQA.s 			page 5


  84 000a 7B60     		str	r3, [r7, #4]
 146:board/system.c **** 
 147:board/system.c ****     /* Set 3 FWS for Embedded Flash Access */
 148:board/system.c ****     EFC->EEFC_FMR = EEFC_FMR_FWS(3);
  85              		.loc 1 148 0
  86 000c 4FF42063 		mov	r3, #2560
  87 0010 C4F20E03 		movt	r3, 16398
  88 0014 4FF44072 		mov	r2, #768
  89 0018 1A60     		str	r2, [r3, #0]
 149:board/system.c **** 
 150:board/system.c ****     /* Select external slow clock */
 151:board/system.c **** #ifdef HAS_SLOWCLK
 152:board/system.c ****     if ((SUPC->SUPC_SR & SUPC_SR_OSCSEL) != SUPC_SR_OSCSEL_CRYST)
 153:board/system.c ****     {
 154:board/system.c ****         SUPC->SUPC_CR = (uint32_t)(SUPC_CR_XTALSEL_CRYSTAL_SEL | SUPC_CR_KEY(0xA5));
 155:board/system.c ****         for ( timeout = 0; !(SUPC->SUPC_SR & SUPC_SR_OSCSEL_CRYST) ; );
 156:board/system.c ****     }
 157:board/system.c **** #endif
 158:board/system.c **** 
 159:board/system.c ****     /* Initialize main oscillator */
 160:board/system.c ****     if ( !(PMC->CKGR_MOR & CKGR_MOR_MOSCSEL) )
  90              		.loc 1 160 0
  91 001a 4FF48063 		mov	r3, #1024
  92 001e C4F20E03 		movt	r3, 16398
  93 0022 1B6A     		ldr	r3, [r3, #32]
  94 0024 03F08073 		and	r3, r3, #16777216
  95 0028 002B     		cmp	r3, #0
  96 002a 22D1     		bne	.L3
 161:board/system.c ****     {
 162:board/system.c ****         PMC->CKGR_MOR = CKGR_MOR_KEY(0x37) | BOARD_OSCOUNT | CKGR_MOR_MOSCRCEN | CKGR_MOR_MOSCXTEN;
  97              		.loc 1 162 0
  98 002c 4FF48063 		mov	r3, #1024
  99 0030 C4F20E03 		movt	r3, 16398
 100 0034 40F60902 		movw	r2, #2057
 101 0038 C0F23702 		movt	r2, 55
 102 003c 1A62     		str	r2, [r3, #32]
 163:board/system.c ****         for ( timeout = 0; !(PMC->PMC_SR & PMC_SR_MOSCXTS) && (timeout++ < CLOCK_TIMEOUT); );
 103              		.loc 1 163 0
 104 003e 4FF00003 		mov	r3, #0
 105 0042 7B60     		str	r3, [r7, #4]
 106 0044 00BF     		nop
 107              	.L4:
 108              		.loc 1 163 0 is_stmt 0 discriminator 1
 109 0046 4FF48063 		mov	r3, #1024
 110 004a C4F20E03 		movt	r3, 16398
 111 004e 9B6E     		ldr	r3, [r3, #104]
 112 0050 03F00103 		and	r3, r3, #1
 113 0054 002B     		cmp	r3, #0
 114 0056 0CD1     		bne	.L3
 115              		.loc 1 163 0 discriminator 2
 116 0058 7B68     		ldr	r3, [r7, #4]
 117 005a B3F1FF3F 		cmp	r3, #-1
 118 005e 0CBF     		ite	eq
 119 0060 0023     		moveq	r3, #0
 120 0062 0123     		movne	r3, #1
 121 0064 DBB2     		uxtb	r3, r3
 122 0066 7A68     		ldr	r2, [r7, #4]
ARM GAS  /tmp/cctY1dQA.s 			page 6


 123 0068 02F10102 		add	r2, r2, #1
 124 006c 7A60     		str	r2, [r7, #4]
 125 006e 002B     		cmp	r3, #0
 126 0070 E9D1     		bne	.L4
 127              	.L3:
 164:board/system.c ****     }
 165:board/system.c **** 
 166:board/system.c ****     /* Switch to 3-20MHz Xtal oscillator */
 167:board/system.c ****     PMC->CKGR_MOR = CKGR_MOR_KEY(0x37) | BOARD_OSCOUNT | CKGR_MOR_MOSCRCEN | CKGR_MOR_MOSCXTEN | CK
 128              		.loc 1 167 0 is_stmt 1
 129 0072 4FF48063 		mov	r3, #1024
 130 0076 C4F20E03 		movt	r3, 16398
 131 007a 40F60902 		movw	r2, #2057
 132 007e C0F23712 		movt	r2, 311
 133 0082 1A62     		str	r2, [r3, #32]
 168:board/system.c ****     for ( timeout = 0; !(PMC->PMC_SR & PMC_SR_MOSCSELS) && (timeout++ < CLOCK_TIMEOUT); );
 134              		.loc 1 168 0
 135 0084 4FF00003 		mov	r3, #0
 136 0088 7B60     		str	r3, [r7, #4]
 137 008a 00BF     		nop
 138              	.L6:
 139              		.loc 1 168 0 is_stmt 0 discriminator 1
 140 008c 4FF48063 		mov	r3, #1024
 141 0090 C4F20E03 		movt	r3, 16398
 142 0094 9B6E     		ldr	r3, [r3, #104]
 143 0096 03F48033 		and	r3, r3, #65536
 144 009a 002B     		cmp	r3, #0
 145 009c 0CD1     		bne	.L5
 146              		.loc 1 168 0 discriminator 2
 147 009e 7B68     		ldr	r3, [r7, #4]
 148 00a0 B3F1FF3F 		cmp	r3, #-1
 149 00a4 0CBF     		ite	eq
 150 00a6 0023     		moveq	r3, #0
 151 00a8 0123     		movne	r3, #1
 152 00aa DBB2     		uxtb	r3, r3
 153 00ac 7A68     		ldr	r2, [r7, #4]
 154 00ae 02F10102 		add	r2, r2, #1
 155 00b2 7A60     		str	r2, [r7, #4]
 156 00b4 002B     		cmp	r3, #0
 157 00b6 E9D1     		bne	.L6
 158              	.L5:
 169:board/system.c ****     PMC->PMC_MCKR = (PMC->PMC_MCKR & ~(uint32_t)PMC_MCKR_CSS_Msk) | PMC_MCKR_CSS_MAIN_CLK;
 159              		.loc 1 169 0 is_stmt 1
 160 00b8 4FF48063 		mov	r3, #1024
 161 00bc C4F20E03 		movt	r3, 16398
 162 00c0 4FF48062 		mov	r2, #1024
 163 00c4 C4F20E02 		movt	r2, 16398
 164 00c8 126B     		ldr	r2, [r2, #48]
 165 00ca 22F00302 		bic	r2, r2, #3
 166 00ce 42F00102 		orr	r2, r2, #1
 167 00d2 1A63     		str	r2, [r3, #48]
 170:board/system.c ****     for ( timeout = 0; !(PMC->PMC_SR & PMC_SR_MCKRDY) && (timeout++ < CLOCK_TIMEOUT) ; );
 168              		.loc 1 170 0
 169 00d4 4FF00003 		mov	r3, #0
 170 00d8 7B60     		str	r3, [r7, #4]
 171 00da 00BF     		nop
 172              	.L8:
ARM GAS  /tmp/cctY1dQA.s 			page 7


 173              		.loc 1 170 0 is_stmt 0 discriminator 1
 174 00dc 4FF48063 		mov	r3, #1024
 175 00e0 C4F20E03 		movt	r3, 16398
 176 00e4 9B6E     		ldr	r3, [r3, #104]
 177 00e6 03F00803 		and	r3, r3, #8
 178 00ea 002B     		cmp	r3, #0
 179 00ec 0CD1     		bne	.L7
 180              		.loc 1 170 0 discriminator 2
 181 00ee 7B68     		ldr	r3, [r7, #4]
 182 00f0 B3F1FF3F 		cmp	r3, #-1
 183 00f4 0CBF     		ite	eq
 184 00f6 0023     		moveq	r3, #0
 185 00f8 0123     		movne	r3, #1
 186 00fa DBB2     		uxtb	r3, r3
 187 00fc 7A68     		ldr	r2, [r7, #4]
 188 00fe 02F10102 		add	r2, r2, #1
 189 0102 7A60     		str	r2, [r7, #4]
 190 0104 002B     		cmp	r3, #0
 191 0106 E9D1     		bne	.L8
 192              	.L7:
 171:board/system.c **** 
 172:board/system.c ****     /* Initialize PLLA */
 173:board/system.c ****     PMC->CKGR_PLLAR = BOARD_PLLAR;
 193              		.loc 1 173 0 is_stmt 1
 194 0108 4FF48063 		mov	r3, #1024
 195 010c C4F20E03 		movt	r3, 16398
 196 0110 40F20112 		movw	r2, #257
 197 0114 C2F20702 		movt	r2, 8199
 198 0118 9A62     		str	r2, [r3, #40]
 174:board/system.c ****     for (timeout = 0; !(PMC->PMC_SR & PMC_SR_LOCKA) && (timeout++ < CLOCK_TIMEOUT); );
 199              		.loc 1 174 0
 200 011a 4FF00003 		mov	r3, #0
 201 011e 7B60     		str	r3, [r7, #4]
 202 0120 00BF     		nop
 203              	.L10:
 204              		.loc 1 174 0 is_stmt 0 discriminator 1
 205 0122 4FF48063 		mov	r3, #1024
 206 0126 C4F20E03 		movt	r3, 16398
 207 012a 9B6E     		ldr	r3, [r3, #104]
 208 012c 03F00203 		and	r3, r3, #2
 209 0130 002B     		cmp	r3, #0
 210 0132 0CD1     		bne	.L9
 211              		.loc 1 174 0 discriminator 2
 212 0134 7B68     		ldr	r3, [r7, #4]
 213 0136 B3F1FF3F 		cmp	r3, #-1
 214 013a 0CBF     		ite	eq
 215 013c 0023     		moveq	r3, #0
 216 013e 0123     		movne	r3, #1
 217 0140 DBB2     		uxtb	r3, r3
 218 0142 7A68     		ldr	r2, [r7, #4]
 219 0144 02F10102 		add	r2, r2, #1
 220 0148 7A60     		str	r2, [r7, #4]
 221 014a 002B     		cmp	r3, #0
 222 014c E9D1     		bne	.L10
 223              	.L9:
 175:board/system.c **** 
 176:board/system.c ****     /* Switch to main clock */
ARM GAS  /tmp/cctY1dQA.s 			page 8


 177:board/system.c ****     PMC->PMC_MCKR = (BOARD_MCKR & ~PMC_MCKR_CSS_Msk) | PMC_MCKR_CSS_MAIN_CLK;
 224              		.loc 1 177 0 is_stmt 1
 225 014e 4FF48063 		mov	r3, #1024
 226 0152 C4F20E03 		movt	r3, 16398
 227 0156 4FF01102 		mov	r2, #17
 228 015a 1A63     		str	r2, [r3, #48]
 178:board/system.c ****     for ( timeout = 0; !(PMC->PMC_SR & PMC_SR_MCKRDY) && (timeout++ < CLOCK_TIMEOUT) ; );
 229              		.loc 1 178 0
 230 015c 4FF00003 		mov	r3, #0
 231 0160 7B60     		str	r3, [r7, #4]
 232 0162 00BF     		nop
 233              	.L12:
 234              		.loc 1 178 0 is_stmt 0 discriminator 1
 235 0164 4FF48063 		mov	r3, #1024
 236 0168 C4F20E03 		movt	r3, 16398
 237 016c 9B6E     		ldr	r3, [r3, #104]
 238 016e 03F00803 		and	r3, r3, #8
 239 0172 002B     		cmp	r3, #0
 240 0174 0CD1     		bne	.L11
 241              		.loc 1 178 0 discriminator 2
 242 0176 7B68     		ldr	r3, [r7, #4]
 243 0178 B3F1FF3F 		cmp	r3, #-1
 244 017c 0CBF     		ite	eq
 245 017e 0023     		moveq	r3, #0
 246 0180 0123     		movne	r3, #1
 247 0182 DBB2     		uxtb	r3, r3
 248 0184 7A68     		ldr	r2, [r7, #4]
 249 0186 02F10102 		add	r2, r2, #1
 250 018a 7A60     		str	r2, [r7, #4]
 251 018c 002B     		cmp	r3, #0
 252 018e E9D1     		bne	.L12
 253              	.L11:
 179:board/system.c **** 
 180:board/system.c ****     PMC->PMC_MCKR = BOARD_MCKR ;
 254              		.loc 1 180 0 is_stmt 1
 255 0190 4FF48063 		mov	r3, #1024
 256 0194 C4F20E03 		movt	r3, 16398
 257 0198 4FF01202 		mov	r2, #18
 258 019c 1A63     		str	r2, [r3, #48]
 181:board/system.c ****     for ( timeout = 0; !(PMC->PMC_SR & PMC_SR_MCKRDY) && (timeout++ < CLOCK_TIMEOUT) ; );
 259              		.loc 1 181 0
 260 019e 4FF00003 		mov	r3, #0
 261 01a2 7B60     		str	r3, [r7, #4]
 262 01a4 00BF     		nop
 263              	.L14:
 264              		.loc 1 181 0 is_stmt 0 discriminator 1
 265 01a6 4FF48063 		mov	r3, #1024
 266 01aa C4F20E03 		movt	r3, 16398
 267 01ae 9B6E     		ldr	r3, [r3, #104]
 268 01b0 03F00803 		and	r3, r3, #8
 269 01b4 002B     		cmp	r3, #0
 270 01b6 0CD1     		bne	.L2
 271              		.loc 1 181 0 discriminator 2
 272 01b8 7B68     		ldr	r3, [r7, #4]
 273 01ba B3F1FF3F 		cmp	r3, #-1
 274 01be 0CBF     		ite	eq
 275 01c0 0023     		moveq	r3, #0
ARM GAS  /tmp/cctY1dQA.s 			page 9


 276 01c2 0123     		movne	r3, #1
 277 01c4 DBB2     		uxtb	r3, r3
 278 01c6 7A68     		ldr	r2, [r7, #4]
 279 01c8 02F10102 		add	r2, r2, #1
 280 01cc 7A60     		str	r2, [r7, #4]
 281 01ce 002B     		cmp	r3, #0
 282 01d0 E9D1     		bne	.L14
 283              	.L2:
 182:board/system.c **** 
 183:board/system.c **** }
 284              		.loc 1 183 0 is_stmt 1
 285 01d2 07F10C07 		add	r7, r7, #12
 286 01d6 BD46     		mov	sp, r7
 287 01d8 80BC     		pop	{r7}
 288 01da 7047     		bx	lr
 289              		.cfi_endproc
 290              	.LFE36:
 291              		.size	SystemInit, .-SystemInit
 292              		.text
 293              	.Letext0:
 294              		.file 2 "libchip/include/SAM3S.h"
 295              		.file 3 "libchip/cmsis/core_cm3.h"
 296              		.file 4 "board/system.h"
 297              		.file 5 "/usr/local/Sourcery/bin/../lib/gcc/arm-none-eabi/4.6.1/../../../../arm-none-eabi/include/