ARM GAS  /tmp/cctY1dQA.s 			page 1


   1              		.syntax unified
   2              		.cpu cortex-m3
   3              		.fpu softvfp
   4              		.eabi_attribute 20, 1
   5              		.eabi_attribute 21, 1
   6              		.eabi_attribute 23, 3
   7              		.eabi_attribute 24, 1
   8              		.eabi_attribute 25, 1
   9              		.eabi_attribute 26, 1
  10              		.eabi_attribute 30, 6
  11              		.eabi_attribute 34, 1
  12              		.eabi_attribute 18, 4
  13              		.thumb
  14              		.file	"system.c"
  15              		.text
  16              	.Ltext0:
  17              		.cfi_sections	.debug_frame
  18              		.global	SystemCoreClock
  19              		.data
  20              		.align	2
  21              		.type	SystemCoreClock, %object
  22              		.size	SystemCoreClock, 4
  23              	SystemCoreClock:
  24 0000 01093D00 		.word	4000001
  25              		.section	.text.SystemCoreClockUpdate,"ax",%progbits
  26              		.align	2
  27              		.global	SystemCoreClockUpdate
  28              		.thumb
  29              		.thumb_func
  30              		.type	SystemCoreClockUpdate, %function
  31              	SystemCoreClockUpdate:
  32              	.LFB35:
  33              		.file 1 "board/system.c"
   1:board/system.c **** /* ----------------------------------------------------------------------------
   2:board/system.c ****  *         ATMEL Microcontroller Software Support
   3:board/system.c ****  * ----------------------------------------------------------------------------
   4:board/system.c ****  * Copyright (c) 2009, Atmel Corporation
   5:board/system.c ****  *
   6:board/system.c ****  * All rights reserved.
   7:board/system.c ****  *
   8:board/system.c ****  * Redistribution and use in source and binary forms, with or without
   9:board/system.c ****  * modification, are permitted provided that the following conditions are met:
  10:board/system.c ****  *
  11:board/system.c ****  * - Redistributions of source code must retain the above copyright notice,
  12:board/system.c ****  * this list of conditions and the disclaimer below.
  13:board/system.c ****  *
  14:board/system.c ****  * Atmel's name may not be used to endorse or promote products derived from
  15:board/system.c ****  * this software without specific prior written permission.
  16:board/system.c ****  *
  17:board/system.c ****  * DISCLAIMER: THIS SOFTWARE IS PROVIDED BY ATMEL "AS IS" AND ANY EXPRESS OR
  18:board/system.c ****  * IMPLIED WARRANTIES, INCLUDING, BUT NOT LIMITED TO, THE IMPLIED WARRANTIES OF
  19:board/system.c ****  * MERCHANTABILITY, FITNESS FOR A PARTICULAR PURPOSE AND NON-INFRINGEMENT ARE
  20:board/system.c ****  * DISCLAIMED. IN NO EVENT SHALL ATMEL BE LIABLE FOR ANY DIRECT, INDIRECT,
  21:board/system.c ****  * INCIDENTAL, SPECIAL, EXEMPLARY, OR CONSEQUENTIAL DAMAGES (INCLUDING, BUT NOT
  22:board/system.c ****  * LIMITED TO, PROCUREMENT OF SUBSTITUTE GOODS OR SERVICES; LOSS OF USE, DATA,
  23:board/system.c ****  * OR PROFITS; OR BUSINESS INTERRUPTION) HOWEVER CAUSED AND ON ANY THEORY OF
  24:board/system.c ****  * LIABILITY, WHETHER IN CONTRACT, STRICT LIABILITY, OR TORT (INCLUDING
ARM GAS  /tmp/cctY1dQA.s 			page 2


  25:board/system.c ****  * NEGLIGENCE OR OTHERWISE) ARISING IN ANY WAY OUT OF THE USE OF THIS SOFTWARE,
  26:board/system.c ****  * EVEN IF ADVISED OF THE POSSIBILITY OF SUCH DAMAGE.
  27:board/system.c ****  * ----------------------------------------------------------------------------
  28:board/system.c ****  */
  29:board/system.c **** 
  30:board/system.c **** /**
  31:board/system.c ****  * \file
  32:board/system.c ****  *
  33:board/system.c ****  * Provides the low-level initialization function that called on chip startup.
  34:board/system.c ****  */
  35:board/system.c **** 
  36:board/system.c **** /*----------------------------------------------------------------------------
  37:board/system.c ****  *        Headers
  38:board/system.c ****  *----------------------------------------------------------------------------*/
  39:board/system.c **** 
  40:board/system.c **** #include "board.h"
  41:board/system.c **** 
  42:board/system.c **** /*----------------------------------------------------------------------------
  43:board/system.c ****  *        Local definitions
  44:board/system.c ****  *----------------------------------------------------------------------------*/
  45:board/system.c **** /* Clock settings at 48MHz */
  46:board/system.c **** #if (BOARD_MCK == 48000000)
  47:board/system.c **** #define BOARD_OSCOUNT   (CKGR_MOR_MOSCXTST(0x8))
  48:board/system.c **** #define BOARD_PLLAR     (CKGR_PLLAR_STUCKTO1 \
  49:board/system.c ****                        | CKGR_PLLAR_MULA(0x7) \
  50:board/system.c ****                        | CKGR_PLLAR_PLLACOUNT(0x1) \
  51:board/system.c ****                        | CKGR_PLLAR_DIVA(0x1))
  52:board/system.c **** #define BOARD_MCKR      (PMC_MCKR_PRES_CLK_2 | PMC_MCKR_CSS_PLLA_CLK)
  53:board/system.c **** 
  54:board/system.c **** /* Clock settings at 64MHz */
  55:board/system.c **** #elif (BOARD_MCK == 64000000)
  56:board/system.c **** #define BOARD_OSCOUNT   (CKGR_MOR_MOSCXTST(0x8))
  57:board/system.c **** #define BOARD_PLLAR     (CKGR_PLLAR_STUCKTO1 \
  58:board/system.c ****                        | CKGR_PLLAR_MULA(0x0f) \
  59:board/system.c ****                        | CKGR_PLLAR_PLLACOUNT(0x1) \
  60:board/system.c ****                        | CKGR_PLLAR_DIVA(0x3))
  61:board/system.c **** #define BOARD_MCKR      (PMC_MCKR_PRES_CLK | PMC_MCKR_CSS_PLLA_CLK)
  62:board/system.c **** 
  63:board/system.c **** #else
  64:board/system.c ****     #error "No settings for current BOARD_MCK."
  65:board/system.c **** #endif
  66:board/system.c **** 
  67:board/system.c **** /* Define clock timeout */
  68:board/system.c **** #define CLOCK_TIMEOUT    0xFFFFFFFF
  69:board/system.c **** 
  70:board/system.c **** /*----------------------------------------------------------------------------
  71:board/system.c ****  *        Exported functions
  72:board/system.c ****  *----------------------------------------------------------------------------*/
  73:board/system.c **** 
  74:board/system.c **** volatile uint32_t SystemCoreClock = 4000001;
  75:board/system.c **** 
  76:board/system.c **** /*
  77:board/system.c ****  * Calculates system frequency from
  78:board/system.c ****  * measurement and register settings.
  79:board/system.c ****  *
  80:board/system.c ****  * This only works with a precise slow clock xtal
  81:board/system.c ****  * connected!
ARM GAS  /tmp/cctY1dQA.s 			page 3


  82:board/system.c ****  */
  83:board/system.c **** void SystemCoreClockUpdate()	
  84:board/system.c **** {
  34              		.loc 1 84 0
  35              		.cfi_startproc
  36              		@ args = 0, pretend = 0, frame = 0
  37              		@ frame_needed = 1, uses_anonymous_args = 0
  38              		@ link register save eliminated.
  39 0000 80B4     		push	{r7}
  40              	.LCFI0:
  41              		.cfi_def_cfa_offset 4
  42              		.cfi_offset 7, -4
  43 0002 00AF     		add	r7, sp, #0
  44              	.LCFI1:
  45              		.cfi_def_cfa_register 7
  85:board/system.c **** #ifndef HAS_SLOWCLK
  86:board/system.c **** 	SystemCoreClock = BOARD_MCK;
  46              		.loc 1 86 0
  47 0004 40F20003 		movw	r3, #:lower16:SystemCoreClock
  48 0008 C0F20003 		movt	r3, #:upper16:SystemCoreClock
  49 000c 4FF4D842 		mov	r2, #27648
  50 0010 C0F2DC22 		movt	r2, 732
  51 0014 1A60     		str	r2, [r3, #0]
  87:board/system.c **** #else
  88:board/system.c **** 	uint32_t mainf;
  89:board/system.c **** 	uint32_t sysf;
  90:board/system.c **** 	uint16_t mul;
  91:board/system.c **** 	uint8_t div;
  92:board/system.c **** 	uint8_t prescaler;
  93:board/system.c **** 
  94:board/system.c **** 	while(!(PMC->CKGR_MCFR & CKGR_MCFR_MAINFRDY));
  95:board/system.c **** 	/* MAINF holds MAINCLK cycles within 16 slow clock periods:
  96:board/system.c **** 	 * f = MAINF/(16 * 1/32768 Hz) = (MAINF * 2^15 Hz) / 2^4
  97:board/system.c **** 	 * f = MAINF * 2^11
  98:board/system.c **** 	 */
  99:board/system.c **** 	mainf = (PMC->CKGR_MCFR & CKGR_MCFR_MAINF_Msk) << 11;
 100:board/system.c **** 
 101:board/system.c **** 	switch(PMC->PMC_MCKR & PMC_MCKR_CSS_Msk) {
 102:board/system.c **** 		case PMC_MCKR_CSS_SLOW_CLK: // SLOW CLOCK selected
 103:board/system.c **** 			sysf = 32768; // lucky guess 
 104:board/system.c **** 			break;
 105:board/system.c **** 		case PMC_MCKR_CSS_MAIN_CLK: // MAIN CLOCK selected
 106:board/system.c **** 			sysf = mainf;
 107:board/system.c **** 			break;
 108:board/system.c **** 		case PMC_MCKR_CSS_PLLA_CLK: // PLLA CLOCK selected
 109:board/system.c **** 			mul = ((BOARD_PLLAR & CKGR_PLLAR_MULA_Msk) >> CKGR_PLLAR_MULA_Pos);
 110:board/system.c **** 			mul = (uint16_t)((PMC->CKGR_PLLAR & CKGR_PLLAR_MULA_Msk) >> CKGR_PLLAR_MULA_Pos);
 111:board/system.c **** 			div = (uint8_t) (PMC->CKGR_PLLAR & CKGR_PLLAR_DIVA_Msk);
 112:board/system.c **** 			if (mul == 0) // plla disabled? 
 113:board/system.c **** 				sysf = mainf;
 114:board/system.c **** 			else {
 115:board/system.c **** 				sysf = div == 0 ? 0 : mainf * (mul+1)/div;
 116:board/system.c **** 				if (PMC->PMC_MCKR & PMC_MCKR_PLLADIV2)
 117:board/system.c **** 					sysf = sysf >> 1;
 118:board/system.c **** 			}
 119:board/system.c **** 			break;
 120:board/system.c **** 		case PMC_MCKR_CSS_PLLB_CLK: // PLLB CLOCK selected
ARM GAS  /tmp/cctY1dQA.s 			page 4


 121:board/system.c **** 			mul = (uint16_t)((PMC->CKGR_PLLBR & CKGR_PLLBR_MULB_Msk) >> CKGR_PLLAR_MULA_Pos);
 122:board/system.c **** 			div = (uint8_t) (PMC->CKGR_PLLBR & CKGR_PLLBR_DIVB_Msk);
 123:board/system.c **** 			if (mul == 0) // pllb disabled? 
 124:board/system.c **** 				sysf = mainf;
 125:board/system.c **** 			else {
 126:board/system.c **** 				sysf = div == 0 ? 0 : mainf * (mul+1)/div;
 127:board/system.c **** 				if (PMC->PMC_MCKR & PMC_MCKR_PLLBDIV2)
 128:board/system.c **** 					sysf = sysf >> 1;
 129:board/system.c **** 			}
 130:board/system.c **** 			break;
 131:board/system.c **** 	}
 132:board/system.c **** 
 133:board/system.c **** 	prescaler = (PMC->PMC_MCKR & PMC_MCKR_PRES_Msk) >> PMC_MCKR_PRES_Pos;
 134:board/system.c **** 	SystemCoreClock = sysf >> prescaler;
 135:board/system.c **** #endif
 136:board/system.c **** }
  52              		.loc 1 136 0
  53 0016 BD46     		mov	sp, r7
  54 0018 80BC     		pop	{r7}
  55 001a 7047     		bx	lr
  56              		.cfi_endproc
  57              	.LFE35:
  58              		.size	SystemCoreClockUpdate, .-SystemCoreClockUpdate
  59              		.section	.text.SystemInit,"ax",%progbits
  60              		.align	2
  61              		.weak	SystemInit
  62              		.thumb
  63              		.thumb_func
  64              		.type	SystemInit, %function
  65              	SystemInit:
  66              	.LFB36:
 137:board/system.c **** 
 138:board/system.c **** /**
 139:board/system.c ****  * \brief Performs the low-level initialization of the chip.
 140:board/system.c ****  * This includes EFC and master clock configuration.
 141:board/system.c ****  * It also enable a low level on the pin NRST triggers a user reset.
 142:board/system.c ****  */
 143:board/system.c **** WEAK void SystemInit( void )
 144:board/system.c **** {
  67              		.loc 1 144 0
  68              		.cfi_startproc
  69              		@ args = 0, pretend = 0, frame = 8
  70              		@ frame_needed = 1, uses_anonymous_args = 0
  71              		@ link register save eliminated.
  72 0000 80B4     		push	{r7}
  73              	.LCFI2:
  74              		.cfi_def_cfa_offset 4
  75              		.cfi_offset 7, -4
  76 0002 83B0     		sub	sp, sp, #12
  77              	.LCFI3:
  78              		.cfi_def_cfa_offset 16
  79 0004 00AF     		add	r7, sp, #0
  80              	.LCFI4:
  81              		.cfi_def_cfa_register 7
 145:board/system.c ****     uint32_t timeout = 0;
  82              		.loc 1 145 0
  83 0006 4FF00003 		mov	r3, #0
ARM GAS  /tmp/cctY1dQA.s 			page 5


  84 000a 7B60     		str	r3, [r7, #4]
 146:board/system.c **** 
 147:board/system.c ****     /* Set 3 FWS for Embedded Flash Access */
 148:board/system.c ****     EFC->EEFC_FMR = EEFC_FMR_FWS(3);
  85              		.loc 1 148 0
  86 000c 4FF42063 		mov	r3, #2560
  87 0010 C4F20E03 		movt	r3, 16398
  88 0014 4FF44072 		mov	r2, #768
  89 0018 1A60     		str	r2, [r3, #0]
 149:board/system.c **** 
 150:board/system.c ****     /* Select external slow clock */
 151:board/system.c **** #ifdef HAS_SLOWCLK
 152:board/system.c ****     if ((SUPC->SUPC_SR & SUPC_SR_OSCSEL) != SUPC_SR_OSCSEL_CRYST)
 153:board/system.c ****     {
 154:board/system.c ****         SUPC->SUPC_CR = (uint32_t)(SUPC_CR_XTALSEL_CRYSTAL_SEL | SUPC_CR_KEY(0xA5));
 155:board/system.c ****         for ( timeout = 0; !(SUPC->SUPC_SR & SUPC_SR_OSCSEL_CRYST) ; );
 156:board/system.c ****     }
 157:board/system.c **** #endif
 158:board/system.c **** 
 159:board/system.c ****     /* Initialize main oscillator */
 160:board/system.c ****     if ( !(PMC->CKGR_MOR & CKGR_MOR_MOSCSEL) )
  90              		.loc 1 160 0
  91 001a 4FF48063 		mov	r3, #1024
  92 001e C4F20E03 		movt	r3, 16398
  93 0022 1B6A     		ldr	r3, [r3, #32]
  94 0024 03F08073 		and	r3, r3, #16777216
  95 0028 002B     		cmp	r3, #0
  96 002a 22D1     		bne	.L3
 161:board/system.c ****     {
 162:board/system.c ****         PMC->CKGR_MOR = CKGR_MOR_KEY(0x37) | BOARD_OSCOUNT | CKGR_MOR_MOSCRCEN | CKGR_MOR_MOSCXTEN;
  97              		.loc 1 162 0
  98 002c 4FF48063 		mov	r3, #1024
  99 0030 C4F20E03 		movt	r3, 16398
 100 0034 40F60902 		movw	r2, #2057
 101 0038 C0F23702 		movt	r2, 55
 102 003c 1A62     		str	r2, [r3, #32]
 163:board/system.c ****         for ( timeout = 0; !(PMC->PMC_SR & PMC_SR_MOSCXTS) && (timeout++ < CLOCK_TIMEOUT); );
 103              		.loc 1 163 0
 104 003e 4FF00003 		mov	r3, #0
 105 0042 7B60     		str	r3, [r7, #4]
 106 0044 00BF     		nop
 107              	.L4:
 108              		.loc 1 163 0 is_stmt 0 discriminator 1
 109 0046 4FF48063 		mov	r3, #1024
 110 004a C4F20E03 		movt	r3, 16398
 111 004e 9B6E     		ldr	r3, [r3, #104]
 112 0050 03F00103 		and	r3, r3, #1
 113 0054 002B     		cmp	r3, #0
 114 0056 0CD1     		bne	.L3
 115              		.loc 1 163 0 discriminator 2
 116 0058 7B68     		ldr	r3, [r7, #4]
 117 005a B3F1FF3F 		cmp	r3, #-1
 118 005e 0CBF     		ite	eq
 119 0060 0023     		moveq	r3, #0
 120 0062 0123     		movne	r3, #1
 121 0064 DBB2     		uxtb	r3, r3
 122 0066 7A68     		ldr	r2, [r7, #4]
ARM GAS  /tmp/cctY1dQA.s 			page 6


 123 0068 02F10102 		add	r2, r2, #1
 124 006c 7A60     		str	r2, [r7, #4]
 125 006e 002B     		cmp	r3, #0
 126 0070 E9D1     		bne	.L4
 127              	.L3:
 164:board/system.c ****     }
 165:board/system.c **** 
 166:board/system.c ****     /* Switch to 3-20MHz Xtal oscillator */
 167:board/system.c ****     PMC->CKGR_MOR = CKGR_MOR_KEY(0x37) | BOARD_OSCOUNT | CKGR_MOR_MOSCRCEN | CKGR_MOR_MOSCXTEN | CK
 128              		.loc 1 167 0 is_stmt 1
 129 0072 4FF48063 		mov	r3, #1024
 130 0076 C4F20E03 		movt	r3, 16398
 131 007a 40F60902 		movw	r2, #2057
 132 007e C0F23712 		movt	r2, 311
 133 0082 1A62     		str	r2, [r3, #32]
 168:board/system.c ****     for ( timeout = 0; !(PMC->PMC_SR & PMC_SR_MOSCSELS) && (timeout++ < CLOCK_TIMEOUT); );
 134              		.loc 1 168 0
 135 0084 4FF00003 		mov	r3, #0
 136 0088 7B60     		str	r3, [r7, #4]
 137 008a 00BF     		nop
 138              	.L6:
 139              		.loc 1 168 0 is_stmt 0 discriminator 1
 140 008c 4FF48063 		mov	r3, #1024
 141 0090 C4F20E03 		movt	r3, 16398
 142 0094 9B6E     		ldr	r3, [r3, #104]
 143 0096 03F48033 		and	r3, r3, #65536
 144 009a 002B     		cmp	r3, #0
 145 009c 0CD1     		bne	.L5
 146              		.loc 1 168 0 discriminator 2
 147 009e 7B68     		ldr	r3, [r7, #4]
 148 00a0 B3F1FF3F 		cmp	r3, #-1
 149 00a4 0CBF     		ite	eq
 150 00a6 0023     		moveq	r3, #0
 151 00a8 0123     		movne	r3, #1
 152 00aa DBB2     		uxtb	r3, r3
 153 00ac 7A68     		ldr	r2, [r7, #4]
 154 00ae 02F10102 		add	r2, r2, #1
 155 00b2 7A60     		str	r2, [r7, #4]
 156 00b4 002B     		cmp	r3, #0
 157 00b6 E9D1     		bne	.L6
 158              	.L5:
 169:board/system.c ****     PMC->PMC_MCKR = (PMC->PMC_MCKR & ~(uint32_t)PMC_MCKR_CSS_Msk) | PMC_MCKR_CSS_MAIN_CLK;
 159              		.loc 1 169 0 is_stmt 1
 160 00b8 4FF48063 		mov	r3, #1024
 161 00bc C4F20E03 		movt	r3, 16398
 162 00c0 4FF48062 		mov	r2, #1024
 163 00c4 C4F20E02 		movt	r2, 16398
 164 00c8 126B     		ldr	r2, [r2, #48]
 165 00ca 22F00302 		bic	r2, r2, #3
 166 00ce 42F00102 		orr	r2, r2, #1
 167 00d2 1A63     		str	r2, [r3, #48]
 170:board/system.c ****     for ( timeout = 0; !(PMC->PMC_SR & PMC_SR_MCKRDY) && (timeout++ < CLOCK_TIMEOUT) ; );
 168              		.loc 1 170 0
 169 00d4 4FF00003 		mov	r3, #0
 170 00d8 7B60     		str	r3, [r7, #4]
 171 00da 00BF     		nop
 172              	.L8:
ARM GAS  /tmp/cctY1dQA.s 			page 7


 173              		.loc 1 170 0 is_stmt 0 discriminator 1
 174 00dc 4FF48063 		mov	r3, #1024
 175 00e0 C4F20E03 		movt	r3, 16398
 176 00e4 9B6E     		ldr	r3, [r3, #104]
 177 00e6 03F00803 		and	r3, r3, #8
 178 00ea 002B     		cmp	r3, #0
 179 00ec 0CD1     		bne	.L7
 180              		.loc 1 170 0 discriminator 2
 181 00ee 7B68     		ldr	r3, [r7, #4]
 182 00f0 B3F1FF3F 		cmp	r3, #-1
 183 00f4 0CBF     		ite	eq
 184 00f6 0023     		moveq	r3, #0
 185 00f8 0123     		movne	r3, #1
 186 00fa DBB2     		uxtb	r3, r3
 187 00fc 7A68     		ldr	r2, [r7, #4]
 188 00fe 02F10102 		add	r2, r2, #1
 189 0102 7A60     		str	r2, [r7, #4]
 190 0104 002B     		cmp	r3, #0
 191 0106 E9D1     		bne	.L8
 192              	.L7:
 171:board/system.c **** 
 172:board/system.c ****     /* Initialize PLLA */
 173:board/system.c ****     PMC->CKGR_PLLAR = BOARD_PLLAR;
 193              		.loc 1 173 0 is_stmt 1
 194 0108 4FF48063 		mov	r3, #1024
 195 010c C4F20E03 		movt	r3, 16398
 196 0110 40F20112 		movw	r2, #257
 197 0114 C2F20702 		movt	r2, 8199
 198 0118 9A62     		str	r2, [r3, #40]
 174:board/system.c ****     for (timeout = 0; !(PMC->PMC_SR & PMC_SR_LOCKA) && (timeout++ < CLOCK_TIMEOUT); );
 199              		.loc 1 174 0
 200 011a 4FF00003 		mov	r3, #0
 201 011e 7B60     		str	r3, [r7, #4]
 202 0120 00BF     		nop
 203              	.L10:
 204              		.loc 1 174 0 is_stmt 0 discriminator 1
 205 0122 4FF48063 		mov	r3, #1024
 206 0126 C4F20E03 		movt	r3, 16398
 207 012a 9B6E     		ldr	r3, [r3, #104]
 208 012c 03F00203 		and	r3, r3, #2
 209 0130 002B     		cmp	r3, #0
 210 0132 0CD1     		bne	.L9
 211              		.loc 1 174 0 discriminator 2
 212 0134 7B68     		ldr	r3, [r7, #4]
 213 0136 B3F1FF3F 		cmp	r3, #-1
 214 013a 0CBF     		ite	eq
 215 013c 0023     		moveq	r3, #0
 216 013e 0123     		movne	r3, #1
 217 0140 DBB2     		uxtb	r3, r3
 218 0142 7A68     		ldr	r2, [r7, #4]
 219 0144 02F10102 		add	r2, r2, #1
 220 0148 7A60     		str	r2, [r7, #4]
 221 014a 002B     		cmp	r3, #0
 222 014c E9D1     		bne	.L10
 223              	.L9:
 175:board/system.c **** 
 176:board/system.c ****     /* Switch to main clock */
ARM GAS  /tmp/cctY1dQA.s 			page 8


 177:board/system.c ****     PMC->PMC_MCKR = (BOARD_MCKR & ~PMC_MCKR_CSS_Msk) | PMC_MCKR_CSS_MAIN_CLK;
 224              		.loc 1 177 0 is_stmt 1
 225 014e 4FF48063 		mov	r3, #1024
 226 0152 C4F20E03 		movt	r3, 16398
 227 0156 4FF01102 		mov	r2, #17
 228 015a 1A63     		str	r2, [r3, #48]
 178:board/system.c ****     for ( timeout = 0; !(PMC->PMC_SR & PMC_SR_MCKRDY) && (timeout++ < CLOCK_TIMEOUT) ; );
 229              		.loc 1 178 0
 230 015c 4FF00003 		mov	r3, #0
 231 0160 7B60     		str	r3, [r7, #4]
 232 0162 00BF     		nop
 233              	.L12:
 234              		.loc 1 178 0 is_stmt 0 discriminator 1
 235 0164 4FF48063 		mov	r3, #1024
 236 0168 C4F20E03 		movt	r3, 16398
 237 016c 9B6E     		ldr	r3, [r3, #104]
 238 016e 03F00803 		and	r3, r3, #8
 239 0172 002B     		cmp	r3, #0
 240 0174 0CD1     		bne	.L11
 241              		.loc 1 178 0 discriminator 2
 242 0176 7B68     		ldr	r3, [r7, #4]
 243 0178 B3F1FF3F 		cmp	r3, #-1
 244 017c 0CBF     		ite	eq
 245 017e 0023     		moveq	r3, #0
 246 0180 0123     		movne	r3, #1
 247 0182 DBB2     		uxtb	r3, r3
 248 0184 7A68     		ldr	r2, [r7, #4]
 249 0186 02F10102 		add	r2, r2, #1
 250 018a 7A60     		str	r2, [r7, #4]
 251 018c 002B     		cmp	r3, #0
 252 018e E9D1     		bne	.L12
 253              	.L11:
 179:board/system.c **** 
 180:board/system.c ****     PMC->PMC_MCKR = BOARD_MCKR ;
 254              		.loc 1 180 0 is_stmt 1
 255 0190 4FF48063 		mov	r3, #1024
 256 0194 C4F20E03 		movt	r3, 16398
 257 0198 4FF01202 		mov	r2, #18
 258 019c 1A63     		str	r2, [r3, #48]
 181:board/system.c ****     for ( timeout = 0; !(PMC->PMC_SR & PMC_SR_MCKRDY) && (timeout++ < CLOCK_TIMEOUT) ; );
 259              		.loc 1 181 0
 260 019e 4FF00003 		mov	r3, #0
 261 01a2 7B60     		str	r3, [r7, #4]
 262 01a4 00BF     		nop
 263              	.L14:
 264              		.loc 1 181 0 is_stmt 0 discriminator 1
 265 01a6 4FF48063 		mov	r3, #1024
 266 01aa C4F20E03 		movt	r3, 16398
 267 01ae 9B6E     		ldr	r3, [r3, #104]
 268 01b0 03F00803 		and	r3, r3, #8
 269 01b4 002B     		cmp	r3, #0
 270 01b6 0CD1     		bne	.L2
 271              		.loc 1 181 0 discriminator 2
 272 01b8 7B68     		ldr	r3, [r7, #4]
 273 01ba B3F1FF3F 		cmp	r3, #-1
 274 01be 0CBF     		ite	eq
 275 01c0 0023     		moveq	r3, #0
ARM GAS  /tmp/cctY1dQA.s 			page 9


 276 01c2 0123     		movne	r3, #1
 277 01c4 DBB2     		uxtb	r3, r3
 278 01c6 7A68     		ldr	r2, [r7, #4]
 279 01c8 02F10102 		add	r2, r2, #1
 280 01cc 7A60     		str	r2, [r7, #4]
 281 01ce 002B     		cmp	r3, #0
 282 01d0 E9D1     		bne	.L14
 283              	.L2:
 182:board/system.c **** 
 183:board/system.c **** }
 284              		.loc 1 183 0 is_stmt 1
 285 01d2 07F10C07 		add	r7, r7, #12
 286 01d6 BD46     		mov	sp, r7
 287 01d8 80BC     		pop	{r7}
 288 01da 7047     		bx	lr
 289              		.cfi_endproc
 290              	.LFE36:
 291              		.size	SystemInit, .-SystemInit
 292              		.text
 293              	.Letext0:
 294              		.file 2 "libchip/include/SAM3S.h"
 295              		.file 3 "libchip/cmsis/core_cm3.h"
 296              		.file 4 "board/system.h"
 297              		.file 5 "/usr/local/Sourcery/bin/../lib/gcc/arm-none-eabi/4.6.1/../../../../arm-none-eabi/include/
 298              		.section	.debug_info,"",%progbits
 299              	.Ldebug_info0:
 300 0000 E5030000 		.4byte	0x3e5
 301 0004 0200     		.2byte	0x2
 302 0006 00000000 		.4byte	.Ldebug_abbrev0
 303 000a 04       		.byte	0x4
 304 000b 01       		.uleb128 0x1
 305 000c FC010000 		.4byte	.LASF51
 306 0010 01       		.byte	0x1
 307 0011 2C020000 		.4byte	.LASF52
 308 0015 00000000 		.4byte	.LASF53
 309 0019 00000000 		.4byte	0
 310 001d 00000000 		.4byte	0
 311 0021 00000000 		.4byte	.Ldebug_ranges0+0
 312 0025 00000000 		.4byte	.Ldebug_line0
 313 0029 02       		.uleb128 0x2
 314 002a 01       		.byte	0x1
 315 002b 06       		.byte	0x6
 316 002c 5F020000 		.4byte	.LASF0
 317 0030 02       		.uleb128 0x2
 318 0031 01       		.byte	0x1
 319 0032 08       		.byte	0x8
 320 0033 CB000000 		.4byte	.LASF1
 321 0037 02       		.uleb128 0x2
 322 0038 02       		.byte	0x2
 323 0039 05       		.byte	0x5
 324 003a 08020000 		.4byte	.LASF2
 325 003e 02       		.uleb128 0x2
 326 003f 02       		.byte	0x2
 327 0040 07       		.byte	0x7
 328 0041 FF000000 		.4byte	.LASF3
 329 0045 02       		.uleb128 0x2
 330 0046 04       		.byte	0x4
ARM GAS  /tmp/cctY1dQA.s 			page 10


 331 0047 05       		.byte	0x5
 332 0048 44020000 		.4byte	.LASF4
 333 004c 03       		.uleb128 0x3
 334 004d 3B020000 		.4byte	.LASF13
 335 0051 05       		.byte	0x5
 336 0052 50       		.byte	0x50
 337 0053 57000000 		.4byte	0x57
 338 0057 02       		.uleb128 0x2
 339 0058 04       		.byte	0x4
 340 0059 07       		.byte	0x7
 341 005a ED000000 		.4byte	.LASF5
 342 005e 02       		.uleb128 0x2
 343 005f 08       		.byte	0x8
 344 0060 05       		.byte	0x5
 345 0061 D6010000 		.4byte	.LASF6
 346 0065 02       		.uleb128 0x2
 347 0066 08       		.byte	0x8
 348 0067 07       		.byte	0x7
 349 0068 B4000000 		.4byte	.LASF7
 350 006c 04       		.uleb128 0x4
 351 006d 04       		.byte	0x4
 352 006e 05       		.byte	0x5
 353 006f 696E7400 		.ascii	"int\000"
 354 0073 02       		.uleb128 0x2
 355 0074 04       		.byte	0x4
 356 0075 07       		.byte	0x7
 357 0076 73010000 		.4byte	.LASF8
 358 007a 05       		.uleb128 0x5
 359 007b 4C000000 		.4byte	0x4c
 360 007f 05       		.uleb128 0x5
 361 0080 57000000 		.4byte	0x57
 362 0084 06       		.uleb128 0x6
 363 0085 7F000000 		.4byte	0x7f
 364 0089 07       		.uleb128 0x7
 365 008a 57000000 		.4byte	0x57
 366 008e 99000000 		.4byte	0x99
 367 0092 08       		.uleb128 0x8
 368 0093 73000000 		.4byte	0x73
 369 0097 00       		.byte	0
 370 0098 00       		.byte	0
 371 0099 07       		.uleb128 0x7
 372 009a 57000000 		.4byte	0x57
 373 009e A9000000 		.4byte	0xa9
 374 00a2 08       		.uleb128 0x8
 375 00a3 73000000 		.4byte	0x73
 376 00a7 04       		.byte	0x4
 377 00a8 00       		.byte	0
 378 00a9 09       		.uleb128 0x9
 379 00aa 10       		.byte	0x10
 380 00ab 02       		.byte	0x2
 381 00ac 4104     		.2byte	0x441
 382 00ae EF000000 		.4byte	0xef
 383 00b2 0A       		.uleb128 0xa
 384 00b3 12020000 		.4byte	.LASF9
 385 00b7 02       		.byte	0x2
 386 00b8 4204     		.2byte	0x442
 387 00ba 7F000000 		.4byte	0x7f
ARM GAS  /tmp/cctY1dQA.s 			page 11


 388 00be 02       		.byte	0x2
 389 00bf 23       		.byte	0x23
 390 00c0 00       		.uleb128 0
 391 00c1 0A       		.uleb128 0xa
 392 00c2 5F010000 		.4byte	.LASF10
 393 00c6 02       		.byte	0x2
 394 00c7 4304     		.2byte	0x443
 395 00c9 7F000000 		.4byte	0x7f
 396 00cd 02       		.byte	0x2
 397 00ce 23       		.byte	0x23
 398 00cf 04       		.uleb128 0x4
 399 00d0 0A       		.uleb128 0xa
 400 00d1 4C000000 		.4byte	.LASF11
 401 00d5 02       		.byte	0x2
 402 00d6 4404     		.2byte	0x444
 403 00d8 84000000 		.4byte	0x84
 404 00dc 02       		.byte	0x2
 405 00dd 23       		.byte	0x23
 406 00de 08       		.uleb128 0x8
 407 00df 0A       		.uleb128 0xa
 408 00e0 31010000 		.4byte	.LASF12
 409 00e4 02       		.byte	0x2
 410 00e5 4504     		.2byte	0x445
 411 00e7 84000000 		.4byte	0x84
 412 00eb 02       		.byte	0x2
 413 00ec 23       		.byte	0x23
 414 00ed 0C       		.uleb128 0xc
 415 00ee 00       		.byte	0
 416 00ef 0B       		.uleb128 0xb
 417 00f0 45666300 		.ascii	"Efc\000"
 418 00f4 02       		.byte	0x2
 419 00f5 4604     		.2byte	0x446
 420 00f7 A9000000 		.4byte	0xa9
 421 00fb 0C       		.uleb128 0xc
 422 00fc 1401     		.2byte	0x114
 423 00fe 02       		.byte	0x2
 424 00ff 450D     		.2byte	0xd45
 425 0101 0C030000 		.4byte	0x30c
 426 0105 0A       		.uleb128 0xa
 427 0106 28010000 		.4byte	.LASF14
 428 010a 02       		.byte	0x2
 429 010b 460D     		.2byte	0xd46
 430 010d 7F000000 		.4byte	0x7f
 431 0111 02       		.byte	0x2
 432 0112 23       		.byte	0x23
 433 0113 00       		.uleb128 0
 434 0114 0A       		.uleb128 0xa
 435 0115 56020000 		.4byte	.LASF15
 436 0119 02       		.byte	0x2
 437 011a 470D     		.2byte	0xd47
 438 011c 7F000000 		.4byte	0x7f
 439 0120 02       		.byte	0x2
 440 0121 23       		.byte	0x23
 441 0122 04       		.uleb128 0x4
 442 0123 0A       		.uleb128 0xa
 443 0124 4D020000 		.4byte	.LASF16
 444 0128 02       		.byte	0x2
ARM GAS  /tmp/cctY1dQA.s 			page 12


 445 0129 480D     		.2byte	0xd48
 446 012b 84000000 		.4byte	0x84
 447 012f 02       		.byte	0x2
 448 0130 23       		.byte	0x23
 449 0131 08       		.uleb128 0x8
 450 0132 0A       		.uleb128 0xa
 451 0133 7B000000 		.4byte	.LASF17
 452 0137 02       		.byte	0x2
 453 0138 490D     		.2byte	0xd49
 454 013a 0C030000 		.4byte	0x30c
 455 013e 02       		.byte	0x2
 456 013f 23       		.byte	0x23
 457 0140 0C       		.uleb128 0xc
 458 0141 0A       		.uleb128 0xa
 459 0142 3A010000 		.4byte	.LASF18
 460 0146 02       		.byte	0x2
 461 0147 4A0D     		.2byte	0xd4a
 462 0149 7F000000 		.4byte	0x7f
 463 014d 02       		.byte	0x2
 464 014e 23       		.byte	0x23
 465 014f 10       		.uleb128 0x10
 466 0150 0A       		.uleb128 0xa
 467 0151 67000000 		.4byte	.LASF19
 468 0155 02       		.byte	0x2
 469 0156 4B0D     		.2byte	0xd4b
 470 0158 7F000000 		.4byte	0x7f
 471 015c 02       		.byte	0x2
 472 015d 23       		.byte	0x23
 473 015e 14       		.uleb128 0x14
 474 015f 0A       		.uleb128 0xa
 475 0160 D9000000 		.4byte	.LASF20
 476 0164 02       		.byte	0x2
 477 0165 4C0D     		.2byte	0xd4c
 478 0167 84000000 		.4byte	0x84
 479 016b 02       		.byte	0x2
 480 016c 23       		.byte	0x23
 481 016d 18       		.uleb128 0x18
 482 016e 0A       		.uleb128 0xa
 483 016f 85010000 		.4byte	.LASF21
 484 0173 02       		.byte	0x2
 485 0174 4D0D     		.2byte	0xd4d
 486 0176 11030000 		.4byte	0x311
 487 017a 02       		.byte	0x2
 488 017b 23       		.byte	0x23
 489 017c 1C       		.uleb128 0x1c
 490 017d 0A       		.uleb128 0xa
 491 017e 85000000 		.4byte	.LASF22
 492 0182 02       		.byte	0x2
 493 0183 4E0D     		.2byte	0xd4e
 494 0185 7F000000 		.4byte	0x7f
 495 0189 02       		.byte	0x2
 496 018a 23       		.byte	0x23
 497 018b 20       		.uleb128 0x20
 498 018c 0A       		.uleb128 0xa
 499 018d 5D000000 		.4byte	.LASF23
 500 0191 02       		.byte	0x2
 501 0192 4F0D     		.2byte	0xd4f
ARM GAS  /tmp/cctY1dQA.s 			page 13


 502 0194 84000000 		.4byte	0x84
 503 0198 02       		.byte	0x2
 504 0199 23       		.byte	0x23
 505 019a 24       		.uleb128 0x24
 506 019b 0A       		.uleb128 0xa
 507 019c 2F000000 		.4byte	.LASF24
 508 01a0 02       		.byte	0x2
 509 01a1 500D     		.2byte	0xd50
 510 01a3 7F000000 		.4byte	0x7f
 511 01a7 02       		.byte	0x2
 512 01a8 23       		.byte	0x23
 513 01a9 28       		.uleb128 0x28
 514 01aa 0A       		.uleb128 0xa
 515 01ab 68010000 		.4byte	.LASF25
 516 01af 02       		.byte	0x2
 517 01b0 510D     		.2byte	0xd51
 518 01b2 7F000000 		.4byte	0x7f
 519 01b6 02       		.byte	0x2
 520 01b7 23       		.byte	0x23
 521 01b8 2C       		.uleb128 0x2c
 522 01b9 0A       		.uleb128 0xa
 523 01ba 12010000 		.4byte	.LASF26
 524 01be 02       		.byte	0x2
 525 01bf 520D     		.2byte	0xd52
 526 01c1 7F000000 		.4byte	0x7f
 527 01c5 02       		.byte	0x2
 528 01c6 23       		.byte	0x23
 529 01c7 30       		.uleb128 0x30
 530 01c8 0A       		.uleb128 0xa
 531 01c9 8F010000 		.4byte	.LASF27
 532 01cd 02       		.byte	0x2
 533 01ce 530D     		.2byte	0xd53
 534 01d0 16030000 		.4byte	0x316
 535 01d4 02       		.byte	0x2
 536 01d5 23       		.byte	0x23
 537 01d6 34       		.uleb128 0x34
 538 01d7 0A       		.uleb128 0xa
 539 01d8 6B020000 		.4byte	.LASF28
 540 01dc 02       		.byte	0x2
 541 01dd 540D     		.2byte	0xd54
 542 01df 7F000000 		.4byte	0x7f
 543 01e3 02       		.byte	0x2
 544 01e4 23       		.byte	0x23
 545 01e5 38       		.uleb128 0x38
 546 01e6 0A       		.uleb128 0xa
 547 01e7 99010000 		.4byte	.LASF29
 548 01eb 02       		.byte	0x2
 549 01ec 550D     		.2byte	0xd55
 550 01ee 1B030000 		.4byte	0x31b
 551 01f2 02       		.byte	0x2
 552 01f3 23       		.byte	0x23
 553 01f4 3C       		.uleb128 0x3c
 554 01f5 0A       		.uleb128 0xa
 555 01f6 24020000 		.4byte	.LASF30
 556 01fa 02       		.byte	0x2
 557 01fb 560D     		.2byte	0xd56
 558 01fd 30030000 		.4byte	0x330
ARM GAS  /tmp/cctY1dQA.s 			page 14


 559 0201 02       		.byte	0x2
 560 0202 23       		.byte	0x23
 561 0203 40       		.uleb128 0x40
 562 0204 0A       		.uleb128 0xa
 563 0205 A3010000 		.4byte	.LASF31
 564 0209 02       		.byte	0x2
 565 020a 570D     		.2byte	0xd57
 566 020c 35030000 		.4byte	0x335
 567 0210 02       		.byte	0x2
 568 0211 23       		.byte	0x23
 569 0212 4C       		.uleb128 0x4c
 570 0213 0A       		.uleb128 0xa
 571 0214 57010000 		.4byte	.LASF32
 572 0218 02       		.byte	0x2
 573 0219 580D     		.2byte	0xd58
 574 021b 7F000000 		.4byte	0x7f
 575 021f 02       		.byte	0x2
 576 0220 23       		.byte	0x23
 577 0221 60       		.uleb128 0x60
 578 0222 0A       		.uleb128 0xa
 579 0223 7B020000 		.4byte	.LASF33
 580 0227 02       		.byte	0x2
 581 0228 590D     		.2byte	0xd59
 582 022a 7F000000 		.4byte	0x7f
 583 022e 02       		.byte	0x2
 584 022f 23       		.byte	0x23
 585 0230 64       		.uleb128 0x64
 586 0231 0A       		.uleb128 0xa
 587 0232 AD000000 		.4byte	.LASF34
 588 0236 02       		.byte	0x2
 589 0237 5A0D     		.2byte	0xd5a
 590 0239 84000000 		.4byte	0x84
 591 023d 02       		.byte	0x2
 592 023e 23       		.byte	0x23
 593 023f 68       		.uleb128 0x68
 594 0240 0A       		.uleb128 0xa
 595 0241 E4010000 		.4byte	.LASF35
 596 0245 02       		.byte	0x2
 597 0246 5B0D     		.2byte	0xd5b
 598 0248 84000000 		.4byte	0x84
 599 024c 02       		.byte	0x2
 600 024d 23       		.byte	0x23
 601 024e 6C       		.uleb128 0x6c
 602 024f 0A       		.uleb128 0xa
 603 0250 4E010000 		.4byte	.LASF36
 604 0254 02       		.byte	0x2
 605 0255 5C0D     		.2byte	0xd5c
 606 0257 7F000000 		.4byte	0x7f
 607 025b 02       		.byte	0x2
 608 025c 23       		.byte	0x23
 609 025d 70       		.uleb128 0x70
 610 025e 0A       		.uleb128 0xa
 611 025f 43000000 		.4byte	.LASF37
 612 0263 02       		.byte	0x2
 613 0264 5D0D     		.2byte	0xd5d
 614 0266 7F000000 		.4byte	0x7f
 615 026a 02       		.byte	0x2
ARM GAS  /tmp/cctY1dQA.s 			page 15


 616 026b 23       		.byte	0x23
 617 026c 74       		.uleb128 0x74
 618 026d 0A       		.uleb128 0xa
 619 026e 1B020000 		.4byte	.LASF38
 620 0272 02       		.byte	0x2
 621 0273 5E0D     		.2byte	0xd5e
 622 0275 7F000000 		.4byte	0x7f
 623 0279 02       		.byte	0x2
 624 027a 23       		.byte	0x23
 625 027b 78       		.uleb128 0x78
 626 027c 0A       		.uleb128 0xa
 627 027d AD010000 		.4byte	.LASF39
 628 0281 02       		.byte	0x2
 629 0282 5F0D     		.2byte	0xd5f
 630 0284 4A030000 		.4byte	0x34a
 631 0288 02       		.byte	0x2
 632 0289 23       		.byte	0x23
 633 028a 7C       		.uleb128 0x7c
 634 028b 0A       		.uleb128 0xa
 635 028c 3A000000 		.4byte	.LASF40
 636 0290 02       		.byte	0x2
 637 0291 600D     		.2byte	0xd60
 638 0293 7F000000 		.4byte	0x7f
 639 0297 03       		.byte	0x3
 640 0298 23       		.byte	0x23
 641 0299 E401     		.uleb128 0xe4
 642 029b 0A       		.uleb128 0xa
 643 029c A4000000 		.4byte	.LASF41
 644 02a0 02       		.byte	0x2
 645 02a1 610D     		.2byte	0xd61
 646 02a3 84000000 		.4byte	0x84
 647 02a7 03       		.byte	0x3
 648 02a8 23       		.byte	0x23
 649 02a9 E801     		.uleb128 0xe8
 650 02ab 0A       		.uleb128 0xa
 651 02ac B7010000 		.4byte	.LASF42
 652 02b0 02       		.byte	0x2
 653 02b1 620D     		.2byte	0xd62
 654 02b3 4F030000 		.4byte	0x34f
 655 02b7 03       		.byte	0x3
 656 02b8 23       		.byte	0x23
 657 02b9 EC01     		.uleb128 0xec
 658 02bb 0A       		.uleb128 0xa
 659 02bc 44010000 		.4byte	.LASF43
 660 02c0 02       		.byte	0x2
 661 02c1 630D     		.2byte	0xd63
 662 02c3 7F000000 		.4byte	0x7f
 663 02c7 03       		.byte	0x3
 664 02c8 23       		.byte	0x23
 665 02c9 8002     		.uleb128 0x100
 666 02cb 0A       		.uleb128 0xa
 667 02cc 71000000 		.4byte	.LASF44
 668 02d0 02       		.byte	0x2
 669 02d1 640D     		.2byte	0xd64
 670 02d3 7F000000 		.4byte	0x7f
 671 02d7 03       		.byte	0x3
 672 02d8 23       		.byte	0x23
ARM GAS  /tmp/cctY1dQA.s 			page 16


 673 02d9 8402     		.uleb128 0x104
 674 02db 0A       		.uleb128 0xa
 675 02dc E3000000 		.4byte	.LASF45
 676 02e0 02       		.byte	0x2
 677 02e1 650D     		.2byte	0xd65
 678 02e3 84000000 		.4byte	0x84
 679 02e7 03       		.byte	0x3
 680 02e8 23       		.byte	0x23
 681 02e9 8802     		.uleb128 0x108
 682 02eb 0A       		.uleb128 0xa
 683 02ec C1010000 		.4byte	.LASF46
 684 02f0 02       		.byte	0x2
 685 02f1 660D     		.2byte	0xd66
 686 02f3 54030000 		.4byte	0x354
 687 02f7 03       		.byte	0x3
 688 02f8 23       		.byte	0x23
 689 02f9 8C02     		.uleb128 0x10c
 690 02fb 0A       		.uleb128 0xa
 691 02fc 73020000 		.4byte	.LASF47
 692 0300 02       		.byte	0x2
 693 0301 670D     		.2byte	0xd67
 694 0303 7F000000 		.4byte	0x7f
 695 0307 03       		.byte	0x3
 696 0308 23       		.byte	0x23
 697 0309 9002     		.uleb128 0x110
 698 030b 00       		.byte	0
 699 030c 05       		.uleb128 0x5
 700 030d 89000000 		.4byte	0x89
 701 0311 05       		.uleb128 0x5
 702 0312 89000000 		.4byte	0x89
 703 0316 05       		.uleb128 0x5
 704 0317 89000000 		.4byte	0x89
 705 031b 05       		.uleb128 0x5
 706 031c 89000000 		.4byte	0x89
 707 0320 07       		.uleb128 0x7
 708 0321 57000000 		.4byte	0x57
 709 0325 30030000 		.4byte	0x330
 710 0329 08       		.uleb128 0x8
 711 032a 73000000 		.4byte	0x73
 712 032e 02       		.byte	0x2
 713 032f 00       		.byte	0
 714 0330 05       		.uleb128 0x5
 715 0331 20030000 		.4byte	0x320
 716 0335 05       		.uleb128 0x5
 717 0336 99000000 		.4byte	0x99
 718 033a 07       		.uleb128 0x7
 719 033b 57000000 		.4byte	0x57
 720 033f 4A030000 		.4byte	0x34a
 721 0343 08       		.uleb128 0x8
 722 0344 73000000 		.4byte	0x73
 723 0348 19       		.byte	0x19
 724 0349 00       		.byte	0
 725 034a 05       		.uleb128 0x5
 726 034b 3A030000 		.4byte	0x33a
 727 034f 05       		.uleb128 0x5
 728 0350 99000000 		.4byte	0x99
 729 0354 05       		.uleb128 0x5
ARM GAS  /tmp/cctY1dQA.s 			page 17


 730 0355 89000000 		.4byte	0x89
 731 0359 0B       		.uleb128 0xb
 732 035a 506D6300 		.ascii	"Pmc\000"
 733 035e 02       		.byte	0x2
 734 035f 680D     		.2byte	0xd68
 735 0361 FB000000 		.4byte	0xfb
 736 0365 02       		.uleb128 0x2
 737 0366 01       		.byte	0x1
 738 0367 08       		.byte	0x8
 739 0368 80010000 		.4byte	.LASF48
 740 036c 0D       		.uleb128 0xd
 741 036d 01       		.byte	0x1
 742 036e 8E000000 		.4byte	.LASF54
 743 0372 01       		.byte	0x1
 744 0373 53       		.byte	0x53
 745 0374 00000000 		.4byte	.LFB35
 746 0378 1C000000 		.4byte	.LFE35
 747 037c 00000000 		.4byte	.LLST0
 748 0380 0E       		.uleb128 0xe
 749 0381 01       		.byte	0x1
 750 0382 CB010000 		.4byte	.LASF55
 751 0386 01       		.byte	0x1
 752 0387 8F       		.byte	0x8f
 753 0388 01       		.byte	0x1
 754 0389 00000000 		.4byte	.LFB36
 755 038d DC010000 		.4byte	.LFE36
 756 0391 2C000000 		.4byte	.LLST1
 757 0395 A8030000 		.4byte	0x3a8
 758 0399 0F       		.uleb128 0xf
 759 039a 55000000 		.4byte	.LASF56
 760 039e 01       		.byte	0x1
 761 039f 91       		.byte	0x91
 762 03a0 4C000000 		.4byte	0x4c
 763 03a4 02       		.byte	0x2
 764 03a5 91       		.byte	0x91
 765 03a6 74       		.sleb128 -12
 766 03a7 00       		.byte	0
 767 03a8 10       		.uleb128 0x10
 768 03a9 1B010000 		.4byte	.LASF49
 769 03ad 03       		.byte	0x3
 770 03ae CE06     		.2byte	0x6ce
 771 03b0 B6030000 		.4byte	0x3b6
 772 03b4 01       		.byte	0x1
 773 03b5 01       		.byte	0x1
 774 03b6 05       		.uleb128 0x5
 775 03b7 6C000000 		.4byte	0x6c
 776 03bb 11       		.uleb128 0x11
 777 03bc EC010000 		.4byte	.LASF50
 778 03c0 04       		.byte	0x4
 779 03c1 2C       		.byte	0x2c
 780 03c2 7A000000 		.4byte	0x7a
 781 03c6 01       		.byte	0x1
 782 03c7 01       		.byte	0x1
 783 03c8 10       		.uleb128 0x10
 784 03c9 1B010000 		.4byte	.LASF49
 785 03cd 03       		.byte	0x3
 786 03ce CE06     		.2byte	0x6ce
ARM GAS  /tmp/cctY1dQA.s 			page 18


 787 03d0 B6030000 		.4byte	0x3b6
 788 03d4 01       		.byte	0x1
 789 03d5 01       		.byte	0x1
 790 03d6 12       		.uleb128 0x12
 791 03d7 EC010000 		.4byte	.LASF50
 792 03db 01       		.byte	0x1
 793 03dc 4A       		.byte	0x4a
 794 03dd 7A000000 		.4byte	0x7a
 795 03e1 01       		.byte	0x1
 796 03e2 05       		.byte	0x5
 797 03e3 03       		.byte	0x3
 798 03e4 00000000 		.4byte	SystemCoreClock
 799 03e8 00       		.byte	0
 800              		.section	.debug_abbrev,"",%progbits
 801              	.Ldebug_abbrev0:
 802 0000 01       		.uleb128 0x1
 803 0001 11       		.uleb128 0x11
 804 0002 01       		.byte	0x1
 805 0003 25       		.uleb128 0x25
 806 0004 0E       		.uleb128 0xe
 807 0005 13       		.uleb128 0x13
 808 0006 0B       		.uleb128 0xb
 809 0007 03       		.uleb128 0x3
 810 0008 0E       		.uleb128 0xe
 811 0009 1B       		.uleb128 0x1b
 812 000a 0E       		.uleb128 0xe
 813 000b 11       		.uleb128 0x11
 814 000c 01       		.uleb128 0x1
 815 000d 52       		.uleb128 0x52
 816 000e 01       		.uleb128 0x1
 817 000f 55       		.uleb128 0x55
 818 0010 06       		.uleb128 0x6
 819 0011 10       		.uleb128 0x10
 820 0012 06       		.uleb128 0x6
 821 0013 00       		.byte	0
 822 0014 00       		.byte	0
 823 0015 02       		.uleb128 0x2
 824 0016 24       		.uleb128 0x24
 825 0017 00       		.byte	0
 826 0018 0B       		.uleb128 0xb
 827 0019 0B       		.uleb128 0xb
 828 001a 3E       		.uleb128 0x3e
 829 001b 0B       		.uleb128 0xb
 830 001c 03       		.uleb128 0x3
 831 001d 0E       		.uleb128 0xe
 832 001e 00       		.byte	0
 833 001f 00       		.byte	0
 834 0020 03       		.uleb128 0x3
 835 0021 16       		.uleb128 0x16
 836 0022 00       		.byte	0
 837 0023 03       		.uleb128 0x3
 838 0024 0E       		.uleb128 0xe
 839 0025 3A       		.uleb128 0x3a
 840 0026 0B       		.uleb128 0xb
 841 0027 3B       		.uleb128 0x3b
 842 0028 0B       		.uleb128 0xb
 843 0029 49       		.uleb128 0x49
ARM GAS  /tmp/cctY1dQA.s 			page 19


 844 002a 13       		.uleb128 0x13
 845 002b 00       		.byte	0
 846 002c 00       		.byte	0
 847 002d 04       		.uleb128 0x4
 848 002e 24       		.uleb128 0x24
 849 002f 00       		.byte	0
 850 0030 0B       		.uleb128 0xb
 851 0031 0B       		.uleb128 0xb
 852 0032 3E       		.uleb128 0x3e
 853 0033 0B       		.uleb128 0xb
 854 0034 03       		.uleb128 0x3
 855 0035 08       		.uleb128 0x8
 856 0036 00       		.byte	0
 857 0037 00       		.byte	0
 858 0038 05       		.uleb128 0x5
 859 0039 35       		.uleb128 0x35
 860 003a 00       		.byte	0
 861 003b 49       		.uleb128 0x49
 862 003c 13       		.uleb128 0x13
 863 003d 00       		.byte	0
 864 003e 00       		.byte	0
 865 003f 06       		.uleb128 0x6
 866 0040 26       		.uleb128 0x26
 867 0041 00       		.byte	0
 868 0042 49       		.uleb128 0x49
 869 0043 13       		.uleb128 0x13
 870 0044 00       		.byte	0
 871 0045 00       		.byte	0
 872 0046 07       		.uleb128 0x7
 873 0047 01       		.uleb128 0x1
 874 0048 01       		.byte	0x1
 875 0049 49       		.uleb128 0x49
 876 004a 13       		.uleb128 0x13
 877 004b 01       		.uleb128 0x1
 878 004c 13       		.uleb128 0x13
 879 004d 00       		.byte	0
 880 004e 00       		.byte	0
 881 004f 08       		.uleb128 0x8
 882 0050 21       		.uleb128 0x21
 883 0051 00       		.byte	0
 884 0052 49       		.uleb128 0x49
 885 0053 13       		.uleb128 0x13
 886 0054 2F       		.uleb128 0x2f
 887 0055 0B       		.uleb128 0xb
 888 0056 00       		.byte	0
 889 0057 00       		.byte	0
 890 0058 09       		.uleb128 0x9
 891 0059 13       		.uleb128 0x13
 892 005a 01       		.byte	0x1
 893 005b 0B       		.uleb128 0xb
 894 005c 0B       		.uleb128 0xb
 895 005d 3A       		.uleb128 0x3a
 896 005e 0B       		.uleb128 0xb
 897 005f 3B       		.uleb128 0x3b
 898 0060 05       		.uleb128 0x5
 899 0061 01       		.uleb128 0x1
 900 0062 13       		.uleb128 0x13
ARM GAS  /tmp/cctY1dQA.s 			page 20


 901 0063 00       		.byte	0
 902 0064 00       		.byte	0
 903 0065 0A       		.uleb128 0xa
 904 0066 0D       		.uleb128 0xd
 905 0067 00       		.byte	0
 906 0068 03       		.uleb128 0x3
 907 0069 0E       		.uleb128 0xe
 908 006a 3A       		.uleb128 0x3a
 909 006b 0B       		.uleb128 0xb
 910 006c 3B       		.uleb128 0x3b
 911 006d 05       		.uleb128 0x5
 912 006e 49       		.uleb128 0x49
 913 006f 13       		.uleb128 0x13
 914 0070 38       		.uleb128 0x38
 915 0071 0A       		.uleb128 0xa
 916 0072 00       		.byte	0
 917 0073 00       		.byte	0
 918 0074 0B       		.uleb128 0xb
 919 0075 16       		.uleb128 0x16
 920 0076 00       		.byte	0
 921 0077 03       		.uleb128 0x3
 922 0078 08       		.uleb128 0x8
 923 0079 3A       		.uleb128 0x3a
 924 007a 0B       		.uleb128 0xb
 925 007b 3B       		.uleb128 0x3b
 926 007c 05       		.uleb128 0x5
 927 007d 49       		.uleb128 0x49
 928 007e 13       		.uleb128 0x13
 929 007f 00       		.byte	0
 930 0080 00       		.byte	0
 931 0081 0C       		.uleb128 0xc
 932 0082 13       		.uleb128 0x13
 933 0083 01       		.byte	0x1
 934 0084 0B       		.uleb128 0xb
 935 0085 05       		.uleb128 0x5
 936 0086 3A       		.uleb128 0x3a
 937 0087 0B       		.uleb128 0xb
 938 0088 3B       		.uleb128 0x3b
 939 0089 05       		.uleb128 0x5
 940 008a 01       		.uleb128 0x1
 941 008b 13       		.uleb128 0x13
 942 008c 00       		.byte	0
 943 008d 00       		.byte	0
 944 008e 0D       		.uleb128 0xd
 945 008f 2E       		.uleb128 0x2e
 946 0090 00       		.byte	0
 947 0091 3F       		.uleb128 0x3f
 948 0092 0C       		.uleb128 0xc
 949 0093 03       		.uleb128 0x3
 950 0094 0E       		.uleb128 0xe
 951 0095 3A       		.uleb128 0x3a
 952 0096 0B       		.uleb128 0xb
 953 0097 3B       		.uleb128 0x3b
 954 0098 0B       		.uleb128 0xb
 955 0099 11       		.uleb128 0x11
 956 009a 01       		.uleb128 0x1
 957 009b 12       		.uleb128 0x12
ARM GAS  /tmp/cctY1dQA.s 			page 21


 958 009c 01       		.uleb128 0x1
 959 009d 40       		.uleb128 0x40
 960 009e 06       		.uleb128 0x6
 961 009f 00       		.byte	0
 962 00a0 00       		.byte	0
 963 00a1 0E       		.uleb128 0xe
 964 00a2 2E       		.uleb128 0x2e
 965 00a3 01       		.byte	0x1
 966 00a4 3F       		.uleb128 0x3f
 967 00a5 0C       		.uleb128 0xc
 968 00a6 03       		.uleb128 0x3
 969 00a7 0E       		.uleb128 0xe
 970 00a8 3A       		.uleb128 0x3a
 971 00a9 0B       		.uleb128 0xb
 972 00aa 3B       		.uleb128 0x3b
 973 00ab 0B       		.uleb128 0xb
 974 00ac 27       		.uleb128 0x27
 975 00ad 0C       		.uleb128 0xc
 976 00ae 11       		.uleb128 0x11
 977 00af 01       		.uleb128 0x1
 978 00b0 12       		.uleb128 0x12
 979 00b1 01       		.uleb128 0x1
 980 00b2 40       		.uleb128 0x40
 981 00b3 06       		.uleb128 0x6
 982 00b4 01       		.uleb128 0x1
 983 00b5 13       		.uleb128 0x13
 984 00b6 00       		.byte	0
 985 00b7 00       		.byte	0
 986 00b8 0F       		.uleb128 0xf
 987 00b9 34       		.uleb128 0x34
 988 00ba 00       		.byte	0
 989 00bb 03       		.uleb128 0x3
 990 00bc 0E       		.uleb128 0xe
 991 00bd 3A       		.uleb128 0x3a
 992 00be 0B       		.uleb128 0xb
 993 00bf 3B       		.uleb128 0x3b
 994 00c0 0B       		.uleb128 0xb
 995 00c1 49       		.uleb128 0x49
 996 00c2 13       		.uleb128 0x13
 997 00c3 02       		.uleb128 0x2
 998 00c4 0A       		.uleb128 0xa
 999 00c5 00       		.byte	0
 1000 00c6 00       		.byte	0
 1001 00c7 10       		.uleb128 0x10
 1002 00c8 34       		.uleb128 0x34
 1003 00c9 00       		.byte	0
 1004 00ca 03       		.uleb128 0x3
 1005 00cb 0E       		.uleb128 0xe
 1006 00cc 3A       		.uleb128 0x3a
 1007 00cd 0B       		.uleb128 0xb
 1008 00ce 3B       		.uleb128 0x3b
 1009 00cf 05       		.uleb128 0x5
 1010 00d0 49       		.uleb128 0x49
 1011 00d1 13       		.uleb128 0x13
 1012 00d2 3F       		.uleb128 0x3f
 1013 00d3 0C       		.uleb128 0xc
 1014 00d4 3C       		.uleb128 0x3c
ARM GAS  /tmp/cctY1dQA.s 			page 22


 1015 00d5 0C       		.uleb128 0xc
 1016 00d6 00       		.byte	0
 1017 00d7 00       		.byte	0
 1018 00d8 11       		.uleb128 0x11
 1019 00d9 34       		.uleb128 0x34
 1020 00da 00       		.byte	0
 1021 00db 03       		.uleb128 0x3
 1022 00dc 0E       		.uleb128 0xe
 1023 00dd 3A       		.uleb128 0x3a
 1024 00de 0B       		.uleb128 0xb
 1025 00df 3B       		.uleb128 0x3b
 1026 00e0 0B       		.uleb128 0xb
 1027 00e1 49       		.uleb128 0x49
 1028 00e2 13       		.uleb128 0x13
 1029 00e3 3F       		.uleb128 0x3f
 1030 00e4 0C       		.uleb128 0xc
 1031 00e5 3C       		.uleb128 0x3c
 1032 00e6 0C       		.uleb128 0xc
 1033 00e7 00       		.byte	0
 1034 00e8 00       		.byte	0
 1035 00e9 12       		.uleb128 0x12
 1036 00ea 34       		.uleb128 0x34
 1037 00eb 00       		.byte	0
 1038 00ec 03       		.uleb128 0x3
 1039 00ed 0E       		.uleb128 0xe
 1040 00ee 3A       		.uleb128 0x3a
 1041 00ef 0B       		.uleb128 0xb
 1042 00f0 3B       		.uleb128 0x3b
 1043 00f1 0B       		.uleb128 0xb
 1044 00f2 49       		.uleb128 0x49
 1045 00f3 13       		.uleb128 0x13
 1046 00f4 3F       		.uleb128 0x3f
 1047 00f5 0C       		.uleb128 0xc
 1048 00f6 02       		.uleb128 0x2
 1049 00f7 0A       		.uleb128 0xa
 1050 00f8 00       		.byte	0
 1051 00f9 00       		.byte	0
 1052 00fa 00       		.byte	0
 1053              		.section	.debug_loc,"",%progbits
 1054              	.Ldebug_loc0:
 1055              	.LLST0:
 1056 0000 00000000 		.4byte	.LFB35
 1057 0004 02000000 		.4byte	.LCFI0
 1058 0008 0200     		.2byte	0x2
 1059 000a 7D       		.byte	0x7d
 1060 000b 00       		.sleb128 0
 1061 000c 02000000 		.4byte	.LCFI0
 1062 0010 04000000 		.4byte	.LCFI1
 1063 0014 0200     		.2byte	0x2
 1064 0016 7D       		.byte	0x7d
 1065 0017 04       		.sleb128 4
 1066 0018 04000000 		.4byte	.LCFI1
 1067 001c 1C000000 		.4byte	.LFE35
 1068 0020 0200     		.2byte	0x2
 1069 0022 77       		.byte	0x77
 1070 0023 04       		.sleb128 4
 1071 0024 00000000 		.4byte	0
ARM GAS  /tmp/cctY1dQA.s 			page 23


 1072 0028 00000000 		.4byte	0
 1073              	.LLST1:
 1074 002c 00000000 		.4byte	.LFB36
 1075 0030 02000000 		.4byte	.LCFI2
 1076 0034 0200     		.2byte	0x2
 1077 0036 7D       		.byte	0x7d
 1078 0037 00       		.sleb128 0
 1079 0038 02000000 		.4byte	.LCFI2
 1080 003c 04000000 		.4byte	.LCFI3
 1081 0040 0200     		.2byte	0x2
 1082 0042 7D       		.byte	0x7d
 1083 0043 04       		.sleb128 4
 1084 0044 04000000 		.4byte	.LCFI3
 1085 0048 06000000 		.4byte	.LCFI4
 1086 004c 0200     		.2byte	0x2
 1087 004e 7D       		.byte	0x7d
 1088 004f 10       		.sleb128 16
 1089 0050 06000000 		.4byte	.LCFI4
 1090 0054 DC010000 		.4byte	.LFE36
 1091 0058 0200     		.2byte	0x2
 1092 005a 77       		.byte	0x77
 1093 005b 10       		.sleb128 16
 1094 005c 00000000 		.4byte	0
 1095 0060 00000000 		.4byte	0
 1096              		.section	.debug_aranges,"",%progbits
 1097 0000 24000000 		.4byte	0x24
 1098 0004 0200     		.2byte	0x2
 1099 0006 00000000 		.4byte	.Ldebug_info0
 1100 000a 04       		.byte	0x4
 1101 000b 00       		.byte	0
 1102 000c 0000     		.2byte	0
 1103 000e 0000     		.2byte	0
 1104 0010 00000000 		.4byte	.LFB35
 1105 0014 1C000000 		.4byte	.LFE35-.LFB35
 1106 0018 00000000 		.4byte	.LFB36
 1107 001c DC010000 		.4byte	.LFE36-.LFB36
 1108 0020 00000000 		.4byte	0
 1109 0024 00000000 		.4byte	0
 1110              		.section	.debug_ranges,"",%progbits
 1111              	.Ldebug_ranges0:
 1112 0000 00000000 		.4byte	.LFB35
 1113 0004 1C000000 		.4byte	.LFE35
 1114 0008 00000000 		.4byte	.LFB36
 1115 000c DC010000 		.4byte	.LFE36
 1116 0010 00000000 		.4byte	0
 1117 0014 00000000 		.4byte	0
 1118              		.section	.debug_line,"",%progbits
 1119              	.Ldebug_line0:
 1120 0000 51010000 		.section	.debug_str,"MS",%progbits,1
 1120      0200CD00 
 1120      00000201 
 1120      FB0E0D00 
 1120      01010101 
 1121              	.LASF53:
 1122 0000 2F686F6D 		.ascii	"/home/mo/doc/studium/aktuell/Diplomarbeit/code\000"
 1122      652F6D6F 
 1122      2F646F63 
ARM GAS  /tmp/cctY1dQA.s 			page 24


 1122      2F737475 
 1122      6469756D 
 1123              	.LASF24:
 1124 002f 434B4752 		.ascii	"CKGR_PLLAR\000"
 1124      5F504C4C 
 1124      415200
 1125              	.LASF40:
 1126 003a 504D435F 		.ascii	"PMC_WPMR\000"
 1126      57504D52 
 1126      00
 1127              	.LASF37:
 1128 0043 504D435F 		.ascii	"PMC_FSPR\000"
 1128      46535052 
 1128      00
 1129              	.LASF11:
 1130 004c 45454643 		.ascii	"EEFC_FSR\000"
 1130      5F465352 
 1130      00
 1131              	.LASF56:
 1132 0055 74696D65 		.ascii	"timeout\000"
 1132      6F757400 
 1133              	.LASF23:
 1134 005d 434B4752 		.ascii	"CKGR_MCFR\000"
 1134      5F4D4346 
 1134      5200
 1135              	.LASF19:
 1136 0067 504D435F 		.ascii	"PMC_PCDR0\000"
 1136      50434452 
 1136      3000
 1137              	.LASF44:
 1138 0071 504D435F 		.ascii	"PMC_PCDR1\000"
 1138      50434452 
 1138      3100
 1139              	.LASF17:
 1140 007b 52657365 		.ascii	"Reserved1\000"
 1140      72766564 
 1140      3100
 1141              	.LASF22:
 1142 0085 434B4752 		.ascii	"CKGR_MOR\000"
 1142      5F4D4F52 
 1142      00
 1143              	.LASF54:
 1144 008e 53797374 		.ascii	"SystemCoreClockUpdate\000"
 1144      656D436F 
 1144      7265436C 
 1144      6F636B55 
 1144      70646174 
 1145              	.LASF41:
 1146 00a4 504D435F 		.ascii	"PMC_WPSR\000"
 1146      57505352 
 1146      00
 1147              	.LASF34:
 1148 00ad 504D435F 		.ascii	"PMC_SR\000"
 1148      535200
 1149              	.LASF7:
 1150 00b4 6C6F6E67 		.ascii	"long long unsigned int\000"
 1150      206C6F6E 
ARM GAS  /tmp/cctY1dQA.s 			page 25


 1150      6720756E 
 1150      7369676E 
 1150      65642069 
 1151              	.LASF1:
 1152 00cb 756E7369 		.ascii	"unsigned char\000"
 1152      676E6564 
 1152      20636861 
 1152      7200
 1153              	.LASF20:
 1154 00d9 504D435F 		.ascii	"PMC_PCSR0\000"
 1154      50435352 
 1154      3000
 1155              	.LASF45:
 1156 00e3 504D435F 		.ascii	"PMC_PCSR1\000"
 1156      50435352 
 1156      3100
 1157              	.LASF5:
 1158 00ed 6C6F6E67 		.ascii	"long unsigned int\000"
 1158      20756E73 
 1158      69676E65 
 1158      6420696E 
 1158      7400
 1159              	.LASF3:
 1160 00ff 73686F72 		.ascii	"short unsigned int\000"
 1160      7420756E 
 1160      7369676E 
 1160      65642069 
 1160      6E7400
 1161              	.LASF26:
 1162 0112 504D435F 		.ascii	"PMC_MCKR\000"
 1162      4D434B52 
 1162      00
 1163              	.LASF49:
 1164 011b 49544D5F 		.ascii	"ITM_RxBuffer\000"
 1164      52784275 
 1164      66666572 
 1164      00
 1165              	.LASF14:
 1166 0128 504D435F 		.ascii	"PMC_SCER\000"
 1166      53434552 
 1166      00
 1167              	.LASF12:
 1168 0131 45454643 		.ascii	"EEFC_FRR\000"
 1168      5F465252 
 1168      00
 1169              	.LASF18:
 1170 013a 504D435F 		.ascii	"PMC_PCER0\000"
 1170      50434552 
 1170      3000
 1171              	.LASF43:
 1172 0144 504D435F 		.ascii	"PMC_PCER1\000"
 1172      50434552 
 1172      3100
 1173              	.LASF36:
 1174 014e 504D435F 		.ascii	"PMC_FSMR\000"
 1174      46534D52 
 1174      00
ARM GAS  /tmp/cctY1dQA.s 			page 26


 1175              	.LASF32:
 1176 0157 504D435F 		.ascii	"PMC_IER\000"
 1176      49455200 
 1177              	.LASF10:
 1178 015f 45454643 		.ascii	"EEFC_FCR\000"
 1178      5F464352 
 1178      00
 1179              	.LASF25:
 1180 0168 434B4752 		.ascii	"CKGR_PLLBR\000"
 1180      5F504C4C 
 1180      425200
 1181              	.LASF8:
 1182 0173 756E7369 		.ascii	"unsigned int\000"
 1182      676E6564 
 1182      20696E74 
 1182      00
 1183              	.LASF48:
 1184 0180 63686172 		.ascii	"char\000"
 1184      00
 1185              	.LASF21:
 1186 0185 52657365 		.ascii	"Reserved2\000"
 1186      72766564 
 1186      3200
 1187              	.LASF27:
 1188 018f 52657365 		.ascii	"Reserved3\000"
 1188      72766564 
 1188      3300
 1189              	.LASF29:
 1190 0199 52657365 		.ascii	"Reserved4\000"
 1190      72766564 
 1190      3400
 1191              	.LASF31:
 1192 01a3 52657365 		.ascii	"Reserved5\000"
 1192      72766564 
 1192      3500
 1193              	.LASF39:
 1194 01ad 52657365 		.ascii	"Reserved6\000"
 1194      72766564 
 1194      3600
 1195              	.LASF42:
 1196 01b7 52657365 		.ascii	"Reserved7\000"
 1196      72766564 
 1196      3700
 1197              	.LASF46:
 1198 01c1 52657365 		.ascii	"Reserved8\000"
 1198      72766564 
 1198      3800
 1199              	.LASF55:
 1200 01cb 53797374 		.ascii	"SystemInit\000"
 1200      656D496E 
 1200      697400
 1201              	.LASF6:
 1202 01d6 6C6F6E67 		.ascii	"long long int\000"
 1202      206C6F6E 
 1202      6720696E 
 1202      7400
 1203              	.LASF35:
ARM GAS  /tmp/cctY1dQA.s 			page 27


 1204 01e4 504D435F 		.ascii	"PMC_IMR\000"
 1204      494D5200 
 1205              	.LASF50:
 1206 01ec 53797374 		.ascii	"SystemCoreClock\000"
 1206      656D436F 
 1206      7265436C 
 1206      6F636B00 
 1207              	.LASF51:
 1208 01fc 474E5520 		.ascii	"GNU C 4.6.1\000"
 1208      4320342E 
 1208      362E3100 
 1209              	.LASF2:
 1210 0208 73686F72 		.ascii	"short int\000"
 1210      7420696E 
 1210      7400
 1211              	.LASF9:
 1212 0212 45454643 		.ascii	"EEFC_FMR\000"
 1212      5F464D52 
 1212      00
 1213              	.LASF38:
 1214 021b 504D435F 		.ascii	"PMC_FOCR\000"
 1214      464F4352 
 1214      00
 1215              	.LASF30:
 1216 0224 504D435F 		.ascii	"PMC_PCK\000"
 1216      50434B00 
 1217              	.LASF52:
 1218 022c 626F6172 		.ascii	"board/system.c\000"
 1218      642F7379 
 1218      7374656D 
 1218      2E6300
 1219              	.LASF13:
 1220 023b 75696E74 		.ascii	"uint32_t\000"
 1220      33325F74 
 1220      00
 1221              	.LASF4:
 1222 0244 6C6F6E67 		.ascii	"long int\000"
 1222      20696E74 
 1222      00
 1223              	.LASF16:
 1224 024d 504D435F 		.ascii	"PMC_SCSR\000"
 1224      53435352 
 1224      00
 1225              	.LASF15:
 1226 0256 504D435F 		.ascii	"PMC_SCDR\000"
 1226      53434452 
 1226      00
 1227              	.LASF0:
 1228 025f 7369676E 		.ascii	"signed char\000"
 1228      65642063 
 1228      68617200 
 1229              	.LASF28:
 1230 026b 504D435F 		.ascii	"PMC_USB\000"
 1230      55534200 
 1231              	.LASF47:
 1232 0273 504D435F 		.ascii	"PMC_OCR\000"
 1232      4F435200 
ARM GAS  /tmp/cctY1dQA.s 			page 28


 1233              	.LASF33:
 1234 027b 504D435F 		.ascii	"PMC_IDR\000"
 1234      49445200 
 1235              		.ident	"GCC: (Sourcery CodeBench Lite 2011.09-69) 4.6.1"
ARM GAS  /tmp/cctY1dQA.s 			page 29


DEFINED SYMBOLS
                            *ABS*:00000000 system.c
     /tmp/cctY1dQA.s:23     .data:00000000 SystemCoreClock
     /tmp/cctY1dQA.s:20     .data:00000000 $d
     /tmp/cctY1dQA.s:26     .text.SystemCoreClockUpdate:00000000 $t
     /tmp/cctY1dQA.s:31     .text.SystemCoreClockUpdate:00000000 SystemCoreClockUpdate
     /tmp/cctY1dQA.s:60     .text.SystemInit:00000000 $t
     /tmp/cctY1dQA.s:65     .text.SystemInit:00000000 SystemInit
                     .debug_frame:00000010 $d

NO UNDEFINED SYMBOLS
