Archive member included because of file (symbol)

/usr/local/lib64/gcc/arm-none-eabi/4.5.2/../../../../arm-none-eabi/lib/libc.a(lib_a-atexit.o)
                              /usr/local/lib64/gcc/arm-none-eabi/4.5.2/../../../../arm-none-eabi/lib/crt0.o (atexit)
/usr/local/lib64/gcc/arm-none-eabi/4.5.2/../../../../arm-none-eabi/lib/libc.a(lib_a-__atexit.o)
                              /usr/local/lib64/gcc/arm-none-eabi/4.5.2/../../../../arm-none-eabi/lib/libc.a(lib_a-atexit.o) (__register_exitproc)
/usr/local/lib64/gcc/arm-none-eabi/4.5.2/../../../../arm-none-eabi/lib/libc.a(lib_a-exit.o)
                              /usr/local/lib64/gcc/arm-none-eabi/4.5.2/../../../../arm-none-eabi/lib/crt0.o (exit)
/usr/local/lib64/gcc/arm-none-eabi/4.5.2/../../../../arm-none-eabi/lib/libc.a(lib_a-fini.o)
                              /usr/local/lib64/gcc/arm-none-eabi/4.5.2/../../../../arm-none-eabi/lib/crt0.o (__libc_fini_array)
/usr/local/lib64/gcc/arm-none-eabi/4.5.2/../../../../arm-none-eabi/lib/libc.a(lib_a-impure.o)
                              /usr/local/lib64/gcc/arm-none-eabi/4.5.2/../../../../arm-none-eabi/lib/libc.a(lib_a-__atexit.o) (_global_impure_ptr)
/usr/local/lib64/gcc/arm-none-eabi/4.5.2/../../../../arm-none-eabi/lib/libc.a(lib_a-init.o)
                              /usr/local/lib64/gcc/arm-none-eabi/4.5.2/../../../../arm-none-eabi/lib/crt0.o (__libc_init_array)
/usr/local/lib64/gcc/arm-none-eabi/4.5.2/../../../../arm-none-eabi/lib/libc.a(lib_a-memset.o)
                              /usr/local/lib64/gcc/arm-none-eabi/4.5.2/../../../../arm-none-eabi/lib/crt0.o (memset)
/usr/local/lib64/gcc/arm-none-eabi/4.5.2/../../../../arm-none-eabi/lib/libc.a(lib_a-__call_atexit.o)
                              /usr/local/lib64/gcc/arm-none-eabi/4.5.2/../../../../arm-none-eabi/lib/libc.a(lib_a-exit.o) (__call_exitprocs)
libusb/lib/libusb_sam3s_rel.a(release-USBD_HAL.o)
                              build/obj/startup.o (USBD_IrqHandler)
libusb/lib/libusb_sam3s_rel.a(release-USBDescriptors.o)
                              libusb/lib/libusb_sam3s_rel.a(release-USBD_HAL.o) (USBEndpointDescriptor_GetNumber)
libusb/lib/libusb_sam3s_rel.a(release-USBD.o)
                              libusb/lib/libusb_sam3s_rel.a(release-USBD_HAL.o) (USBD_SuspendHandler)
libusb/lib/libusb_sam3s_rel.a(release-USBDCallbacks.o)
                              libusb/lib/libusb_sam3s_rel.a(release-USBD.o) (USBDCallbacks_Reset)
libusb/lib/libusb_sam3s_rel.a(release-USBDDriver.o)
                              libusb/lib/libusb_sam3s_rel.a(release-USBDCallbacks.o) (USBD_GetDriver)
libusb/lib/libusb_sam3s_rel.a(release-CDCDSerial.o)
                              build/obj/usb_console.o (CDCDSerial_Read)
libusb/lib/libusb_sam3s_rel.a(release-USBDDriverCallbacks.o)
                              libusb/lib/libusb_sam3s_rel.a(release-USBDDriver.o) (USBDDriverCallbacks_InterfaceSettingChanged)
libusb/lib/libusb_sam3s_rel.a(release-CDCDSerialDriver.o)
                              build/obj/usb_console.o (CDCDSerialDriver_Initialize)
libusb/lib/libusb_sam3s_rel.a(release-USBRequests.o)
                              libusb/lib/libusb_sam3s_rel.a(release-USBDDriver.o) (USBGenericRequest_GetRequest)
libusb/lib/libusb_sam3s_rel.a(release-CDCDSerialPort.o)
                              libusb/lib/libusb_sam3s_rel.a(release-CDCDSerial.o) (CDCDSerialPort_Initialize)
libusb/lib/libusb_sam3s_rel.a(release-CDCLineCoding.o)
                              libusb/lib/libusb_sam3s_rel.a(release-CDCDSerialPort.o) (CDCLineCoding_Initialize)
libchip/lib/libchip_sam3s4_rel.a(release-pio_it.o)
                              build/obj/startup.o (PIOA_IrqHandler)
libchip/lib/libchip_sam3s4_rel.a(release-exceptions.o)
                              build/obj/startup.o (IrqHandlerNotUsed)
libchip/lib/libchip_sam3s4_rel.a(release-adc.o)
                              build/obj/input.o (ADC_Initialize)
libchip/lib/libchip_sam3s4_rel.a(release-pio.o)
                              build/obj/usb_console.o (PIO_Configure)
libchip/lib/libchip_sam3s4_rel.a(release-pmc.o)
                              build/obj/input.o (PMC_EnablePeripheral)
libchip/lib/libchip_sam3s4_rel.a(release-tc.o)
                              build/obj/input.o (TC_Configure)
libchip/lib/libchip_sam3s4_rel.a(release-pio_capture.o)
                              libchip/lib/libchip_sam3s4_rel.a(release-pio_it.o) (PIO_CaptureHandler)
/usr/local/lib64/gcc/arm-none-eabi/4.5.2/../../../../arm-none-eabi/lib/libg.a(lib_a-assert.o)
                              build/obj/led.o (__assert_func)
/usr/local/lib64/gcc/arm-none-eabi/4.5.2/../../../../arm-none-eabi/lib/libg.a(lib_a-fiprintf.o)
                              build/obj/usb_console.o (fiprintf)
/usr/local/lib64/gcc/arm-none-eabi/4.5.2/../../../../arm-none-eabi/lib/libg.a(lib_a-gets.o)
                              build/obj/main.o (gets)
/usr/local/lib64/gcc/arm-none-eabi/4.5.2/../../../../arm-none-eabi/lib/libg.a(lib_a-iprintf.o)
                              build/obj/syscalls.o (iprintf)
/usr/local/lib64/gcc/arm-none-eabi/4.5.2/../../../../arm-none-eabi/lib/libg.a(lib_a-memcpy.o)
                              build/obj/usb_console.o (memcpy)
/usr/local/lib64/gcc/arm-none-eabi/4.5.2/../../../../arm-none-eabi/lib/libg.a(lib_a-memmove.o)
                              build/obj/usb_console.o (memmove)
/usr/local/lib64/gcc/arm-none-eabi/4.5.2/../../../../arm-none-eabi/lib/libg.a(lib_a-reent.o)
                              build/obj/syscalls.o (errno)
/usr/local/lib64/gcc/arm-none-eabi/4.5.2/../../../../arm-none-eabi/lib/libg.a(lib_a-rget.o)
                              /usr/local/lib64/gcc/arm-none-eabi/4.5.2/../../../../arm-none-eabi/lib/libg.a(lib_a-gets.o) (__srget_r)
/usr/local/lib64/gcc/arm-none-eabi/4.5.2/../../../../arm-none-eabi/lib/libg.a(lib_a-setbuf.o)
                              build/obj/main.o (setbuf)
/usr/local/lib64/gcc/arm-none-eabi/4.5.2/../../../../arm-none-eabi/lib/libg.a(lib_a-setvbuf.o)
                              /usr/local/lib64/gcc/arm-none-eabi/4.5.2/../../../../arm-none-eabi/lib/libg.a(lib_a-setbuf.o) (setvbuf)
/usr/local/lib64/gcc/arm-none-eabi/4.5.2/../../../../arm-none-eabi/lib/libg.a(lib_a-siscanf.o)
                              build/obj/main.o (siscanf)
/usr/local/lib64/gcc/arm-none-eabi/4.5.2/../../../../arm-none-eabi/lib/libg.a(lib_a-stdio.o)
                              /usr/local/lib64/gcc/arm-none-eabi/4.5.2/../../../../arm-none-eabi/lib/libg.a(lib_a-siscanf.o) (__seofread)
/usr/local/lib64/gcc/arm-none-eabi/4.5.2/../../../../arm-none-eabi/lib/libg.a(lib_a-strlen.o)
                              /usr/local/lib64/gcc/arm-none-eabi/4.5.2/../../../../arm-none-eabi/lib/libg.a(lib_a-siscanf.o) (strlen)
/usr/local/lib64/gcc/arm-none-eabi/4.5.2/../../../../arm-none-eabi/lib/libg.a(lib_a-svfiscanf.o)
                              /usr/local/lib64/gcc/arm-none-eabi/4.5.2/../../../../arm-none-eabi/lib/libg.a(lib_a-siscanf.o) (__ssvfiscanf_r)
/usr/local/lib64/gcc/arm-none-eabi/4.5.2/../../../../arm-none-eabi/lib/libg.a(lib_a-ungetc.o)
                              /usr/local/lib64/gcc/arm-none-eabi/4.5.2/../../../../arm-none-eabi/lib/libg.a(lib_a-svfiscanf.o) (__submore)
/usr/local/lib64/gcc/arm-none-eabi/4.5.2/../../../../arm-none-eabi/lib/libg.a(lib_a-vfiprintf.o)
                              /usr/local/lib64/gcc/arm-none-eabi/4.5.2/../../../../arm-none-eabi/lib/libg.a(lib_a-fiprintf.o) (_vfiprintf_r)
/usr/local/lib64/gcc/arm-none-eabi/4.5.2/../../../../arm-none-eabi/lib/libg.a(lib_a-writer.o)
                              /usr/local/lib64/gcc/arm-none-eabi/4.5.2/../../../../arm-none-eabi/lib/libg.a(lib_a-stdio.o) (_write_r)
/usr/local/lib64/gcc/arm-none-eabi/4.5.2/../../../../arm-none-eabi/lib/libg.a(lib_a-wsetup.o)
                              /usr/local/lib64/gcc/arm-none-eabi/4.5.2/../../../../arm-none-eabi/lib/libg.a(lib_a-vfiprintf.o) (__swsetup_r)
/usr/local/lib64/gcc/arm-none-eabi/4.5.2/../../../../arm-none-eabi/lib/libg.a(lib_a-abort.o)
                              /usr/local/lib64/gcc/arm-none-eabi/4.5.2/../../../../arm-none-eabi/lib/libg.a(lib_a-assert.o) (abort)
/usr/local/lib64/gcc/arm-none-eabi/4.5.2/../../../../arm-none-eabi/lib/libg.a(lib_a-closer.o)
                              /usr/local/lib64/gcc/arm-none-eabi/4.5.2/../../../../arm-none-eabi/lib/libg.a(lib_a-stdio.o) (_close_r)
/usr/local/lib64/gcc/arm-none-eabi/4.5.2/../../../../arm-none-eabi/lib/libg.a(lib_a-ctype_.o)
                              /usr/local/lib64/gcc/arm-none-eabi/4.5.2/../../../../arm-none-eabi/lib/libg.a(lib_a-svfiscanf.o) (__ctype_ptr__)
/usr/local/lib64/gcc/arm-none-eabi/4.5.2/../../../../arm-none-eabi/lib/libg.a(lib_a-fflush.o)
                              /usr/local/lib64/gcc/arm-none-eabi/4.5.2/../../../../arm-none-eabi/lib/libg.a(lib_a-setvbuf.o) (_fflush_r)
/usr/local/lib64/gcc/arm-none-eabi/4.5.2/../../../../arm-none-eabi/lib/libg.a(lib_a-findfp.o)
                              /usr/local/lib64/gcc/arm-none-eabi/4.5.2/../../../../arm-none-eabi/lib/libg.a(lib_a-setvbuf.o) (_cleanup_r)
/usr/local/lib64/gcc/arm-none-eabi/4.5.2/../../../../arm-none-eabi/lib/libg.a(lib_a-fputwc.o)
                              /usr/local/lib64/gcc/arm-none-eabi/4.5.2/../../../../arm-none-eabi/lib/libg.a(lib_a-vfiprintf.o) (_fputwc_r)
/usr/local/lib64/gcc/arm-none-eabi/4.5.2/../../../../arm-none-eabi/lib/libg.a(lib_a-freer.o)
                              /usr/local/lib64/gcc/arm-none-eabi/4.5.2/../../../../arm-none-eabi/lib/libg.a(lib_a-reent.o) (_free_r)
/usr/local/lib64/gcc/arm-none-eabi/4.5.2/../../../../arm-none-eabi/lib/libg.a(lib_a-fvwrite.o)
                              /usr/local/lib64/gcc/arm-none-eabi/4.5.2/../../../../arm-none-eabi/lib/libg.a(lib_a-vfiprintf.o) (__sfvwrite_r)
/usr/local/lib64/gcc/arm-none-eabi/4.5.2/../../../../arm-none-eabi/lib/libg.a(lib_a-fwalk.o)
                              /usr/local/lib64/gcc/arm-none-eabi/4.5.2/../../../../arm-none-eabi/lib/libg.a(lib_a-findfp.o) (_fwalk)
/usr/local/lib64/gcc/arm-none-eabi/4.5.2/../../../../arm-none-eabi/lib/libg.a(lib_a-iswspace.o)
                              /usr/local/lib64/gcc/arm-none-eabi/4.5.2/../../../../arm-none-eabi/lib/libg.a(lib_a-svfiscanf.o) (iswspace)
/usr/local/lib64/gcc/arm-none-eabi/4.5.2/../../../../arm-none-eabi/lib/libg.a(lib_a-locale.o)
                              /usr/local/lib64/gcc/arm-none-eabi/4.5.2/../../../../arm-none-eabi/lib/libg.a(lib_a-svfiscanf.o) (__locale_mb_cur_max)
/usr/local/lib64/gcc/arm-none-eabi/4.5.2/../../../../arm-none-eabi/lib/libg.a(lib_a-lseekr.o)
                              /usr/local/lib64/gcc/arm-none-eabi/4.5.2/../../../../arm-none-eabi/lib/libg.a(lib_a-stdio.o) (_lseek_r)
/usr/local/lib64/gcc/arm-none-eabi/4.5.2/../../../../arm-none-eabi/lib/libg.a(lib_a-makebuf.o)
                              /usr/local/lib64/gcc/arm-none-eabi/4.5.2/../../../../arm-none-eabi/lib/libg.a(lib_a-wsetup.o) (__smakebuf_r)
/usr/local/lib64/gcc/arm-none-eabi/4.5.2/../../../../arm-none-eabi/lib/libg.a(lib_a-malloc.o)
                              /usr/local/lib64/gcc/arm-none-eabi/4.5.2/../../../../arm-none-eabi/lib/libg.a(lib_a-setvbuf.o) (malloc)
/usr/local/lib64/gcc/arm-none-eabi/4.5.2/../../../../arm-none-eabi/lib/libg.a(lib_a-mallocr.o)
                              /usr/local/lib64/gcc/arm-none-eabi/4.5.2/../../../../arm-none-eabi/lib/libg.a(lib_a-ungetc.o) (_malloc_r)
/usr/local/lib64/gcc/arm-none-eabi/4.5.2/../../../../arm-none-eabi/lib/libg.a(lib_a-mbrtowc.o)
                              /usr/local/lib64/gcc/arm-none-eabi/4.5.2/../../../../arm-none-eabi/lib/libg.a(lib_a-svfiscanf.o) (_mbrtowc_r)
/usr/local/lib64/gcc/arm-none-eabi/4.5.2/../../../../arm-none-eabi/lib/libg.a(lib_a-mbtowc_r.o)
                              /usr/local/lib64/gcc/arm-none-eabi/4.5.2/../../../../arm-none-eabi/lib/libg.a(lib_a-mbrtowc.o) (__mbtowc)
/usr/local/lib64/gcc/arm-none-eabi/4.5.2/../../../../arm-none-eabi/lib/libg.a(lib_a-memchr.o)
                              /usr/local/lib64/gcc/arm-none-eabi/4.5.2/../../../../arm-none-eabi/lib/libg.a(lib_a-vfiprintf.o) (memchr)
/usr/local/lib64/gcc/arm-none-eabi/4.5.2/../../../../arm-none-eabi/lib/libg.a(lib_a-mlock.o)
                              /usr/local/lib64/gcc/arm-none-eabi/4.5.2/../../../../arm-none-eabi/lib/libg.a(lib_a-freer.o) (__malloc_lock)
/usr/local/lib64/gcc/arm-none-eabi/4.5.2/../../../../arm-none-eabi/lib/libg.a(lib_a-readr.o)
                              /usr/local/lib64/gcc/arm-none-eabi/4.5.2/../../../../arm-none-eabi/lib/libg.a(lib_a-stdio.o) (_read_r)
/usr/local/lib64/gcc/arm-none-eabi/4.5.2/../../../../arm-none-eabi/lib/libg.a(lib_a-reallocr.o)
                              /usr/local/lib64/gcc/arm-none-eabi/4.5.2/../../../../arm-none-eabi/lib/libg.a(lib_a-ungetc.o) (_realloc_r)
/usr/local/lib64/gcc/arm-none-eabi/4.5.2/../../../../arm-none-eabi/lib/libg.a(lib_a-refill.o)
                              /usr/local/lib64/gcc/arm-none-eabi/4.5.2/../../../../arm-none-eabi/lib/libg.a(lib_a-rget.o) (__srefill_r)
/usr/local/lib64/gcc/arm-none-eabi/4.5.2/../../../../arm-none-eabi/lib/libg.a(lib_a-sbrkr.o)
                              /usr/local/lib64/gcc/arm-none-eabi/4.5.2/../../../../arm-none-eabi/lib/libg.a(lib_a-freer.o) (_sbrk_r)
/usr/local/lib64/gcc/arm-none-eabi/4.5.2/../../../../arm-none-eabi/lib/libg.a(lib_a-sccl.o)
                              /usr/local/lib64/gcc/arm-none-eabi/4.5.2/../../../../arm-none-eabi/lib/libg.a(lib_a-svfiscanf.o) (__sccl)
/usr/local/lib64/gcc/arm-none-eabi/4.5.2/../../../../arm-none-eabi/lib/libg.a(lib_a-signal.o)
                              /usr/local/lib64/gcc/arm-none-eabi/4.5.2/../../../../arm-none-eabi/lib/libg.a(lib_a-abort.o) (raise)
/usr/local/lib64/gcc/arm-none-eabi/4.5.2/../../../../arm-none-eabi/lib/libg.a(lib_a-signalr.o)
                              /usr/local/lib64/gcc/arm-none-eabi/4.5.2/../../../../arm-none-eabi/lib/libg.a(lib_a-signal.o) (_kill_r)
/usr/local/lib64/gcc/arm-none-eabi/4.5.2/../../../../arm-none-eabi/lib/libg.a(lib_a-strcmp.o)
                              /usr/local/lib64/gcc/arm-none-eabi/4.5.2/../../../../arm-none-eabi/lib/libg.a(lib_a-locale.o) (strcmp)
/usr/local/lib64/gcc/arm-none-eabi/4.5.2/../../../../arm-none-eabi/lib/libg.a(lib_a-strtol.o)
                              /usr/local/lib64/gcc/arm-none-eabi/4.5.2/../../../../arm-none-eabi/lib/libg.a(lib_a-svfiscanf.o) (_strtol_r)
/usr/local/lib64/gcc/arm-none-eabi/4.5.2/../../../../arm-none-eabi/lib/libg.a(lib_a-strtoul.o)
                              /usr/local/lib64/gcc/arm-none-eabi/4.5.2/../../../../arm-none-eabi/lib/libg.a(lib_a-svfiscanf.o) (_strtoul_r)
/usr/local/lib64/gcc/arm-none-eabi/4.5.2/../../../../arm-none-eabi/lib/libg.a(lib_a-wbuf.o)
                              /usr/local/lib64/gcc/arm-none-eabi/4.5.2/../../../../arm-none-eabi/lib/libg.a(lib_a-fputwc.o) (__swbuf_r)
/usr/local/lib64/gcc/arm-none-eabi/4.5.2/../../../../arm-none-eabi/lib/libg.a(lib_a-wcrtomb.o)
                              /usr/local/lib64/gcc/arm-none-eabi/4.5.2/../../../../arm-none-eabi/lib/libg.a(lib_a-fputwc.o) (_wcrtomb_r)
/usr/local/lib64/gcc/arm-none-eabi/4.5.2/../../../../arm-none-eabi/lib/libg.a(lib_a-wctomb_r.o)
                              /usr/local/lib64/gcc/arm-none-eabi/4.5.2/../../../../arm-none-eabi/lib/libg.a(lib_a-wcrtomb.o) (__wctomb)
/usr/local/lib64/gcc/arm-none-eabi/4.5.2/../../../../arm-none-eabi/lib/libg.a(lib_a-fclose.o)
                              /usr/local/lib64/gcc/arm-none-eabi/4.5.2/../../../../arm-none-eabi/lib/libg.a(lib_a-findfp.o) (fclose)
/usr/local/lib64/gcc/arm-none-eabi/4.5.2/../../../../arm-none-eabi/lib/libg.a(lib_a-fstatr.o)
                              /usr/local/lib64/gcc/arm-none-eabi/4.5.2/../../../../arm-none-eabi/lib/libg.a(lib_a-makebuf.o) (_fstat_r)
/usr/local/lib64/gcc/arm-none-eabi/4.5.2/../../../../arm-none-eabi/lib/libg.a(lib_a-isattyr.o)
                              /usr/local/lib64/gcc/arm-none-eabi/4.5.2/../../../../arm-none-eabi/lib/libg.a(lib_a-makebuf.o) (_isatty_r)
/usr/local/lib64/gcc/arm-none-eabi/4.5.2/thumb/v7/libgcc.a(_udivsi3.o)
                              /usr/local/lib64/gcc/arm-none-eabi/4.5.2/../../../../arm-none-eabi/lib/libg.a(lib_a-svfiscanf.o) (__aeabi_uidiv)
/usr/local/lib64/gcc/arm-none-eabi/4.5.2/thumb/v7/libgcc.a(_dvmd_tls.o)
                              /usr/local/lib64/gcc/arm-none-eabi/4.5.2/thumb/v7/libgcc.a(_udivsi3.o) (__aeabi_idiv0)

Allocating common symbols
Common symbol       size              file

errno               0x4               /usr/local/lib64/gcc/arm-none-eabi/4.5.2/../../../../arm-none-eabi/lib/libg.a(lib_a-reent.o)

Discarded input sections

 .text          0x0000000000000000        0x0 /usr/local/lib64/gcc/arm-none-eabi/4.5.2/thumb/v7/crti.o
 .data          0x0000000000000000        0x0 /usr/local/lib64/gcc/arm-none-eabi/4.5.2/thumb/v7/crti.o
 .bss           0x0000000000000000        0x0 /usr/local/lib64/gcc/arm-none-eabi/4.5.2/thumb/v7/crti.o
 .data          0x0000000000000000        0x4 /usr/local/lib64/gcc/arm-none-eabi/4.5.2/thumb/v7/crtbegin.o
 .text          0x0000000000000000      0x104 /usr/local/lib64/gcc/arm-none-eabi/4.5.2/../../../../arm-none-eabi/lib/crt0.o
 .data          0x0000000000000000        0x0 /usr/local/lib64/gcc/arm-none-eabi/4.5.2/../../../../arm-none-eabi/lib/crt0.o
 .bss           0x0000000000000000        0x0 /usr/local/lib64/gcc/arm-none-eabi/4.5.2/../../../../arm-none-eabi/lib/crt0.o
 .ARM.extab     0x0000000000000000        0x0 /usr/local/lib64/gcc/arm-none-eabi/4.5.2/../../../../arm-none-eabi/lib/crt0.o
 .ARM.exidx     0x0000000000000000        0x8 /usr/local/lib64/gcc/arm-none-eabi/4.5.2/../../../../arm-none-eabi/lib/crt0.o
 .text          0x0000000000000000       0x20 /usr/local/lib64/gcc/arm-none-eabi/4.5.2/../../../../arm-none-eabi/lib/libc.a(lib_a-atexit.o)
 .data          0x0000000000000000        0x0 /usr/local/lib64/gcc/arm-none-eabi/4.5.2/../../../../arm-none-eabi/lib/libc.a(lib_a-atexit.o)
 .bss           0x0000000000000000        0x0 /usr/local/lib64/gcc/arm-none-eabi/4.5.2/../../../../arm-none-eabi/lib/libc.a(lib_a-atexit.o)
 .text          0x0000000000000000       0xf4 /usr/local/lib64/gcc/arm-none-eabi/4.5.2/../../../../arm-none-eabi/lib/libc.a(lib_a-__atexit.o)
 .data          0x0000000000000000        0x0 /usr/local/lib64/gcc/arm-none-eabi/4.5.2/../../../../arm-none-eabi/lib/libc.a(lib_a-__atexit.o)
 .bss           0x0000000000000000        0x0 /usr/local/lib64/gcc/arm-none-eabi/4.5.2/../../../../arm-none-eabi/lib/libc.a(lib_a-__atexit.o)
 .text          0x0000000000000000       0x34 /usr/local/lib64/gcc/arm-none-eabi/4.5.2/../../../../arm-none-eabi/lib/libc.a(lib_a-exit.o)
 .data          0x0000000000000000        0x0 /usr/local/lib64/gcc/arm-none-eabi/4.5.2/../../../../arm-none-eabi/lib/libc.a(lib_a-exit.o)
 .bss           0x0000000000000000        0x0 /usr/local/lib64/gcc/arm-none-eabi/4.5.2/../../../../arm-none-eabi/lib/libc.a(lib_a-exit.o)
 .text          0x0000000000000000       0x44 /usr/local/lib64/gcc/arm-none-eabi/4.5.2/../../../../arm-none-eabi/lib/libc.a(lib_a-fini.o)
 .data          0x0000000000000000        0x0 /usr/local/lib64/gcc/arm-none-eabi/4.5.2/../../../../arm-none-eabi/lib/libc.a(lib_a-fini.o)
 .bss           0x0000000000000000        0x0 /usr/local/lib64/gcc/arm-none-eabi/4.5.2/../../../../arm-none-eabi/lib/libc.a(lib_a-fini.o)
 .text          0x0000000000000000        0x0 /usr/local/lib64/gcc/arm-none-eabi/4.5.2/../../../../arm-none-eabi/lib/libc.a(lib_a-impure.o)
 .bss           0x0000000000000000        0x0 /usr/local/lib64/gcc/arm-none-eabi/4.5.2/../../../../arm-none-eabi/lib/libc.a(lib_a-impure.o)
 .text          0x0000000000000000       0x80 /usr/local/lib64/gcc/arm-none-eabi/4.5.2/../../../../arm-none-eabi/lib/libc.a(lib_a-init.o)
 .data          0x0000000000000000        0x0 /usr/local/lib64/gcc/arm-none-eabi/4.5.2/../../../../arm-none-eabi/lib/libc.a(lib_a-init.o)
 .bss           0x0000000000000000        0x0 /usr/local/lib64/gcc/arm-none-eabi/4.5.2/../../../../arm-none-eabi/lib/libc.a(lib_a-init.o)
 .data          0x0000000000000000        0x0 /usr/local/lib64/gcc/arm-none-eabi/4.5.2/../../../../arm-none-eabi/lib/libc.a(lib_a-memset.o)
 .bss           0x0000000000000000        0x0 /usr/local/lib64/gcc/arm-none-eabi/4.5.2/../../../../arm-none-eabi/lib/libc.a(lib_a-memset.o)
 .text          0x0000000000000000      0x164 /usr/local/lib64/gcc/arm-none-eabi/4.5.2/../../../../arm-none-eabi/lib/libc.a(lib_a-__call_atexit.o)
 .data          0x0000000000000000        0x0 /usr/local/lib64/gcc/arm-none-eabi/4.5.2/../../../../arm-none-eabi/lib/libc.a(lib_a-__call_atexit.o)
 .bss           0x0000000000000000        0x0 /usr/local/lib64/gcc/arm-none-eabi/4.5.2/../../../../arm-none-eabi/lib/libc.a(lib_a-__call_atexit.o)
 .text          0x0000000000000000        0x0 build/obj/syscalls.o
 .data          0x0000000000000000        0x0 build/obj/syscalls.o
 .text._link    0x0000000000000000       0x1c build/obj/syscalls.o
 .text          0x0000000000000000        0x0 build/obj/usb_console.o
 .text.USBC_SetTimeout
                0x0000000000000000       0x20 build/obj/usb_console.o
 .text          0x0000000000000000        0x0 build/obj/system.o
 .bss           0x0000000000000000        0x0 build/obj/system.o
 .text          0x0000000000000000        0x0 build/obj/uart_console.o
 .text.UART_SetTimeout
                0x0000000000000000       0x20 build/obj/uart_console.o
 .text          0x0000000000000000        0x0 build/obj/led.o
 .data          0x0000000000000000        0x0 build/obj/led.o
 .text.LED_set  0x0000000000000000       0x7c build/obj/led.o
 .text.LED_get  0x0000000000000000       0x84 build/obj/led.o
 .text.LED_blinkwait
                0x0000000000000000       0x30 build/obj/led.o
 .text          0x0000000000000000        0x0 build/obj/timetick.o
 .data          0x0000000000000000        0x0 build/obj/timetick.o
 .text.__WFI    0x0000000000000000        0xc build/obj/timetick.o
 .text.Wait     0x0000000000000000       0x38 build/obj/timetick.o
 .text.Sleep    0x0000000000000000       0x3c build/obj/timetick.o
 .text          0x0000000000000000        0x0 build/obj/startup.o
 .data          0x0000000000000000        0x0 build/obj/startup.o
 .bss           0x0000000000000000        0x0 build/obj/startup.o
 .text          0x0000000000000000        0x0 build/obj/usb_device_descriptor.o
 .bss           0x0000000000000000        0x0 build/obj/usb_device_descriptor.o
 .text          0x0000000000000000        0x0 build/obj/main.o
 .bss           0x0000000000000000        0x0 build/obj/main.o
 .text          0x0000000000000000        0x0 build/obj/input.o
 .data          0x0000000000000000        0x0 build/obj/input.o
 .text          0x0000000000000000        0x0 libusb/lib/libusb_sam3s_rel.a(release-USBD_HAL.o)
 .data          0x0000000000000000        0x0 libusb/lib/libusb_sam3s_rel.a(release-USBD_HAL.o)
 .text.USBD_HAL_SetupMblTransfer
                0x0000000000000000       0x60 libusb/lib/libusb_sam3s_rel.a(release-USBD_HAL.o)
 .text.USBD_HAL_RemoteWakeUp
                0x0000000000000000       0x34 libusb/lib/libusb_sam3s_rel.a(release-USBD_HAL.o)
 .text          0x0000000000000000        0x0 libusb/lib/libusb_sam3s_rel.a(release-USBDescriptors.o)
 .data          0x0000000000000000        0x0 libusb/lib/libusb_sam3s_rel.a(release-USBDescriptors.o)
 .bss           0x0000000000000000        0x0 libusb/lib/libusb_sam3s_rel.a(release-USBDescriptors.o)
 .text.USBEndpointDescriptor_GetInterval
                0x0000000000000000        0x4 libusb/lib/libusb_sam3s_rel.a(release-USBDescriptors.o)
 .text.USBConfigurationDescriptor_GetNumInterfaces
                0x0000000000000000        0x4 libusb/lib/libusb_sam3s_rel.a(release-USBDescriptors.o)
 .text          0x0000000000000000        0x0 libusb/lib/libusb_sam3s_rel.a(release-USBD.o)
 .data          0x0000000000000000        0x0 libusb/lib/libusb_sam3s_rel.a(release-USBD.o)
 .text.USBD_IsHalted
                0x0000000000000000       0x10 libusb/lib/libusb_sam3s_rel.a(release-USBD.o)
 .text.USBD_RemoteWakeUp
                0x0000000000000000       0x20 libusb/lib/libusb_sam3s_rel.a(release-USBD.o)
 .text          0x0000000000000000        0x0 libusb/lib/libusb_sam3s_rel.a(release-USBDCallbacks.o)
 .data          0x0000000000000000        0x0 libusb/lib/libusb_sam3s_rel.a(release-USBDCallbacks.o)
 .bss           0x0000000000000000        0x0 libusb/lib/libusb_sam3s_rel.a(release-USBDCallbacks.o)
 .text.USBDCallbacks_Initialized
                0x0000000000000000        0x2 libusb/lib/libusb_sam3s_rel.a(release-USBDCallbacks.o)
 .text.USBDCallbacks_RequestReceived
                0x0000000000000000       0x18 libusb/lib/libusb_sam3s_rel.a(release-USBDCallbacks.o)
 .text          0x0000000000000000        0x0 libusb/lib/libusb_sam3s_rel.a(release-USBDDriver.o)
 .data          0x0000000000000000        0x0 libusb/lib/libusb_sam3s_rel.a(release-USBDDriver.o)
 .text.USBDDriver_IsRemoteWakeUpEnabled
                0x0000000000000000        0x4 libusb/lib/libusb_sam3s_rel.a(release-USBDDriver.o)
 .text.USBDDriver_returnOTGFeatures
                0x0000000000000000        0x4 libusb/lib/libusb_sam3s_rel.a(release-USBDDriver.o)
 .text.USBDDriver_clearOTGFeatures
                0x0000000000000000        0x6 libusb/lib/libusb_sam3s_rel.a(release-USBDDriver.o)
 .text          0x0000000000000000        0x0 libusb/lib/libusb_sam3s_rel.a(release-CDCDSerial.o)
 .data          0x0000000000000000        0x0 libusb/lib/libusb_sam3s_rel.a(release-CDCDSerial.o)
 .text.CDCDSerial_GetControlLineState
                0x0000000000000000       0x14 libusb/lib/libusb_sam3s_rel.a(release-CDCDSerial.o)
 .text.CDCDSerial_GetLineCoding
                0x0000000000000000       0x14 libusb/lib/libusb_sam3s_rel.a(release-CDCDSerial.o)
 .text.CDCDSerial_GetSerialState
                0x0000000000000000       0x14 libusb/lib/libusb_sam3s_rel.a(release-CDCDSerial.o)
 .text.CDCDSerial_SetSerialState
                0x0000000000000000       0x14 libusb/lib/libusb_sam3s_rel.a(release-CDCDSerial.o)
 .text          0x0000000000000000        0x0 libusb/lib/libusb_sam3s_rel.a(release-USBDDriverCallbacks.o)
 .data          0x0000000000000000        0x0 libusb/lib/libusb_sam3s_rel.a(release-USBDDriverCallbacks.o)
 .bss           0x0000000000000000        0x0 libusb/lib/libusb_sam3s_rel.a(release-USBDDriverCallbacks.o)
 .text.USBDDriverCallbacks_ConfigurationChanged
                0x0000000000000000        0x2 libusb/lib/libusb_sam3s_rel.a(release-USBDDriverCallbacks.o)
 .text          0x0000000000000000        0x0 libusb/lib/libusb_sam3s_rel.a(release-CDCDSerialDriver.o)
 .data          0x0000000000000000        0x0 libusb/lib/libusb_sam3s_rel.a(release-CDCDSerialDriver.o)
 .bss           0x0000000000000000        0x0 libusb/lib/libusb_sam3s_rel.a(release-CDCDSerialDriver.o)
 .text          0x0000000000000000        0x0 libusb/lib/libusb_sam3s_rel.a(release-USBRequests.o)
 .data          0x0000000000000000        0x0 libusb/lib/libusb_sam3s_rel.a(release-USBRequests.o)
 .bss           0x0000000000000000        0x0 libusb/lib/libusb_sam3s_rel.a(release-USBRequests.o)
 .text.USBFeatureRequest_GetTestSelector
                0x0000000000000000       0x10 libusb/lib/libusb_sam3s_rel.a(release-USBRequests.o)
 .text          0x0000000000000000        0x0 libusb/lib/libusb_sam3s_rel.a(release-CDCDSerialPort.o)
 .data          0x0000000000000000        0x0 libusb/lib/libusb_sam3s_rel.a(release-CDCDSerialPort.o)
 .text.CDCDSerialPort_GetControlLineState
                0x0000000000000000        0x4 libusb/lib/libusb_sam3s_rel.a(release-CDCDSerialPort.o)
 .text.CDCDSerialPort_GetLineCoding
                0x0000000000000000       0x18 libusb/lib/libusb_sam3s_rel.a(release-CDCDSerialPort.o)
 .text.CDCDSerialPort_GetSerialState
                0x0000000000000000        0x4 libusb/lib/libusb_sam3s_rel.a(release-CDCDSerialPort.o)
 .text.CDCDSerialPort_SetSerialState
                0x0000000000000000       0x30 libusb/lib/libusb_sam3s_rel.a(release-CDCDSerialPort.o)
 .text          0x0000000000000000        0x0 libusb/lib/libusb_sam3s_rel.a(release-CDCLineCoding.o)
 .data          0x0000000000000000        0x0 libusb/lib/libusb_sam3s_rel.a(release-CDCLineCoding.o)
 .bss           0x0000000000000000        0x0 libusb/lib/libusb_sam3s_rel.a(release-CDCLineCoding.o)
 .text          0x0000000000000000        0x0 libchip/lib/libchip_sam3s4_rel.a(release-pio_it.o)
 .data          0x0000000000000000        0x0 libchip/lib/libchip_sam3s4_rel.a(release-pio_it.o)
 .text.PIO_DisableIt
                0x0000000000000000       0x2c libchip/lib/libchip_sam3s4_rel.a(release-pio_it.o)
 .text          0x0000000000000000        0x0 libchip/lib/libchip_sam3s4_rel.a(release-exceptions.o)
 .data          0x0000000000000000        0x0 libchip/lib/libchip_sam3s4_rel.a(release-exceptions.o)
 .bss           0x0000000000000000        0x0 libchip/lib/libchip_sam3s4_rel.a(release-exceptions.o)
 .text.SysTick_Handler
                0x0000000000000000        0x2 libchip/lib/libchip_sam3s4_rel.a(release-exceptions.o)
 .text.PIOA_IrqHandler
                0x0000000000000000        0x2 libchip/lib/libchip_sam3s4_rel.a(release-exceptions.o)
 .text.PIOB_IrqHandler
                0x0000000000000000        0x2 libchip/lib/libchip_sam3s4_rel.a(release-exceptions.o)
 .text.PIOC_IrqHandler
                0x0000000000000000        0x2 libchip/lib/libchip_sam3s4_rel.a(release-exceptions.o)
 .text.TC0_IrqHandler
                0x0000000000000000        0x2 libchip/lib/libchip_sam3s4_rel.a(release-exceptions.o)
 .text.ADC_IrqHandler
                0x0000000000000000        0x2 libchip/lib/libchip_sam3s4_rel.a(release-exceptions.o)
 .text.USBD_IrqHandler
                0x0000000000000000        0x2 libchip/lib/libchip_sam3s4_rel.a(release-exceptions.o)
 .text          0x0000000000000000        0x0 libchip/lib/libchip_sam3s4_rel.a(release-adc.o)
 .data          0x0000000000000000        0x0 libchip/lib/libchip_sam3s4_rel.a(release-adc.o)
 .bss           0x0000000000000000        0x0 libchip/lib/libchip_sam3s4_rel.a(release-adc.o)
 .text.calcul_startup
                0x0000000000000000       0x8e libchip/lib/libchip_sam3s4_rel.a(release-adc.o)
 .text.ADC_CfgTiming
                0x0000000000000000       0x1e libchip/lib/libchip_sam3s4_rel.a(release-adc.o)
 .text.ADC_CfgTrigering
                0x0000000000000000       0x20 libchip/lib/libchip_sam3s4_rel.a(release-adc.o)
 .text.ADC_CfgLowRes
                0x0000000000000000       0x10 libchip/lib/libchip_sam3s4_rel.a(release-adc.o)
 .text.ADC_CfgPowerSave
                0x0000000000000000       0x1a libchip/lib/libchip_sam3s4_rel.a(release-adc.o)
 .text.ADC_CfgChannelMode
                0x0000000000000000       0x14 libchip/lib/libchip_sam3s4_rel.a(release-adc.o)
 .text.ADC_check
                0x0000000000000000       0xc0 libchip/lib/libchip_sam3s4_rel.a(release-adc.o)
 .text.ADC_GetConvertedData
                0x0000000000000000       0x2c libchip/lib/libchip_sam3s4_rel.a(release-adc.o)
 .text.ADC_SetCompareChannel
                0x0000000000000000       0x48 libchip/lib/libchip_sam3s4_rel.a(release-adc.o)
 .text.ADC_SetCompareMode
                0x0000000000000000       0x16 libchip/lib/libchip_sam3s4_rel.a(release-adc.o)
 .text.ADC_SetComparisonWindow
                0x0000000000000000        0x4 libchip/lib/libchip_sam3s4_rel.a(release-adc.o)
 .text.ADC_IsInterruptMasked
                0x0000000000000000        0x6 libchip/lib/libchip_sam3s4_rel.a(release-adc.o)
 .text.ADC_IsStatusSet
                0x0000000000000000        0x6 libchip/lib/libchip_sam3s4_rel.a(release-adc.o)
 .text.ADC_IsChannelInterruptStatusSet
                0x0000000000000000       0x14 libchip/lib/libchip_sam3s4_rel.a(release-adc.o)
 .rodata        0x0000000000000000       0x2b libchip/lib/libchip_sam3s4_rel.a(release-adc.o)
 .rodata.str1.1
                0x0000000000000000      0x107 libchip/lib/libchip_sam3s4_rel.a(release-adc.o)
 .text          0x0000000000000000        0x0 libchip/lib/libchip_sam3s4_rel.a(release-pio.o)
 .data          0x0000000000000000        0x0 libchip/lib/libchip_sam3s4_rel.a(release-pio.o)
 .bss           0x0000000000000000        0x0 libchip/lib/libchip_sam3s4_rel.a(release-pio.o)
 .text.PIO_GetOutputDataStatus
                0x0000000000000000       0x10 libchip/lib/libchip_sam3s4_rel.a(release-pio.o)
 .text.PIO_SetDebounceFilter
                0x0000000000000000       0x1e libchip/lib/libchip_sam3s4_rel.a(release-pio.o)
 .text          0x0000000000000000        0x0 libchip/lib/libchip_sam3s4_rel.a(release-pmc.o)
 .data          0x0000000000000000        0x0 libchip/lib/libchip_sam3s4_rel.a(release-pmc.o)
 .bss           0x0000000000000000        0x0 libchip/lib/libchip_sam3s4_rel.a(release-pmc.o)
 .text.PMC_EnableAllPeripherals
                0x0000000000000000       0x2c libchip/lib/libchip_sam3s4_rel.a(release-pmc.o)
 .text.PMC_DisableAllPeripherals
                0x0000000000000000       0x2c libchip/lib/libchip_sam3s4_rel.a(release-pmc.o)
 .text          0x0000000000000000        0x0 libchip/lib/libchip_sam3s4_rel.a(release-tc.o)
 .data          0x0000000000000000        0x0 libchip/lib/libchip_sam3s4_rel.a(release-tc.o)
 .bss           0x0000000000000000        0x0 libchip/lib/libchip_sam3s4_rel.a(release-tc.o)
 .text.TC_Stop  0x0000000000000000       0x2c libchip/lib/libchip_sam3s4_rel.a(release-tc.o)
 .text          0x0000000000000000        0x0 libchip/lib/libchip_sam3s4_rel.a(release-pio_capture.o)
 .data          0x0000000000000000        0x0 libchip/lib/libchip_sam3s4_rel.a(release-pio_capture.o)
 .text.PIO_CaptureDisableIt
                0x0000000000000000        0xc libchip/lib/libchip_sam3s4_rel.a(release-pio_capture.o)
 .text.PIO_CaptureEnableIt
                0x0000000000000000        0xc libchip/lib/libchip_sam3s4_rel.a(release-pio_capture.o)
 .text.PIO_CaptureEnable
                0x0000000000000000       0x28 libchip/lib/libchip_sam3s4_rel.a(release-pio_capture.o)
 .text.PIO_CaptureDisable
                0x0000000000000000       0x14 libchip/lib/libchip_sam3s4_rel.a(release-pio_capture.o)
 .text.PIO_CaptureInit
                0x0000000000000000       0xf4 libchip/lib/libchip_sam3s4_rel.a(release-pio_capture.o)
 .rodata        0x0000000000000000       0x10 libchip/lib/libchip_sam3s4_rel.a(release-pio_capture.o)
 .rodata.str1.1
                0x0000000000000000       0x7d libchip/lib/libchip_sam3s4_rel.a(release-pio_capture.o)
 .data          0x0000000000000000        0x0 /usr/local/lib64/gcc/arm-none-eabi/4.5.2/../../../../arm-none-eabi/lib/libg.a(lib_a-assert.o)
 .bss           0x0000000000000000        0x0 /usr/local/lib64/gcc/arm-none-eabi/4.5.2/../../../../arm-none-eabi/lib/libg.a(lib_a-assert.o)
 .data          0x0000000000000000        0x0 /usr/local/lib64/gcc/arm-none-eabi/4.5.2/../../../../arm-none-eabi/lib/libg.a(lib_a-fiprintf.o)
 .bss           0x0000000000000000        0x0 /usr/local/lib64/gcc/arm-none-eabi/4.5.2/../../../../arm-none-eabi/lib/libg.a(lib_a-fiprintf.o)
 .data          0x0000000000000000        0x0 /usr/local/lib64/gcc/arm-none-eabi/4.5.2/../../../../arm-none-eabi/lib/libg.a(lib_a-gets.o)
 .bss           0x0000000000000000        0x0 /usr/local/lib64/gcc/arm-none-eabi/4.5.2/../../../../arm-none-eabi/lib/libg.a(lib_a-gets.o)
 .data          0x0000000000000000        0x0 /usr/local/lib64/gcc/arm-none-eabi/4.5.2/../../../../arm-none-eabi/lib/libg.a(lib_a-iprintf.o)
 .bss           0x0000000000000000        0x0 /usr/local/lib64/gcc/arm-none-eabi/4.5.2/../../../../arm-none-eabi/lib/libg.a(lib_a-iprintf.o)
 .data          0x0000000000000000        0x0 /usr/local/lib64/gcc/arm-none-eabi/4.5.2/../../../../arm-none-eabi/lib/libg.a(lib_a-memcpy.o)
 .bss           0x0000000000000000        0x0 /usr/local/lib64/gcc/arm-none-eabi/4.5.2/../../../../arm-none-eabi/lib/libg.a(lib_a-memcpy.o)
 .data          0x0000000000000000        0x0 /usr/local/lib64/gcc/arm-none-eabi/4.5.2/../../../../arm-none-eabi/lib/libg.a(lib_a-memmove.o)
 .bss           0x0000000000000000        0x0 /usr/local/lib64/gcc/arm-none-eabi/4.5.2/../../../../arm-none-eabi/lib/libg.a(lib_a-memmove.o)
 .text          0x0000000000000000      0x1a4 /usr/local/lib64/gcc/arm-none-eabi/4.5.2/../../../../arm-none-eabi/lib/libg.a(lib_a-reent.o)
 .data          0x0000000000000000        0x0 /usr/local/lib64/gcc/arm-none-eabi/4.5.2/../../../../arm-none-eabi/lib/libg.a(lib_a-reent.o)
 .bss           0x0000000000000000        0x0 /usr/local/lib64/gcc/arm-none-eabi/4.5.2/../../../../arm-none-eabi/lib/libg.a(lib_a-reent.o)
 .data          0x0000000000000000        0x0 /usr/local/lib64/gcc/arm-none-eabi/4.5.2/../../../../arm-none-eabi/lib/libg.a(lib_a-rget.o)
 .bss           0x0000000000000000        0x0 /usr/local/lib64/gcc/arm-none-eabi/4.5.2/../../../../arm-none-eabi/lib/libg.a(lib_a-rget.o)
 .data          0x0000000000000000        0x0 /usr/local/lib64/gcc/arm-none-eabi/4.5.2/../../../../arm-none-eabi/lib/libg.a(lib_a-setbuf.o)
 .bss           0x0000000000000000        0x0 /usr/local/lib64/gcc/arm-none-eabi/4.5.2/../../../../arm-none-eabi/lib/libg.a(lib_a-setbuf.o)
 .data          0x0000000000000000        0x0 /usr/local/lib64/gcc/arm-none-eabi/4.5.2/../../../../arm-none-eabi/lib/libg.a(lib_a-setvbuf.o)
 .bss           0x0000000000000000        0x0 /usr/local/lib64/gcc/arm-none-eabi/4.5.2/../../../../arm-none-eabi/lib/libg.a(lib_a-setvbuf.o)
 .data          0x0000000000000000        0x0 /usr/local/lib64/gcc/arm-none-eabi/4.5.2/../../../../arm-none-eabi/lib/libg.a(lib_a-siscanf.o)
 .bss           0x0000000000000000        0x0 /usr/local/lib64/gcc/arm-none-eabi/4.5.2/../../../../arm-none-eabi/lib/libg.a(lib_a-siscanf.o)
 .data          0x0000000000000000        0x0 /usr/local/lib64/gcc/arm-none-eabi/4.5.2/../../../../arm-none-eabi/lib/libg.a(lib_a-stdio.o)
 .bss           0x0000000000000000        0x0 /usr/local/lib64/gcc/arm-none-eabi/4.5.2/../../../../arm-none-eabi/lib/libg.a(lib_a-stdio.o)
 .data          0x0000000000000000        0x0 /usr/local/lib64/gcc/arm-none-eabi/4.5.2/../../../../arm-none-eabi/lib/libg.a(lib_a-strlen.o)
 .bss           0x0000000000000000        0x0 /usr/local/lib64/gcc/arm-none-eabi/4.5.2/../../../../arm-none-eabi/lib/libg.a(lib_a-strlen.o)
 .data          0x0000000000000000        0x0 /usr/local/lib64/gcc/arm-none-eabi/4.5.2/../../../../arm-none-eabi/lib/libg.a(lib_a-svfiscanf.o)
 .bss           0x0000000000000000        0x0 /usr/local/lib64/gcc/arm-none-eabi/4.5.2/../../../../arm-none-eabi/lib/libg.a(lib_a-svfiscanf.o)
 .data          0x0000000000000000        0x0 /usr/local/lib64/gcc/arm-none-eabi/4.5.2/../../../../arm-none-eabi/lib/libg.a(lib_a-ungetc.o)
 .bss           0x0000000000000000        0x0 /usr/local/lib64/gcc/arm-none-eabi/4.5.2/../../../../arm-none-eabi/lib/libg.a(lib_a-ungetc.o)
 .data          0x0000000000000000        0x0 /usr/local/lib64/gcc/arm-none-eabi/4.5.2/../../../../arm-none-eabi/lib/libg.a(lib_a-vfiprintf.o)
 .bss           0x0000000000000000        0x0 /usr/local/lib64/gcc/arm-none-eabi/4.5.2/../../../../arm-none-eabi/lib/libg.a(lib_a-vfiprintf.o)
 .data          0x0000000000000000        0x0 /usr/local/lib64/gcc/arm-none-eabi/4.5.2/../../../../arm-none-eabi/lib/libg.a(lib_a-writer.o)
 .bss           0x0000000000000000        0x0 /usr/local/lib64/gcc/arm-none-eabi/4.5.2/../../../../arm-none-eabi/lib/libg.a(lib_a-writer.o)
 .data          0x0000000000000000        0x0 /usr/local/lib64/gcc/arm-none-eabi/4.5.2/../../../../arm-none-eabi/lib/libg.a(lib_a-wsetup.o)
 .bss           0x0000000000000000        0x0 /usr/local/lib64/gcc/arm-none-eabi/4.5.2/../../../../arm-none-eabi/lib/libg.a(lib_a-wsetup.o)
 .data          0x0000000000000000        0x0 /usr/local/lib64/gcc/arm-none-eabi/4.5.2/../../../../arm-none-eabi/lib/libg.a(lib_a-abort.o)
 .bss           0x0000000000000000        0x0 /usr/local/lib64/gcc/arm-none-eabi/4.5.2/../../../../arm-none-eabi/lib/libg.a(lib_a-abort.o)
 .data          0x0000000000000000        0x0 /usr/local/lib64/gcc/arm-none-eabi/4.5.2/../../../../arm-none-eabi/lib/libg.a(lib_a-closer.o)
 .bss           0x0000000000000000        0x0 /usr/local/lib64/gcc/arm-none-eabi/4.5.2/../../../../arm-none-eabi/lib/libg.a(lib_a-closer.o)
 .text          0x0000000000000000        0x0 /usr/local/lib64/gcc/arm-none-eabi/4.5.2/../../../../arm-none-eabi/lib/libg.a(lib_a-ctype_.o)
 .bss           0x0000000000000000        0x0 /usr/local/lib64/gcc/arm-none-eabi/4.5.2/../../../../arm-none-eabi/lib/libg.a(lib_a-ctype_.o)
 .data          0x0000000000000000        0x0 /usr/local/lib64/gcc/arm-none-eabi/4.5.2/../../../../arm-none-eabi/lib/libg.a(lib_a-fflush.o)
 .bss           0x0000000000000000        0x0 /usr/local/lib64/gcc/arm-none-eabi/4.5.2/../../../../arm-none-eabi/lib/libg.a(lib_a-fflush.o)
 .data          0x0000000000000000        0x0 /usr/local/lib64/gcc/arm-none-eabi/4.5.2/../../../../arm-none-eabi/lib/libg.a(lib_a-findfp.o)
 .bss           0x0000000000000000        0x0 /usr/local/lib64/gcc/arm-none-eabi/4.5.2/../../../../arm-none-eabi/lib/libg.a(lib_a-findfp.o)
 .data          0x0000000000000000        0x0 /usr/local/lib64/gcc/arm-none-eabi/4.5.2/../../../../arm-none-eabi/lib/libg.a(lib_a-fputwc.o)
 .bss           0x0000000000000000        0x0 /usr/local/lib64/gcc/arm-none-eabi/4.5.2/../../../../arm-none-eabi/lib/libg.a(lib_a-fputwc.o)
 .data          0x0000000000000000        0x0 /usr/local/lib64/gcc/arm-none-eabi/4.5.2/../../../../arm-none-eabi/lib/libg.a(lib_a-freer.o)
 .bss           0x0000000000000000        0x0 /usr/local/lib64/gcc/arm-none-eabi/4.5.2/../../../../arm-none-eabi/lib/libg.a(lib_a-freer.o)
 .data          0x0000000000000000        0x0 /usr/local/lib64/gcc/arm-none-eabi/4.5.2/../../../../arm-none-eabi/lib/libg.a(lib_a-fvwrite.o)
 .bss           0x0000000000000000        0x0 /usr/local/lib64/gcc/arm-none-eabi/4.5.2/../../../../arm-none-eabi/lib/libg.a(lib_a-fvwrite.o)
 .data          0x0000000000000000        0x0 /usr/local/lib64/gcc/arm-none-eabi/4.5.2/../../../../arm-none-eabi/lib/libg.a(lib_a-fwalk.o)
 .bss           0x0000000000000000        0x0 /usr/local/lib64/gcc/arm-none-eabi/4.5.2/../../../../arm-none-eabi/lib/libg.a(lib_a-fwalk.o)
 .data          0x0000000000000000        0x0 /usr/local/lib64/gcc/arm-none-eabi/4.5.2/../../../../arm-none-eabi/lib/libg.a(lib_a-iswspace.o)
 .bss           0x0000000000000000        0x0 /usr/local/lib64/gcc/arm-none-eabi/4.5.2/../../../../arm-none-eabi/lib/libg.a(lib_a-iswspace.o)
 .bss           0x0000000000000000        0xc /usr/local/lib64/gcc/arm-none-eabi/4.5.2/../../../../arm-none-eabi/lib/libg.a(lib_a-locale.o)
 .data          0x0000000000000000        0x0 /usr/local/lib64/gcc/arm-none-eabi/4.5.2/../../../../arm-none-eabi/lib/libg.a(lib_a-lseekr.o)
 .bss           0x0000000000000000        0x0 /usr/local/lib64/gcc/arm-none-eabi/4.5.2/../../../../arm-none-eabi/lib/libg.a(lib_a-lseekr.o)
 .data          0x0000000000000000        0x0 /usr/local/lib64/gcc/arm-none-eabi/4.5.2/../../../../arm-none-eabi/lib/libg.a(lib_a-makebuf.o)
 .bss           0x0000000000000000        0x0 /usr/local/lib64/gcc/arm-none-eabi/4.5.2/../../../../arm-none-eabi/lib/libg.a(lib_a-makebuf.o)
 .data          0x0000000000000000        0x0 /usr/local/lib64/gcc/arm-none-eabi/4.5.2/../../../../arm-none-eabi/lib/libg.a(lib_a-malloc.o)
 .bss           0x0000000000000000        0x0 /usr/local/lib64/gcc/arm-none-eabi/4.5.2/../../../../arm-none-eabi/lib/libg.a(lib_a-malloc.o)
 .data          0x0000000000000000        0x0 /usr/local/lib64/gcc/arm-none-eabi/4.5.2/../../../../arm-none-eabi/lib/libg.a(lib_a-mbrtowc.o)
 .bss           0x0000000000000000        0x0 /usr/local/lib64/gcc/arm-none-eabi/4.5.2/../../../../arm-none-eabi/lib/libg.a(lib_a-mbrtowc.o)
 .bss           0x0000000000000000        0x0 /usr/local/lib64/gcc/arm-none-eabi/4.5.2/../../../../arm-none-eabi/lib/libg.a(lib_a-mbtowc_r.o)
 .data          0x0000000000000000        0x0 /usr/local/lib64/gcc/arm-none-eabi/4.5.2/../../../../arm-none-eabi/lib/libg.a(lib_a-memchr.o)
 .bss           0x0000000000000000        0x0 /usr/local/lib64/gcc/arm-none-eabi/4.5.2/../../../../arm-none-eabi/lib/libg.a(lib_a-memchr.o)
 .data          0x0000000000000000        0x0 /usr/local/lib64/gcc/arm-none-eabi/4.5.2/../../../../arm-none-eabi/lib/libg.a(lib_a-mlock.o)
 .bss           0x0000000000000000        0x0 /usr/local/lib64/gcc/arm-none-eabi/4.5.2/../../../../arm-none-eabi/lib/libg.a(lib_a-mlock.o)
 .data          0x0000000000000000        0x0 /usr/local/lib64/gcc/arm-none-eabi/4.5.2/../../../../arm-none-eabi/lib/libg.a(lib_a-readr.o)
 .bss           0x0000000000000000        0x0 /usr/local/lib64/gcc/arm-none-eabi/4.5.2/../../../../arm-none-eabi/lib/libg.a(lib_a-readr.o)
 .data          0x0000000000000000        0x0 /usr/local/lib64/gcc/arm-none-eabi/4.5.2/../../../../arm-none-eabi/lib/libg.a(lib_a-reallocr.o)
 .bss           0x0000000000000000        0x0 /usr/local/lib64/gcc/arm-none-eabi/4.5.2/../../../../arm-none-eabi/lib/libg.a(lib_a-reallocr.o)
 .data          0x0000000000000000        0x0 /usr/local/lib64/gcc/arm-none-eabi/4.5.2/../../../../arm-none-eabi/lib/libg.a(lib_a-refill.o)
 .bss           0x0000000000000000        0x0 /usr/local/lib64/gcc/arm-none-eabi/4.5.2/../../../../arm-none-eabi/lib/libg.a(lib_a-refill.o)
 .data          0x0000000000000000        0x0 /usr/local/lib64/gcc/arm-none-eabi/4.5.2/../../../../arm-none-eabi/lib/libg.a(lib_a-sbrkr.o)
 .bss           0x0000000000000000        0x0 /usr/local/lib64/gcc/arm-none-eabi/4.5.2/../../../../arm-none-eabi/lib/libg.a(lib_a-sbrkr.o)
 .data          0x0000000000000000        0x0 /usr/local/lib64/gcc/arm-none-eabi/4.5.2/../../../../arm-none-eabi/lib/libg.a(lib_a-sccl.o)
 .bss           0x0000000000000000        0x0 /usr/local/lib64/gcc/arm-none-eabi/4.5.2/../../../../arm-none-eabi/lib/libg.a(lib_a-sccl.o)
 .data          0x0000000000000000        0x0 /usr/local/lib64/gcc/arm-none-eabi/4.5.2/../../../../arm-none-eabi/lib/libg.a(lib_a-signal.o)
 .bss           0x0000000000000000        0x0 /usr/local/lib64/gcc/arm-none-eabi/4.5.2/../../../../arm-none-eabi/lib/libg.a(lib_a-signal.o)
 .data          0x0000000000000000        0x0 /usr/local/lib64/gcc/arm-none-eabi/4.5.2/../../../../arm-none-eabi/lib/libg.a(lib_a-signalr.o)
 .bss           0x0000000000000000        0x0 /usr/local/lib64/gcc/arm-none-eabi/4.5.2/../../../../arm-none-eabi/lib/libg.a(lib_a-signalr.o)
 .data          0x0000000000000000        0x0 /usr/local/lib64/gcc/arm-none-eabi/4.5.2/../../../../arm-none-eabi/lib/libg.a(lib_a-strcmp.o)
 .bss           0x0000000000000000        0x0 /usr/local/lib64/gcc/arm-none-eabi/4.5.2/../../../../arm-none-eabi/lib/libg.a(lib_a-strcmp.o)
 .data          0x0000000000000000        0x0 /usr/local/lib64/gcc/arm-none-eabi/4.5.2/../../../../arm-none-eabi/lib/libg.a(lib_a-strtol.o)
 .bss           0x0000000000000000        0x0 /usr/local/lib64/gcc/arm-none-eabi/4.5.2/../../../../arm-none-eabi/lib/libg.a(lib_a-strtol.o)
 .data          0x0000000000000000        0x0 /usr/local/lib64/gcc/arm-none-eabi/4.5.2/../../../../arm-none-eabi/lib/libg.a(lib_a-strtoul.o)
 .bss           0x0000000000000000        0x0 /usr/local/lib64/gcc/arm-none-eabi/4.5.2/../../../../arm-none-eabi/lib/libg.a(lib_a-strtoul.o)
 .data          0x0000000000000000        0x0 /usr/local/lib64/gcc/arm-none-eabi/4.5.2/../../../../arm-none-eabi/lib/libg.a(lib_a-wbuf.o)
 .bss           0x0000000000000000        0x0 /usr/local/lib64/gcc/arm-none-eabi/4.5.2/../../../../arm-none-eabi/lib/libg.a(lib_a-wbuf.o)
 .data          0x0000000000000000        0x0 /usr/local/lib64/gcc/arm-none-eabi/4.5.2/../../../../arm-none-eabi/lib/libg.a(lib_a-wcrtomb.o)
 .bss           0x0000000000000000        0x0 /usr/local/lib64/gcc/arm-none-eabi/4.5.2/../../../../arm-none-eabi/lib/libg.a(lib_a-wcrtomb.o)
 .bss           0x0000000000000000        0x0 /usr/local/lib64/gcc/arm-none-eabi/4.5.2/../../../../arm-none-eabi/lib/libg.a(lib_a-wctomb_r.o)
 .data          0x0000000000000000        0x0 /usr/local/lib64/gcc/arm-none-eabi/4.5.2/../../../../arm-none-eabi/lib/libg.a(lib_a-fclose.o)
 .bss           0x0000000000000000        0x0 /usr/local/lib64/gcc/arm-none-eabi/4.5.2/../../../../arm-none-eabi/lib/libg.a(lib_a-fclose.o)
 .data          0x0000000000000000        0x0 /usr/local/lib64/gcc/arm-none-eabi/4.5.2/../../../../arm-none-eabi/lib/libg.a(lib_a-fstatr.o)
 .bss           0x0000000000000000        0x0 /usr/local/lib64/gcc/arm-none-eabi/4.5.2/../../../../arm-none-eabi/lib/libg.a(lib_a-fstatr.o)
 .data          0x0000000000000000        0x0 /usr/local/lib64/gcc/arm-none-eabi/4.5.2/../../../../arm-none-eabi/lib/libg.a(lib_a-isattyr.o)
 .bss           0x0000000000000000        0x0 /usr/local/lib64/gcc/arm-none-eabi/4.5.2/../../../../arm-none-eabi/lib/libg.a(lib_a-isattyr.o)
 .data          0x0000000000000000        0x0 /usr/local/lib64/gcc/arm-none-eabi/4.5.2/thumb/v7/libgcc.a(_udivsi3.o)
 .bss           0x0000000000000000        0x0 /usr/local/lib64/gcc/arm-none-eabi/4.5.2/thumb/v7/libgcc.a(_udivsi3.o)
 .data          0x0000000000000000        0x0 /usr/local/lib64/gcc/arm-none-eabi/4.5.2/thumb/v7/libgcc.a(_dvmd_tls.o)
 .bss           0x0000000000000000        0x0 /usr/local/lib64/gcc/arm-none-eabi/4.5.2/thumb/v7/libgcc.a(_dvmd_tls.o)
 .text          0x0000000000000000        0x0 /usr/local/lib64/gcc/arm-none-eabi/4.5.2/thumb/v7/crtend.o
 .data          0x0000000000000000        0x0 /usr/local/lib64/gcc/arm-none-eabi/4.5.2/thumb/v7/crtend.o
 .bss           0x0000000000000000        0x0 /usr/local/lib64/gcc/arm-none-eabi/4.5.2/thumb/v7/crtend.o
 .jcr           0x0000000000000000        0x4 /usr/local/lib64/gcc/arm-none-eabi/4.5.2/thumb/v7/crtend.o
 .text          0x0000000000000000        0x0 /usr/local/lib64/gcc/arm-none-eabi/4.5.2/thumb/v7/crtn.o
 .data          0x0000000000000000        0x0 /usr/local/lib64/gcc/arm-none-eabi/4.5.2/thumb/v7/crtn.o
 .bss           0x0000000000000000        0x0 /usr/local/lib64/gcc/arm-none-eabi/4.5.2/thumb/v7/crtn.o

Memory Configuration

Name             Origin             Length             Attributes
rom              0x0000000000400000 0x0000000000040000 xr
ram              0x0000000020000000 0x000000000000c000 xrw
*default*        0x0000000000000000 0xffffffffffffffff

Linker script and memory map

LOAD /usr/local/lib64/gcc/arm-none-eabi/4.5.2/thumb/v7/crti.o
LOAD /usr/local/lib64/gcc/arm-none-eabi/4.5.2/thumb/v7/crtbegin.o
LOAD /usr/local/lib64/gcc/arm-none-eabi/4.5.2/../../../../arm-none-eabi/lib/crt0.o
START GROUP
LOAD /usr/local/lib64/gcc/arm-none-eabi/4.5.2/thumb/v7/libgcc.a
LOAD /usr/local/lib64/gcc/arm-none-eabi/4.5.2/../../../../arm-none-eabi/lib/libc.a
END GROUP
LOAD build/obj/syscalls.o
LOAD build/obj/usb_console.o
LOAD build/obj/system.o
LOAD build/obj/uart_console.o
LOAD build/obj/led.o
LOAD build/obj/timetick.o
LOAD build/obj/startup.o
LOAD build/obj/usb_device_descriptor.o
LOAD build/obj/main.o
LOAD build/obj/input.o
LOAD libusb/lib/libusb_sam3s_rel.a
LOAD libchip/lib/libchip_sam3s4_rel.a
START GROUP
LOAD /usr/local/lib64/gcc/arm-none-eabi/4.5.2/thumb/v7/libgcc.a
LOAD /usr/local/lib64/gcc/arm-none-eabi/4.5.2/../../../../arm-none-eabi/lib/libg.a
LOAD /usr/local/lib64/gcc/arm-none-eabi/4.5.2/../../../../arm-none-eabi/lib/libc.a
END GROUP
LOAD /usr/local/lib64/gcc/arm-none-eabi/4.5.2/thumb/v7/crtend.o
LOAD /usr/local/lib64/gcc/arm-none-eabi/4.5.2/thumb/v7/crtn.o

.text           0x0000000000400000     0xa818
                0x0000000000400000                . = ALIGN (0x4)
                0x0000000000400000                _sfixed = .
 *(.vectors .vectors.*)
 .vectors       0x0000000000400000       0xd0 build/obj/startup.o
                0x0000000000400000                exception_table
 *(.text .text.* .gnu.linkonce.t.*)
 .text          0x00000000004000d0       0x30 /usr/local/lib64/gcc/arm-none-eabi/4.5.2/thumb/v7/crtbegin.o
 .text          0x0000000000400100       0xf0 /usr/local/lib64/gcc/arm-none-eabi/4.5.2/../../../../arm-none-eabi/lib/libc.a(lib_a-memset.o)
                0x0000000000400100                memset
 .text._read    0x00000000004001f0       0x54 build/obj/syscalls.o
                0x00000000004001f0                _read
 .text._write   0x0000000000400244       0x54 build/obj/syscalls.o
                0x0000000000400244                _write
 .text._sbrk    0x0000000000400298       0x5c build/obj/syscalls.o
                0x0000000000400298                _sbrk
 .text._isatty  0x00000000004002f4       0x28 build/obj/syscalls.o
                0x00000000004002f4                _isatty
 .text._exit    0x000000000040031c       0x18 build/obj/syscalls.o
                0x000000000040031c                _exit
 .text._lseek   0x0000000000400334       0x1c build/obj/syscalls.o
                0x0000000000400334                _lseek
 .text._kill    0x0000000000400350       0x28 build/obj/syscalls.o
                0x0000000000400350                _kill
 .text._getpid  0x0000000000400378       0x10 build/obj/syscalls.o
                0x0000000000400378                _getpid
 .text._close   0x0000000000400388       0x18 build/obj/syscalls.o
                0x0000000000400388                _close
 .text._fstat   0x00000000004003a0       0x24 build/obj/syscalls.o
                0x00000000004003a0                _fstat
 .text.CDCDSerialDriver_Write
                0x00000000004003c4       0x28 build/obj/usb_console.o
 .text.CDCDSerialDriver_Read
                0x00000000004003ec       0x28 build/obj/usb_console.o
 .text.NVIC_EnableIRQ
                0x0000000000400414       0x38 build/obj/usb_console.o
 .text.ISR_Vbus
                0x000000000040044c       0x60 build/obj/usb_console.o
 .text.VBus_Configure
                0x00000000004004ac       0x54 build/obj/usb_console.o
 .text.ConfigureUsbClock
                0x0000000000400500       0x40 build/obj/usb_console.o
 .text.USBDCallbacks_Initialized
                0x0000000000400540       0x10 build/obj/usb_console.o
                0x0000000000400540                USBDCallbacks_Initialized
 .text.USBDDriverCallbacks_ConfigurationChanged
                0x0000000000400550       0x1c build/obj/usb_console.o
                0x0000000000400550                USBDDriverCallbacks_ConfigurationChanged
 .text.USBDCallbacks_RequestReceived
                0x000000000040056c       0x18 build/obj/usb_console.o
                0x000000000040056c                USBDCallbacks_RequestReceived
 .text.UsbWriteDone
                0x0000000000400584       0x48 build/obj/usb_console.o
 .text.UsbReadDone
                0x00000000004005cc       0x48 build/obj/usb_console.o
 .text.USBC_isConfigured
                0x0000000000400614       0x68 build/obj/usb_console.o
                0x0000000000400614                USBC_isConfigured
 .text.USBC_hasData
                0x000000000040067c       0x20 build/obj/usb_console.o
                0x000000000040067c                USBC_hasData
 .text.USBC_Configure
                0x000000000040069c       0x3c build/obj/usb_console.o
                0x000000000040069c                USBC_Configure
 .text.USBC_StartListening
                0x00000000004006d8       0x50 build/obj/usb_console.o
                0x00000000004006d8                USBC_StartListening
 .text.USBC_Gets
                0x0000000000400728      0x100 build/obj/usb_console.o
                0x0000000000400728                USBC_Gets
 .text.USBC_Puts
                0x0000000000400828       0xb8 build/obj/usb_console.o
                0x0000000000400828                USBC_Puts
 .text.SystemCoreClockUpdate
                0x00000000004008e0       0x1c build/obj/system.o
                0x00000000004008e0                SystemCoreClockUpdate
 .text.SystemInit
                0x00000000004008fc      0x1dc build/obj/system.o
                0x00000000004008fc                SystemInit
 .text.UART_Configure
                0x0000000000400ad8       0x8c build/obj/uart_console.o
                0x0000000000400ad8                UART_Configure
 .text.UART_Put
                0x0000000000400b64       0x78 build/obj/uart_console.o
                0x0000000000400b64                UART_Put
 .text.UART_Get
                0x0000000000400bdc       0x70 build/obj/uart_console.o
                0x0000000000400bdc                UART_Get
 .text.UART_Puts
                0x0000000000400c4c       0x50 build/obj/uart_console.o
                0x0000000000400c4c                UART_Puts
 .text.UART_Gets
                0x0000000000400c9c       0x54 build/obj/uart_console.o
                0x0000000000400c9c                UART_Gets
 .text.blinkhandler
                0x0000000000400cf0       0x84 build/obj/led.o
                0x0000000000400cf0                blinkhandler
 .text.LEDs_configure
                0x0000000000400d74       0x18 build/obj/led.o
                0x0000000000400d74                LEDs_configure
 .text.LED_tgl  0x0000000000400d8c       0x90 build/obj/led.o
                0x0000000000400d8c                LED_tgl
 .text.LED_clr  0x0000000000400e1c       0x7c build/obj/led.o
                0x0000000000400e1c                LED_clr
 .text.LED_blink
                0x0000000000400e98       0x3c build/obj/led.o
                0x0000000000400e98                LED_blink
 .text.LED_blinkstop
                0x0000000000400ed4       0x28 build/obj/led.o
                0x0000000000400ed4                LED_blinkstop
 .text.LED_blinking
                0x0000000000400efc       0x28 build/obj/led.o
                0x0000000000400efc                LED_blinking
 .text.NVIC_SetPriority
                0x0000000000400f24       0x5c build/obj/timetick.o
 .text.SysTick_Config
                0x0000000000400f80       0x64 build/obj/timetick.o
 .text.SysTick_Handler
                0x0000000000400fe4       0x30 build/obj/timetick.o
                0x0000000000400fe4                SysTick_Handler
 .text.TimeTick_Configure
                0x0000000000401014       0x3c build/obj/timetick.o
                0x0000000000401014                TimeTick_Configure
 .text.GetTickCount
                0x0000000000401050       0x18 build/obj/timetick.o
                0x0000000000401050                GetTickCount
 .text.ResetException
                0x0000000000401068       0xd0 build/obj/startup.o
                0x0000000000401068                ResetException
 .text.main     0x0000000000401138      0x378 build/obj/main.o
                0x0000000000401138                main
 .text.do_press
                0x00000000004014b0       0x48 build/obj/main.o
                0x00000000004014b0                do_press
 .text.do_hold  0x00000000004014f8       0x30 build/obj/main.o
                0x00000000004014f8                do_hold
 .text.do_vent  0x0000000000401528       0x48 build/obj/main.o
                0x0000000000401528                do_vent
 .text.enter    0x0000000000401570       0xf0 build/obj/main.o
                0x0000000000401570                enter
 .text.NVIC_EnableIRQ
                0x0000000000401660       0x38 build/obj/input.o
 .text.NVIC_SetPriority
                0x0000000000401698       0x5c build/obj/input.o
 .text.TC0_IrqHandler
                0x00000000004016f4       0x2c build/obj/input.o
                0x00000000004016f4                TC0_IrqHandler
 .text.ADC_IrqHandler
                0x0000000000401720       0xfc build/obj/input.o
                0x0000000000401720                ADC_IrqHandler
 .text.input_init
                0x000000000040181c      0x120 build/obj/input.o
                0x000000000040181c                input_init
 .text.UDP_EndOfTransfer
                0x000000000040193c       0x70 libusb/lib/libusb_sam3s_rel.a(release-USBD_HAL.o)
 .text.UDP_ClearRxFlag
                0x00000000004019ac       0x80 libusb/lib/libusb_sam3s_rel.a(release-USBD_HAL.o)
 .text.UDP_WritePayload
                0x0000000000401a2c       0x44 libusb/lib/libusb_sam3s_rel.a(release-USBD_HAL.o)
 .text.UDP_EnablePeripheralClock
                0x0000000000401a70       0x20 libusb/lib/libusb_sam3s_rel.a(release-USBD_HAL.o)
 .text.UDP_MblWriteFifo
                0x0000000000401a90      0x128 libusb/lib/libusb_sam3s_rel.a(release-USBD_HAL.o)
 .text.USBD_IrqHandler
                0x0000000000401bb8      0x5f8 libusb/lib/libusb_sam3s_rel.a(release-USBD_HAL.o)
                0x0000000000401bb8                USBD_IrqHandler
 .text.USBD_HAL_ResetEPs
                0x00000000004021b0       0xc0 libusb/lib/libusb_sam3s_rel.a(release-USBD_HAL.o)
                0x00000000004021b0                USBD_HAL_ResetEPs
 .text.USBD_HAL_CancelIo
                0x0000000000402270       0x54 libusb/lib/libusb_sam3s_rel.a(release-USBD_HAL.o)
                0x0000000000402270                USBD_HAL_CancelIo
 .text.USBD_HAL_ConfigureEP
                0x00000000004022c4       0xf0 libusb/lib/libusb_sam3s_rel.a(release-USBD_HAL.o)
                0x00000000004022c4                USBD_HAL_ConfigureEP
 .text.USBD_HAL_SetTransferCallback
                0x00000000004023b4       0x20 libusb/lib/libusb_sam3s_rel.a(release-USBD_HAL.o)
                0x00000000004023b4                USBD_HAL_SetTransferCallback
 .text.USBD_HAL_Write
                0x00000000004023d4      0x188 libusb/lib/libusb_sam3s_rel.a(release-USBD_HAL.o)
                0x00000000004023d4                USBD_HAL_Write
 .text.USBD_HAL_Read
                0x000000000040255c       0x40 libusb/lib/libusb_sam3s_rel.a(release-USBD_HAL.o)
                0x000000000040255c                USBD_HAL_Read
 .text.USBD_HAL_Connect
                0x000000000040259c       0x28 libusb/lib/libusb_sam3s_rel.a(release-USBD_HAL.o)
                0x000000000040259c                USBD_HAL_Connect
 .text.USBD_HAL_Disconnect
                0x00000000004025c4       0x28 libusb/lib/libusb_sam3s_rel.a(release-USBD_HAL.o)
                0x00000000004025c4                USBD_HAL_Disconnect
 .text.USBD_HAL_SetAddress
                0x00000000004025ec       0x1c libusb/lib/libusb_sam3s_rel.a(release-USBD_HAL.o)
                0x00000000004025ec                USBD_HAL_SetAddress
 .text.USBD_HAL_SetConfiguration
                0x0000000000402608       0x18 libusb/lib/libusb_sam3s_rel.a(release-USBD_HAL.o)
                0x0000000000402608                USBD_HAL_SetConfiguration
 .text.USBD_HAL_Init
                0x0000000000402620       0x40 libusb/lib/libusb_sam3s_rel.a(release-USBD_HAL.o)
                0x0000000000402620                USBD_HAL_Init
 .text.USBD_HAL_Stall
                0x0000000000402660       0x60 libusb/lib/libusb_sam3s_rel.a(release-USBD_HAL.o)
                0x0000000000402660                USBD_HAL_Stall
 .text.USBD_HAL_Halt
                0x00000000004026c0       0xc4 libusb/lib/libusb_sam3s_rel.a(release-USBD_HAL.o)
                0x00000000004026c0                USBD_HAL_Halt
 .text.USBD_HAL_IsHighSpeed
                0x0000000000402784        0x4 libusb/lib/libusb_sam3s_rel.a(release-USBD_HAL.o)
                0x0000000000402784                USBD_HAL_IsHighSpeed
 .text.USBD_HAL_Suspend
                0x0000000000402788       0x28 libusb/lib/libusb_sam3s_rel.a(release-USBD_HAL.o)
                0x0000000000402788                USBD_HAL_Suspend
 .text.USBD_HAL_Activate
                0x00000000004027b0       0x24 libusb/lib/libusb_sam3s_rel.a(release-USBD_HAL.o)
                0x00000000004027b0                USBD_HAL_Activate
 .text.USBGenericDescriptor_GetLength
                0x00000000004027d4        0x4 libusb/lib/libusb_sam3s_rel.a(release-USBDescriptors.o)
                0x00000000004027d4                USBGenericDescriptor_GetLength
 .text.USBGenericDescriptor_GetType
                0x00000000004027d8        0x4 libusb/lib/libusb_sam3s_rel.a(release-USBDescriptors.o)
                0x00000000004027d8                USBGenericDescriptor_GetType
 .text.USBGenericDescriptor_GetNextDescriptor
                0x00000000004027dc       0x10 libusb/lib/libusb_sam3s_rel.a(release-USBDescriptors.o)
                0x00000000004027dc                USBGenericDescriptor_GetNextDescriptor
 .text.USBGenericDescriptor_Parse
                0x00000000004027ec       0x4c libusb/lib/libusb_sam3s_rel.a(release-USBDescriptors.o)
                0x00000000004027ec                USBGenericDescriptor_Parse
 .text.USBEndpointDescriptor_GetNumber
                0x0000000000402838        0x8 libusb/lib/libusb_sam3s_rel.a(release-USBDescriptors.o)
                0x0000000000402838                USBEndpointDescriptor_GetNumber
 .text.USBEndpointDescriptor_GetDirection
                0x0000000000402840        0x6 libusb/lib/libusb_sam3s_rel.a(release-USBDescriptors.o)
                0x0000000000402840                USBEndpointDescriptor_GetDirection
 .text.USBEndpointDescriptor_GetType
                0x0000000000402846        0x8 libusb/lib/libusb_sam3s_rel.a(release-USBDescriptors.o)
                0x0000000000402846                USBEndpointDescriptor_GetType
 .text.USBEndpointDescriptor_GetMaxPacketSize
                0x000000000040284e        0x4 libusb/lib/libusb_sam3s_rel.a(release-USBDescriptors.o)
                0x000000000040284e                USBEndpointDescriptor_GetMaxPacketSize
 .text.USBConfigurationDescriptor_GetTotalLength
                0x0000000000402852        0x4 libusb/lib/libusb_sam3s_rel.a(release-USBDescriptors.o)
                0x0000000000402852                USBConfigurationDescriptor_GetTotalLength
 .text.USBConfigurationDescriptor_IsSelfPowered
                0x0000000000402856        0x8 libusb/lib/libusb_sam3s_rel.a(release-USBDescriptors.o)
                0x0000000000402856                USBConfigurationDescriptor_IsSelfPowered
 *fill*         0x000000000040285e        0x2 00
 .text.USBConfigurationDescriptor_Parse
                0x0000000000402860       0x78 libusb/lib/libusb_sam3s_rel.a(release-USBDescriptors.o)
                0x0000000000402860                USBConfigurationDescriptor_Parse
 .text.USBD_SuspendHandler
                0x00000000004028d8       0x24 libusb/lib/libusb_sam3s_rel.a(release-USBD.o)
                0x00000000004028d8                USBD_SuspendHandler
 .text.USBD_ResumeHandler
                0x00000000004028fc       0x28 libusb/lib/libusb_sam3s_rel.a(release-USBD.o)
                0x00000000004028fc                USBD_ResumeHandler
 .text.USBD_RequestHandler
                0x0000000000402924       0x2c libusb/lib/libusb_sam3s_rel.a(release-USBD.o)
                0x0000000000402924                USBD_RequestHandler
 .text.USBD_ConfigureEndpoint
                0x0000000000402950        0xc libusb/lib/libusb_sam3s_rel.a(release-USBD.o)
                0x0000000000402950                USBD_ConfigureEndpoint
 .text.USBD_ResetHandler
                0x000000000040295c       0x38 libusb/lib/libusb_sam3s_rel.a(release-USBD.o)
                0x000000000040295c                USBD_ResetHandler
 .text.USBD_Write
                0x0000000000402994       0x24 libusb/lib/libusb_sam3s_rel.a(release-USBD.o)
                0x0000000000402994                USBD_Write
 .text.USBD_Read
                0x00000000004029b8       0x24 libusb/lib/libusb_sam3s_rel.a(release-USBD.o)
                0x00000000004029b8                USBD_Read
 .text.USBD_Halt
                0x00000000004029dc       0x10 libusb/lib/libusb_sam3s_rel.a(release-USBD.o)
                0x00000000004029dc                USBD_Halt
 .text.USBD_Unhalt
                0x00000000004029ec       0x10 libusb/lib/libusb_sam3s_rel.a(release-USBD.o)
                0x00000000004029ec                USBD_Unhalt
 .text.USBD_IsHighSpeed
                0x00000000004029fc        0xc libusb/lib/libusb_sam3s_rel.a(release-USBD.o)
                0x00000000004029fc                USBD_IsHighSpeed
 .text.USBD_Stall
                0x0000000000402a08        0xc libusb/lib/libusb_sam3s_rel.a(release-USBD.o)
                0x0000000000402a08                USBD_Stall
 .text.USBD_SetAddress
                0x0000000000402a14       0x20 libusb/lib/libusb_sam3s_rel.a(release-USBD.o)
                0x0000000000402a14                USBD_SetAddress
 .text.USBD_SetConfiguration
                0x0000000000402a34       0x30 libusb/lib/libusb_sam3s_rel.a(release-USBD.o)
                0x0000000000402a34                USBD_SetConfiguration
 .text.USBD_Connect
                0x0000000000402a64        0xc libusb/lib/libusb_sam3s_rel.a(release-USBD.o)
                0x0000000000402a64                USBD_Connect
 .text.USBD_Disconnect
                0x0000000000402a70       0x28 libusb/lib/libusb_sam3s_rel.a(release-USBD.o)
                0x0000000000402a70                USBD_Disconnect
 .text.USBD_Init
                0x0000000000402a98       0x24 libusb/lib/libusb_sam3s_rel.a(release-USBD.o)
                0x0000000000402a98                USBD_Init
 .text.USBD_GetState
                0x0000000000402abc        0xc libusb/lib/libusb_sam3s_rel.a(release-USBD.o)
                0x0000000000402abc                USBD_GetState
 .text.USBDCallbacks_Reset
                0x0000000000402ac8        0x2 libusb/lib/libusb_sam3s_rel.a(release-USBDCallbacks.o)
                0x0000000000402ac8                USBDCallbacks_Reset
 .text.USBDCallbacks_Suspended
                0x0000000000402aca        0x2 libusb/lib/libusb_sam3s_rel.a(release-USBDCallbacks.o)
                0x0000000000402aca                USBDCallbacks_Suspended
 .text.USBDCallbacks_Resumed
                0x0000000000402acc        0x2 libusb/lib/libusb_sam3s_rel.a(release-USBDCallbacks.o)
                0x0000000000402acc                USBDCallbacks_Resumed
 *fill*         0x0000000000402ace        0x2 00
 .text.TerminateCtrlInWithNull
                0x0000000000402ad0       0x18 libusb/lib/libusb_sam3s_rel.a(release-USBDDriver.o)
 .text.USBD_GetDriver
                0x0000000000402ae8        0x8 libusb/lib/libusb_sam3s_rel.a(release-USBDDriver.o)
                0x0000000000402ae8                USBD_GetDriver
 .text.USBDDriver_Initialize
                0x0000000000402af0        0xc libusb/lib/libusb_sam3s_rel.a(release-USBDDriver.o)
                0x0000000000402af0                USBDDriver_Initialize
 .text.USBDDriver_GetCfgDescriptors
                0x0000000000402afc       0x18 libusb/lib/libusb_sam3s_rel.a(release-USBDDriver.o)
                0x0000000000402afc                USBDDriver_GetCfgDescriptors
 .text.USBDDriver_RequestHandler
                0x0000000000402b14      0x3f0 libusb/lib/libusb_sam3s_rel.a(release-USBDDriver.o)
                0x0000000000402b14                USBDDriver_RequestHandler
 .text.CDCDSerial_Initialize
                0x0000000000402f04       0x24 libusb/lib/libusb_sam3s_rel.a(release-CDCDSerial.o)
                0x0000000000402f04                CDCDSerial_Initialize
 .text.CDCDSerial_ConfigureFunction
                0x0000000000402f28       0x18 libusb/lib/libusb_sam3s_rel.a(release-CDCDSerial.o)
                0x0000000000402f28                CDCDSerial_ConfigureFunction
 .text.CDCDSerial_RequestHandler
                0x0000000000402f40       0x14 libusb/lib/libusb_sam3s_rel.a(release-CDCDSerial.o)
                0x0000000000402f40                CDCDSerial_RequestHandler
 .text.CDCDSerial_Read
                0x0000000000402f54       0x20 libusb/lib/libusb_sam3s_rel.a(release-CDCDSerial.o)
                0x0000000000402f54                CDCDSerial_Read
 .text.CDCDSerial_Write
                0x0000000000402f74       0x20 libusb/lib/libusb_sam3s_rel.a(release-CDCDSerial.o)
                0x0000000000402f74                CDCDSerial_Write
 .text.CDCDSerial_LineCodingIsToChange
                0x0000000000402f94        0x4 libusb/lib/libusb_sam3s_rel.a(release-CDCDSerial.o)
                0x0000000000402f94                CDCDSerial_LineCodingIsToChange
 .text.CDCDSerial_ControlLineStateChanged
                0x0000000000402f98        0x2 libusb/lib/libusb_sam3s_rel.a(release-CDCDSerial.o)
                0x0000000000402f98                CDCDSerial_ControlLineStateChanged
 *fill*         0x0000000000402f9a        0x2 00
 .text.CDCDSerial_EventHandler
                0x0000000000402f9c       0x34 libusb/lib/libusb_sam3s_rel.a(release-CDCDSerial.o)
 .text.USBDDriverCallbacks_InterfaceSettingChanged
                0x0000000000402fd0        0x2 libusb/lib/libusb_sam3s_rel.a(release-USBDDriverCallbacks.o)
                0x0000000000402fd0                USBDDriverCallbacks_InterfaceSettingChanged
 *fill*         0x0000000000402fd2        0x2 00
 .text.CDCDSerialDriver_Initialize
                0x0000000000402fd4       0x30 libusb/lib/libusb_sam3s_rel.a(release-CDCDSerialDriver.o)
                0x0000000000402fd4                CDCDSerialDriver_Initialize
 .text.CDCDSerialDriver_ConfigurationChangedHandler
                0x0000000000403004       0x24 libusb/lib/libusb_sam3s_rel.a(release-CDCDSerialDriver.o)
                0x0000000000403004                CDCDSerialDriver_ConfigurationChangedHandler
 .text.CDCDSerialDriver_RequestHandler
                0x0000000000403028       0x28 libusb/lib/libusb_sam3s_rel.a(release-CDCDSerialDriver.o)
                0x0000000000403028                CDCDSerialDriver_RequestHandler
 .text.USBGenericRequest_GetType
                0x0000000000403050        0xa libusb/lib/libusb_sam3s_rel.a(release-USBRequests.o)
                0x0000000000403050                USBGenericRequest_GetType
 .text.USBGenericRequest_GetRequest
                0x000000000040305a        0x4 libusb/lib/libusb_sam3s_rel.a(release-USBRequests.o)
                0x000000000040305a                USBGenericRequest_GetRequest
 .text.USBGenericRequest_GetValue
                0x000000000040305e        0x4 libusb/lib/libusb_sam3s_rel.a(release-USBRequests.o)
                0x000000000040305e                USBGenericRequest_GetValue
 .text.USBGenericRequest_GetIndex
                0x0000000000403062        0x4 libusb/lib/libusb_sam3s_rel.a(release-USBRequests.o)
                0x0000000000403062                USBGenericRequest_GetIndex
 .text.USBGenericRequest_GetLength
                0x0000000000403066        0x4 libusb/lib/libusb_sam3s_rel.a(release-USBRequests.o)
                0x0000000000403066                USBGenericRequest_GetLength
 *fill*         0x000000000040306a        0x2 00
 .text.USBGenericRequest_GetEndpointNumber
                0x000000000040306c       0x10 libusb/lib/libusb_sam3s_rel.a(release-USBRequests.o)
                0x000000000040306c                USBGenericRequest_GetEndpointNumber
 .text.USBGenericRequest_GetRecipient
                0x000000000040307c        0x8 libusb/lib/libusb_sam3s_rel.a(release-USBRequests.o)
                0x000000000040307c                USBGenericRequest_GetRecipient
 .text.USBGenericRequest_GetDirection
                0x0000000000403084        0x6 libusb/lib/libusb_sam3s_rel.a(release-USBRequests.o)
                0x0000000000403084                USBGenericRequest_GetDirection
 *fill*         0x000000000040308a        0x2 00
 .text.USBGetDescriptorRequest_GetDescriptorType
                0x000000000040308c       0x10 libusb/lib/libusb_sam3s_rel.a(release-USBRequests.o)
                0x000000000040308c                USBGetDescriptorRequest_GetDescriptorType
 .text.USBGetDescriptorRequest_GetDescriptorIndex
                0x000000000040309c       0x10 libusb/lib/libusb_sam3s_rel.a(release-USBRequests.o)
                0x000000000040309c                USBGetDescriptorRequest_GetDescriptorIndex
 .text.USBSetAddressRequest_GetAddress
                0x00000000004030ac       0x10 libusb/lib/libusb_sam3s_rel.a(release-USBRequests.o)
                0x00000000004030ac                USBSetAddressRequest_GetAddress
 .text.USBSetConfigurationRequest_GetConfiguration
                0x00000000004030bc       0x10 libusb/lib/libusb_sam3s_rel.a(release-USBRequests.o)
                0x00000000004030bc                USBSetConfigurationRequest_GetConfiguration
 .text.USBInterfaceRequest_GetInterface
                0x00000000004030cc       0x10 libusb/lib/libusb_sam3s_rel.a(release-USBRequests.o)
                0x00000000004030cc                USBInterfaceRequest_GetInterface
 .text.USBInterfaceRequest_GetAlternateSetting
                0x00000000004030dc       0x10 libusb/lib/libusb_sam3s_rel.a(release-USBRequests.o)
                0x00000000004030dc                USBInterfaceRequest_GetAlternateSetting
 .text.USBFeatureRequest_GetFeatureSelector
                0x00000000004030ec       0x10 libusb/lib/libusb_sam3s_rel.a(release-USBRequests.o)
                0x00000000004030ec                USBFeatureRequest_GetFeatureSelector
 .text._Interfaces_Parse
                0x00000000004030fc       0xa6 libusb/lib/libusb_sam3s_rel.a(release-CDCDSerialPort.o)
 *fill*         0x00000000004031a2        0x2 00
 .text._SetLineCodingCallback
                0x00000000004031a4       0x48 libusb/lib/libusb_sam3s_rel.a(release-CDCDSerialPort.o)
 .text.CDCDSerialPort_Initialize
                0x00000000004031ec       0x34 libusb/lib/libusb_sam3s_rel.a(release-CDCDSerialPort.o)
                0x00000000004031ec                CDCDSerialPort_Initialize
 .text.CDCDSerialPort_ParseInterfaces
                0x0000000000403220       0x20 libusb/lib/libusb_sam3s_rel.a(release-CDCDSerialPort.o)
                0x0000000000403220                CDCDSerialPort_ParseInterfaces
 .text.CDCDSerialPort_RequestHandler
                0x0000000000403240       0x9c libusb/lib/libusb_sam3s_rel.a(release-CDCDSerialPort.o)
                0x0000000000403240                CDCDSerialPort_RequestHandler
 .text.CDCDSerialPort_Read
                0x00000000004032dc       0x18 libusb/lib/libusb_sam3s_rel.a(release-CDCDSerialPort.o)
                0x00000000004032dc                CDCDSerialPort_Read
 .text.CDCDSerialPort_Write
                0x00000000004032f4       0x18 libusb/lib/libusb_sam3s_rel.a(release-CDCDSerialPort.o)
                0x00000000004032f4                CDCDSerialPort_Write
 .text.CDCLineCoding_Initialize
                0x000000000040330c        0xe libusb/lib/libusb_sam3s_rel.a(release-CDCLineCoding.o)
                0x000000000040330c                CDCLineCoding_Initialize
 *fill*         0x000000000040331a        0x2 00
 .text.NVIC_SetPriority
                0x000000000040331c       0x28 libchip/lib/libchip_sam3s4_rel.a(release-pio_it.o)
 .text.PioInterruptHandler
                0x0000000000403344       0x6c libchip/lib/libchip_sam3s4_rel.a(release-pio_it.o)
                0x0000000000403344                PioInterruptHandler
 .text.PIOA_IrqHandler
                0x00000000004033b0       0x24 libchip/lib/libchip_sam3s4_rel.a(release-pio_it.o)
                0x00000000004033b0                PIOA_IrqHandler
 .text.PIOB_IrqHandler
                0x00000000004033d4       0x14 libchip/lib/libchip_sam3s4_rel.a(release-pio_it.o)
                0x00000000004033d4                PIOB_IrqHandler
 .text.PIOC_IrqHandler
                0x00000000004033e8       0x14 libchip/lib/libchip_sam3s4_rel.a(release-pio_it.o)
                0x00000000004033e8                PIOC_IrqHandler
 .text.PIO_InitializeInterrupts
                0x00000000004033fc       0x98 libchip/lib/libchip_sam3s4_rel.a(release-pio_it.o)
                0x00000000004033fc                PIO_InitializeInterrupts
 .text.PIO_ConfigureIt
                0x0000000000403494       0x84 libchip/lib/libchip_sam3s4_rel.a(release-pio_it.o)
                0x0000000000403494                PIO_ConfigureIt
 .text.PIO_EnableIt
                0x0000000000403518       0x70 libchip/lib/libchip_sam3s4_rel.a(release-pio_it.o)
                0x0000000000403518                PIO_EnableIt
 .text.IrqHandlerNotUsed
                0x0000000000403588        0x2 libchip/lib/libchip_sam3s4_rel.a(release-exceptions.o)
                0x0000000000403588                IrqHandlerNotUsed
 .text.NMI_Handler
                0x000000000040358a        0x2 libchip/lib/libchip_sam3s4_rel.a(release-exceptions.o)
                0x000000000040358a                NMI_Handler
 .text.HardFault_Handler
                0x000000000040358c        0x2 libchip/lib/libchip_sam3s4_rel.a(release-exceptions.o)
                0x000000000040358c                HardFault_Handler
 .text.MemManage_Handler
                0x000000000040358e        0x2 libchip/lib/libchip_sam3s4_rel.a(release-exceptions.o)
                0x000000000040358e                MemManage_Handler
 .text.BusFault_Handler
                0x0000000000403590        0x2 libchip/lib/libchip_sam3s4_rel.a(release-exceptions.o)
                0x0000000000403590                BusFault_Handler
 .text.UsageFault_Handler
                0x0000000000403592        0x2 libchip/lib/libchip_sam3s4_rel.a(release-exceptions.o)
                0x0000000000403592                UsageFault_Handler
 .text.SVC_Handler
                0x0000000000403594        0x2 libchip/lib/libchip_sam3s4_rel.a(release-exceptions.o)
                0x0000000000403594                SVC_Handler
 .text.DebugMon_Handler
                0x0000000000403596        0x2 libchip/lib/libchip_sam3s4_rel.a(release-exceptions.o)
                0x0000000000403596                DebugMon_Handler
 .text.PendSV_Handler
                0x0000000000403598        0x2 libchip/lib/libchip_sam3s4_rel.a(release-exceptions.o)
                0x0000000000403598                PendSV_Handler
 .text.SUPC_IrqHandler
                0x000000000040359a        0x2 libchip/lib/libchip_sam3s4_rel.a(release-exceptions.o)
                0x000000000040359a                SUPC_IrqHandler
 .text.RSTC_IrqHandler
                0x000000000040359c        0x2 libchip/lib/libchip_sam3s4_rel.a(release-exceptions.o)
                0x000000000040359c                RSTC_IrqHandler
 .text.RTC_IrqHandler
                0x000000000040359e        0x2 libchip/lib/libchip_sam3s4_rel.a(release-exceptions.o)
                0x000000000040359e                RTC_IrqHandler
 .text.RTT_IrqHandler
                0x00000000004035a0        0x2 libchip/lib/libchip_sam3s4_rel.a(release-exceptions.o)
                0x00000000004035a0                RTT_IrqHandler
 .text.WDT_IrqHandler
                0x00000000004035a2        0x2 libchip/lib/libchip_sam3s4_rel.a(release-exceptions.o)
                0x00000000004035a2                WDT_IrqHandler
 .text.PMC_IrqHandler
                0x00000000004035a4        0x2 libchip/lib/libchip_sam3s4_rel.a(release-exceptions.o)
                0x00000000004035a4                PMC_IrqHandler
 .text.EEFC_IrqHandler
                0x00000000004035a6        0x2 libchip/lib/libchip_sam3s4_rel.a(release-exceptions.o)
                0x00000000004035a6                EEFC_IrqHandler
 .text.UART0_IrqHandler
                0x00000000004035a8        0x2 libchip/lib/libchip_sam3s4_rel.a(release-exceptions.o)
                0x00000000004035a8                UART0_IrqHandler
 .text.UART1_IrqHandler
                0x00000000004035aa        0x2 libchip/lib/libchip_sam3s4_rel.a(release-exceptions.o)
                0x00000000004035aa                UART1_IrqHandler
 .text.SMC_IrqHandler
                0x00000000004035ac        0x2 libchip/lib/libchip_sam3s4_rel.a(release-exceptions.o)
                0x00000000004035ac                SMC_IrqHandler
 .text.USART0_IrqHandler
                0x00000000004035ae        0x2 libchip/lib/libchip_sam3s4_rel.a(release-exceptions.o)
                0x00000000004035ae                USART0_IrqHandler
 .text.USART1_IrqHandler
                0x00000000004035b0        0x2 libchip/lib/libchip_sam3s4_rel.a(release-exceptions.o)
                0x00000000004035b0                USART1_IrqHandler
 .text.MCI_IrqHandler
                0x00000000004035b2        0x2 libchip/lib/libchip_sam3s4_rel.a(release-exceptions.o)
                0x00000000004035b2                MCI_IrqHandler
 .text.TWI0_IrqHandler
                0x00000000004035b4        0x2 libchip/lib/libchip_sam3s4_rel.a(release-exceptions.o)
                0x00000000004035b4                TWI0_IrqHandler
 .text.TWI1_IrqHandler
                0x00000000004035b6        0x2 libchip/lib/libchip_sam3s4_rel.a(release-exceptions.o)
                0x00000000004035b6                TWI1_IrqHandler
 .text.SPI_IrqHandler
                0x00000000004035b8        0x2 libchip/lib/libchip_sam3s4_rel.a(release-exceptions.o)
                0x00000000004035b8                SPI_IrqHandler
 .text.SSC_IrqHandler
                0x00000000004035ba        0x2 libchip/lib/libchip_sam3s4_rel.a(release-exceptions.o)
                0x00000000004035ba                SSC_IrqHandler
 .text.TC1_IrqHandler
                0x00000000004035bc        0x2 libchip/lib/libchip_sam3s4_rel.a(release-exceptions.o)
                0x00000000004035bc                TC1_IrqHandler
 .text.TC2_IrqHandler
                0x00000000004035be        0x2 libchip/lib/libchip_sam3s4_rel.a(release-exceptions.o)
                0x00000000004035be                TC2_IrqHandler
 .text.TC3_IrqHandler
                0x00000000004035c0        0x2 libchip/lib/libchip_sam3s4_rel.a(release-exceptions.o)
                0x00000000004035c0                TC3_IrqHandler
 .text.TC4_IrqHandler
                0x00000000004035c2        0x2 libchip/lib/libchip_sam3s4_rel.a(release-exceptions.o)
                0x00000000004035c2                TC4_IrqHandler
 .text.TC5_IrqHandler
                0x00000000004035c4        0x2 libchip/lib/libchip_sam3s4_rel.a(release-exceptions.o)
                0x00000000004035c4                TC5_IrqHandler
 .text.DAC_IrqHandler
                0x00000000004035c6        0x2 libchip/lib/libchip_sam3s4_rel.a(release-exceptions.o)
                0x00000000004035c6                DAC_IrqHandler
 .text.PWM_IrqHandler
                0x00000000004035c8        0x2 libchip/lib/libchip_sam3s4_rel.a(release-exceptions.o)
                0x00000000004035c8                PWM_IrqHandler
 .text.CRCCU_IrqHandler
                0x00000000004035ca        0x2 libchip/lib/libchip_sam3s4_rel.a(release-exceptions.o)
                0x00000000004035ca                CRCCU_IrqHandler
 .text.ACC_IrqHandler
                0x00000000004035cc        0x2 libchip/lib/libchip_sam3s4_rel.a(release-exceptions.o)
                0x00000000004035cc                ACC_IrqHandler
 *fill*         0x00000000004035ce        0x2 00
 .text.ADC_Initialize
                0x00000000004035d0       0x1c libchip/lib/libchip_sam3s4_rel.a(release-adc.o)
                0x00000000004035d0                ADC_Initialize
 .text.ADC_cfgFrequency
                0x00000000004035ec       0x16 libchip/lib/libchip_sam3s4_rel.a(release-adc.o)
                0x00000000004035ec                ADC_cfgFrequency
 .text.ADC_ReadBuffer
                0x0000000000403602       0x34 libchip/lib/libchip_sam3s4_rel.a(release-adc.o)
                0x0000000000403602                ADC_ReadBuffer
 *fill*         0x0000000000403636        0x2 00
 .text.PIO_Configure
                0x0000000000403638      0x14c libchip/lib/libchip_sam3s4_rel.a(release-pio.o)
                0x0000000000403638                PIO_Configure
 .text.PIO_Set  0x0000000000403784        0x8 libchip/lib/libchip_sam3s4_rel.a(release-pio.o)
                0x0000000000403784                PIO_Set
 .text.PIO_Clear
                0x000000000040378c        0x8 libchip/lib/libchip_sam3s4_rel.a(release-pio.o)
                0x000000000040378c                PIO_Clear
 .text.PIO_Get  0x0000000000403794       0x1c libchip/lib/libchip_sam3s4_rel.a(release-pio.o)
                0x0000000000403794                PIO_Get
 .text.PMC_EnablePeripheral
                0x00000000004037b0       0x5c libchip/lib/libchip_sam3s4_rel.a(release-pmc.o)
                0x00000000004037b0                PMC_EnablePeripheral
 .text.PMC_DisablePeripheral
                0x000000000040380c       0x58 libchip/lib/libchip_sam3s4_rel.a(release-pmc.o)
                0x000000000040380c                PMC_DisablePeripheral
 .text.PMC_IsPeriphEnabled
                0x0000000000403864       0x4c libchip/lib/libchip_sam3s4_rel.a(release-pmc.o)
                0x0000000000403864                PMC_IsPeriphEnabled
 .text.TC_Configure
                0x00000000004038b0       0x38 libchip/lib/libchip_sam3s4_rel.a(release-tc.o)
                0x00000000004038b0                TC_Configure
 .text.TC_Start
                0x00000000004038e8       0x2c libchip/lib/libchip_sam3s4_rel.a(release-tc.o)
                0x00000000004038e8                TC_Start
 .text.TC_FindMckDivisor
                0x0000000000403914       0x70 libchip/lib/libchip_sam3s4_rel.a(release-tc.o)
                0x0000000000403914                TC_FindMckDivisor
 .text.PIO_CaptureHandler
                0x0000000000403984       0x60 libchip/lib/libchip_sam3s4_rel.a(release-pio_capture.o)
                0x0000000000403984                PIO_CaptureHandler
 .text          0x00000000004039e4       0x6c /usr/local/lib64/gcc/arm-none-eabi/4.5.2/../../../../arm-none-eabi/lib/libg.a(lib_a-assert.o)
                0x00000000004039e4                __assert_func
                0x0000000000403a40                __assert
 .text          0x0000000000403a50       0x70 /usr/local/lib64/gcc/arm-none-eabi/4.5.2/../../../../arm-none-eabi/lib/libg.a(lib_a-fiprintf.o)
                0x0000000000403a50                _fiprintf_r
                0x0000000000403a80                fiprintf
 .text          0x0000000000403ac0       0xac /usr/local/lib64/gcc/arm-none-eabi/4.5.2/../../../../arm-none-eabi/lib/libg.a(lib_a-gets.o)
                0x0000000000403ac0                _gets_r
                0x0000000000403b58                gets
 .text          0x0000000000403b6c       0x74 /usr/local/lib64/gcc/arm-none-eabi/4.5.2/../../../../arm-none-eabi/lib/libg.a(lib_a-iprintf.o)
                0x0000000000403b6c                iprintf
                0x0000000000403bac                _iprintf_r
 .text          0x0000000000403be0       0xd8 /usr/local/lib64/gcc/arm-none-eabi/4.5.2/../../../../arm-none-eabi/lib/libg.a(lib_a-memcpy.o)
                0x0000000000403be0                memcpy
 .text          0x0000000000403cb8      0x118 /usr/local/lib64/gcc/arm-none-eabi/4.5.2/../../../../arm-none-eabi/lib/libg.a(lib_a-memmove.o)
                0x0000000000403cb8                memmove
 .text          0x0000000000403dd0       0x6c /usr/local/lib64/gcc/arm-none-eabi/4.5.2/../../../../arm-none-eabi/lib/libg.a(lib_a-rget.o)
                0x0000000000403dd0                __srget_r
                0x0000000000403e28                __srget
 .text          0x0000000000403e3c       0x20 /usr/local/lib64/gcc/arm-none-eabi/4.5.2/../../../../arm-none-eabi/lib/libg.a(lib_a-setbuf.o)
                0x0000000000403e3c                setbuf
 .text          0x0000000000403e5c      0x178 /usr/local/lib64/gcc/arm-none-eabi/4.5.2/../../../../arm-none-eabi/lib/libg.a(lib_a-setvbuf.o)
                0x0000000000403e5c                setvbuf
 .text          0x0000000000403fd4      0x100 /usr/local/lib64/gcc/arm-none-eabi/4.5.2/../../../../arm-none-eabi/lib/libg.a(lib_a-siscanf.o)
                0x0000000000403fd4                siscanf
                0x0000000000404054                _siscanf_r
 .text          0x00000000004040d4       0xdc /usr/local/lib64/gcc/arm-none-eabi/4.5.2/../../../../arm-none-eabi/lib/libg.a(lib_a-stdio.o)
                0x00000000004040d4                __sread
                0x0000000000404108                __seofread
                0x0000000000404110                __swrite
                0x0000000000404168                __sseek
                0x000000000040419c                __sclose
 .text          0x00000000004041b0       0x60 /usr/local/lib64/gcc/arm-none-eabi/4.5.2/../../../../arm-none-eabi/lib/libg.a(lib_a-strlen.o)
                0x00000000004041b0                strlen
 .text          0x0000000000404210     0x1144 /usr/local/lib64/gcc/arm-none-eabi/4.5.2/../../../../arm-none-eabi/lib/libg.a(lib_a-svfiscanf.o)
                0x0000000000404210                _sungetc_r
                0x0000000000404310                __ssrefill_r
                0x000000000040437c                _sfread_r
                0x000000000040443c                __ssvfiscanf_r
 .text          0x0000000000405354      0x24c /usr/local/lib64/gcc/arm-none-eabi/4.5.2/../../../../arm-none-eabi/lib/libg.a(lib_a-ungetc.o)
                0x0000000000405354                __submore
                0x0000000000405400                _ungetc_r
                0x0000000000405584                ungetc
 .text          0x00000000004055a0     0x11b8 /usr/local/lib64/gcc/arm-none-eabi/4.5.2/../../../../arm-none-eabi/lib/libg.a(lib_a-vfiprintf.o)
                0x00000000004055a0                __sprint_r
                0x0000000000405660                _vfiprintf_r
                0x000000000040672c                vfiprintf
 .text          0x0000000000406758       0x44 /usr/local/lib64/gcc/arm-none-eabi/4.5.2/../../../../arm-none-eabi/lib/libg.a(lib_a-writer.o)
                0x0000000000406758                _write_r
 .text          0x000000000040679c      0x134 /usr/local/lib64/gcc/arm-none-eabi/4.5.2/../../../../arm-none-eabi/lib/libg.a(lib_a-wsetup.o)
                0x000000000040679c                __swsetup_r
 .text          0x00000000004068d0       0x14 /usr/local/lib64/gcc/arm-none-eabi/4.5.2/../../../../arm-none-eabi/lib/libg.a(lib_a-abort.o)
                0x00000000004068d0                abort
 .text          0x00000000004068e4       0x3c /usr/local/lib64/gcc/arm-none-eabi/4.5.2/../../../../arm-none-eabi/lib/libg.a(lib_a-closer.o)
                0x00000000004068e4                _close_r
 .text          0x0000000000406920      0x294 /usr/local/lib64/gcc/arm-none-eabi/4.5.2/../../../../arm-none-eabi/lib/libg.a(lib_a-fflush.o)
                0x0000000000406920                _fflush_r
                0x0000000000406b74                fflush
 .text          0x0000000000406bb4      0x334 /usr/local/lib64/gcc/arm-none-eabi/4.5.2/../../../../arm-none-eabi/lib/libg.a(lib_a-findfp.o)
                0x0000000000406bc4                _cleanup_r
                0x0000000000406bdc                __sfmoreglue
                0x0000000000406c24                _cleanup
                0x0000000000406c34                __sinit
                0x0000000000406d9c                __sfp
                0x0000000000406e90                __sfp_lock_acquire
                0x0000000000406e94                __sfp_lock_release
                0x0000000000406e98                __sinit_lock_acquire
                0x0000000000406e9c                __sinit_lock_release
                0x0000000000406ea0                __fp_lock_all
                0x0000000000406ec4                __fp_unlock_all
 .text          0x0000000000406ee8      0x1a8 /usr/local/lib64/gcc/arm-none-eabi/4.5.2/../../../../arm-none-eabi/lib/libg.a(lib_a-fputwc.o)
                0x0000000000406ee8                _fputwc_r
                0x0000000000407044                fputwc
 .text          0x0000000000407090      0x360 /usr/local/lib64/gcc/arm-none-eabi/4.5.2/../../../../arm-none-eabi/lib/libg.a(lib_a-freer.o)
                0x0000000000407090                _malloc_trim_r
                0x000000000040718c                _free_r
 .text          0x00000000004073f0      0x4b0 /usr/local/lib64/gcc/arm-none-eabi/4.5.2/../../../../arm-none-eabi/lib/libg.a(lib_a-fvwrite.o)
                0x00000000004073f0                __sfvwrite_r
 .text          0x00000000004078a0      0x10c /usr/local/lib64/gcc/arm-none-eabi/4.5.2/../../../../arm-none-eabi/lib/libg.a(lib_a-fwalk.o)
                0x00000000004078a0                _fwalk
                0x0000000000407924                _fwalk_reent
 .text          0x00000000004079ac       0x24 /usr/local/lib64/gcc/arm-none-eabi/4.5.2/../../../../arm-none-eabi/lib/libg.a(lib_a-iswspace.o)
                0x00000000004079ac                iswspace
 .text          0x00000000004079d0       0xd0 /usr/local/lib64/gcc/arm-none-eabi/4.5.2/../../../../arm-none-eabi/lib/libg.a(lib_a-locale.o)
                0x00000000004079d0                _setlocale_r
                0x0000000000407a3c                __locale_charset
                0x0000000000407a48                __locale_mb_cur_max
                0x0000000000407a58                __locale_msgcharset
                0x0000000000407a64                __locale_cjk_lang
                0x0000000000407a6c                _localeconv_r
                0x0000000000407a78                setlocale
                0x0000000000407a94                localeconv
 .text          0x0000000000407aa0       0x44 /usr/local/lib64/gcc/arm-none-eabi/4.5.2/../../../../arm-none-eabi/lib/libg.a(lib_a-lseekr.o)
                0x0000000000407aa0                _lseek_r
 .text          0x0000000000407ae4      0x164 /usr/local/lib64/gcc/arm-none-eabi/4.5.2/../../../../arm-none-eabi/lib/libg.a(lib_a-makebuf.o)
                0x0000000000407ae4                __smakebuf_r
 .text          0x0000000000407c48       0x40 /usr/local/lib64/gcc/arm-none-eabi/4.5.2/../../../../arm-none-eabi/lib/libg.a(lib_a-malloc.o)
                0x0000000000407c48                malloc
                0x0000000000407c68                free
 .text          0x0000000000407c88      0x70c /usr/local/lib64/gcc/arm-none-eabi/4.5.2/../../../../arm-none-eabi/lib/libg.a(lib_a-mallocr.o)
                0x0000000000407c88                _malloc_r
 .text          0x0000000000408394      0x14c /usr/local/lib64/gcc/arm-none-eabi/4.5.2/../../../../arm-none-eabi/lib/libg.a(lib_a-mbrtowc.o)
                0x0000000000408394                _mbrtowc_r
                0x0000000000408430                mbrtowc
 .text          0x00000000004084e0       0x98 /usr/local/lib64/gcc/arm-none-eabi/4.5.2/../../../../arm-none-eabi/lib/libg.a(lib_a-mbtowc_r.o)
                0x00000000004084e0                __ascii_mbtowc
                0x0000000000408524                _mbtowc_r
 .text          0x0000000000408578      0x100 /usr/local/lib64/gcc/arm-none-eabi/4.5.2/../../../../arm-none-eabi/lib/libg.a(lib_a-memchr.o)
                0x0000000000408578                memchr
 .text          0x0000000000408678        0x8 /usr/local/lib64/gcc/arm-none-eabi/4.5.2/../../../../arm-none-eabi/lib/libg.a(lib_a-mlock.o)
                0x0000000000408678                __malloc_lock
                0x000000000040867c                __malloc_unlock
 .text          0x0000000000408680       0x44 /usr/local/lib64/gcc/arm-none-eabi/4.5.2/../../../../arm-none-eabi/lib/libg.a(lib_a-readr.o)
                0x0000000000408680                _read_r
 .text          0x00000000004086c4      0x5c0 /usr/local/lib64/gcc/arm-none-eabi/4.5.2/../../../../arm-none-eabi/lib/libg.a(lib_a-reallocr.o)
                0x00000000004086c4                _realloc_r
 .text          0x0000000000408c84      0x1c4 /usr/local/lib64/gcc/arm-none-eabi/4.5.2/../../../../arm-none-eabi/lib/libg.a(lib_a-refill.o)
                0x0000000000408cac                __srefill_r
 .text          0x0000000000408e48       0x40 /usr/local/lib64/gcc/arm-none-eabi/4.5.2/../../../../arm-none-eabi/lib/libg.a(lib_a-sbrkr.o)
                0x0000000000408e48                _sbrk_r
 .text          0x0000000000408e88       0xc4 /usr/local/lib64/gcc/arm-none-eabi/4.5.2/../../../../arm-none-eabi/lib/libg.a(lib_a-sccl.o)
                0x0000000000408e88                __sccl
 .text          0x0000000000408f4c      0x238 /usr/local/lib64/gcc/arm-none-eabi/4.5.2/../../../../arm-none-eabi/lib/libg.a(lib_a-signal.o)
                0x0000000000408f4c                _init_signal_r
                0x0000000000408fa0                _signal_r
                0x0000000000409008                _raise_r
                0x000000000040909c                __sigtramp_r
                0x0000000000409130                raise
                0x0000000000409144                signal
                0x0000000000409160                _init_signal
                0x0000000000409170                __sigtramp
 .text          0x0000000000409184       0x50 /usr/local/lib64/gcc/arm-none-eabi/4.5.2/../../../../arm-none-eabi/lib/libg.a(lib_a-signalr.o)
                0x0000000000409184                _kill_r
                0x00000000004091c4                _getpid_r
 .text          0x00000000004091d4      0x230 /usr/local/lib64/gcc/arm-none-eabi/4.5.2/../../../../arm-none-eabi/lib/libg.a(lib_a-strcmp.o)
                0x00000000004091d4                strcmp
 .text          0x0000000000409404      0x1ec /usr/local/lib64/gcc/arm-none-eabi/4.5.2/../../../../arm-none-eabi/lib/libg.a(lib_a-strtol.o)
                0x0000000000409404                _strtol_r
                0x00000000004095c4                strtol
 .text          0x00000000004095f0      0x1e8 /usr/local/lib64/gcc/arm-none-eabi/4.5.2/../../../../arm-none-eabi/lib/libg.a(lib_a-strtoul.o)
                0x00000000004095f0                _strtoul_r
                0x00000000004097ac                strtoul
 .text          0x00000000004097d8      0x15c /usr/local/lib64/gcc/arm-none-eabi/4.5.2/../../../../arm-none-eabi/lib/libg.a(lib_a-wbuf.o)
                0x00000000004097d8                __swbuf_r
                0x0000000000409918                __swbuf
 .text          0x0000000000409934      0x13c /usr/local/lib64/gcc/arm-none-eabi/4.5.2/../../../../arm-none-eabi/lib/libg.a(lib_a-wcrtomb.o)
                0x0000000000409934                _wcrtomb_r
                0x00000000004099c8                wcrtomb
 .text          0x0000000000409a70       0x7c /usr/local/lib64/gcc/arm-none-eabi/4.5.2/../../../../arm-none-eabi/lib/libg.a(lib_a-wctomb_r.o)
                0x0000000000409a70                __ascii_wctomb
                0x0000000000409a9c                _wctomb_r
 .text          0x0000000000409aec      0x10c /usr/local/lib64/gcc/arm-none-eabi/4.5.2/../../../../arm-none-eabi/lib/libg.a(lib_a-fclose.o)
                0x0000000000409aec                _fclose_r
                0x0000000000409be4                fclose
 .text          0x0000000000409bf8       0x40 /usr/local/lib64/gcc/arm-none-eabi/4.5.2/../../../../arm-none-eabi/lib/libg.a(lib_a-fstatr.o)
                0x0000000000409bf8                _fstat_r
 .text          0x0000000000409c38       0x3c /usr/local/lib64/gcc/arm-none-eabi/4.5.2/../../../../arm-none-eabi/lib/libg.a(lib_a-isattyr.o)
                0x0000000000409c38                _isatty_r
 *fill*         0x0000000000409c74        0x4 00
 .text          0x0000000000409c78      0x278 /usr/local/lib64/gcc/arm-none-eabi/4.5.2/thumb/v7/libgcc.a(_udivsi3.o)
                0x0000000000409c78                __udivsi3
                0x0000000000409c78                __aeabi_uidiv
                0x0000000000409ed4                __aeabi_uidivmod
 .text          0x0000000000409ef0        0x4 /usr/local/lib64/gcc/arm-none-eabi/4.5.2/thumb/v7/libgcc.a(_dvmd_tls.o)
                0x0000000000409ef0                __aeabi_ldiv0
                0x0000000000409ef0                __aeabi_idiv0
 *(.glue_7t)
 .glue_7t       0x0000000000000000        0x0 linker stubs
 *(.glue_7)
 .glue_7        0x0000000000000000        0x0 linker stubs
 *(.rodata .rodata* .gnu.linkonce.r.*)
 .rodata        0x0000000000409ef4        0x4 /usr/local/lib64/gcc/arm-none-eabi/4.5.2/../../../../arm-none-eabi/lib/libc.a(lib_a-impure.o)
                0x0000000000409ef4                _global_impure_ptr
 .rodata.str1.4
                0x0000000000409ef8        0x2 /usr/local/lib64/gcc/arm-none-eabi/4.5.2/../../../../arm-none-eabi/lib/libc.a(lib_a-impure.o)
                                          0x4 (size before relaxing)
 *fill*         0x0000000000409efa        0x2 00
 .rodata        0x0000000000409efc       0x1c build/obj/syscalls.o
 .rodata        0x0000000000409f18      0x124 build/obj/usb_console.o
 .rodata        0x000000000040a03c        0xc build/obj/uart_console.o
 .rodata        0x000000000040a048       0x54 build/obj/led.o
 .rodata        0x000000000040a09c       0xa0 build/obj/usb_device_descriptor.o
                0x000000000040a09c                deviceDescriptor
                0x000000000040a0b0                configurationDescriptorsFS
                0x000000000040a0f4                languageIdStringDescriptor
                0x000000000040a0f8                productStringDescriptor
                0x000000000040a114                cdcdSerialDriverDescriptors
 .rodata        0x000000000040a13c      0x1ac build/obj/main.o
 .rodata        0x000000000040a2e8       0x58 build/obj/input.o
 .rodata.str1.1
                0x000000000040a340       0x69 libusb/lib/libusb_sam3s_rel.a(release-USBD_HAL.o)
                                         0x6b (size before relaxing)
 .rodata.str1.1
                0x000000000040a3a9       0x30 libusb/lib/libusb_sam3s_rel.a(release-USBD.o)
 .rodata.str1.1
                0x000000000040a3d9       0xef libusb/lib/libusb_sam3s_rel.a(release-USBDDriver.o)
 .rodata        0x000000000040a4c8       0x3f libchip/lib/libchip_sam3s4_rel.a(release-pio_it.o)
 .rodata.str1.1
                0x000000000040a507       0x67 libchip/lib/libchip_sam3s4_rel.a(release-pio_it.o)
 .rodata        0x000000000040a56e       0x3f libchip/lib/libchip_sam3s4_rel.a(release-pmc.o)
 .rodata.str1.1
                0x000000000040a5ad       0x17 libchip/lib/libchip_sam3s4_rel.a(release-pmc.o)
 .rodata        0x000000000040a5c4       0x1e libchip/lib/libchip_sam3s4_rel.a(release-tc.o)
 .rodata.str1.1
                0x000000000040a5e2       0x51 libchip/lib/libchip_sam3s4_rel.a(release-tc.o)
 *fill*         0x000000000040a633        0x1 00
 .rodata.str1.4
                0x000000000040a634       0x3f /usr/local/lib64/gcc/arm-none-eabi/4.5.2/../../../../arm-none-eabi/lib/libg.a(lib_a-assert.o)
                                         0x44 (size before relaxing)
 *fill*         0x000000000040a673        0x1 00
 .rodata        0x000000000040a674       0x24 /usr/local/lib64/gcc/arm-none-eabi/4.5.2/../../../../arm-none-eabi/lib/libg.a(lib_a-svfiscanf.o)
 .rodata        0x000000000040a698       0x20 /usr/local/lib64/gcc/arm-none-eabi/4.5.2/../../../../arm-none-eabi/lib/libg.a(lib_a-vfiprintf.o)
 .rodata.str1.4
                0x000000000040a6b8       0x2f /usr/local/lib64/gcc/arm-none-eabi/4.5.2/../../../../arm-none-eabi/lib/libg.a(lib_a-vfiprintf.o)
                                         0x30 (size before relaxing)
 *fill*         0x000000000040a6e7        0x1 00
 .rodata        0x000000000040a6e8      0x104 /usr/local/lib64/gcc/arm-none-eabi/4.5.2/../../../../arm-none-eabi/lib/libg.a(lib_a-ctype_.o)
                0x000000000040a6e8                _ctype_
 .rodata.str1.4
                0x000000000040a7ec        0xc /usr/local/lib64/gcc/arm-none-eabi/4.5.2/../../../../arm-none-eabi/lib/libg.a(lib_a-locale.o)
                                         0x14 (size before relaxing)
 .rodata.str1.4
                0x0000000000000000        0x4 /usr/local/lib64/gcc/arm-none-eabi/4.5.2/../../../../arm-none-eabi/lib/libg.a(lib_a-mbrtowc.o)
 *(.ARM.extab* .gnu.linkonce.armextab.*)
                0x000000000040a7f8                . = ALIGN (0x4)
 *(.init)
 .init          0x000000000040a7f8        0x4 /usr/local/lib64/gcc/arm-none-eabi/4.5.2/thumb/v7/crti.o
                0x000000000040a7f8                _init
 .init          0x000000000040a7fc        0x8 /usr/local/lib64/gcc/arm-none-eabi/4.5.2/thumb/v7/crtn.o
                0x000000000040a804                . = ALIGN (0x4)
                0x000000000040a804                __preinit_array_start = .
 *(.preinit_array)
                0x000000000040a804                __preinit_array_end = .
                0x000000000040a804                . = ALIGN (0x4)
                0x000000000040a804                __init_array_start = .
 *(SORT(.init_array.*))
 *(.init_array)
 .init_array    0x000000000040a804        0x4 /usr/local/lib64/gcc/arm-none-eabi/4.5.2/thumb/v7/crtbegin.o
                0x000000000040a808                __init_array_end = .
                0x000000000040a808                . = ALIGN (0x4)
 *crtbegin.o(.ctors)
 *(EXCLUDE_FILE(*crtend.o) .ctors)
 *(SORT(.ctors.*))
 *crtend.o(.ctors)
                0x000000000040a808                . = ALIGN (0x4)
 *(.fini)
 .fini          0x000000000040a808        0x4 /usr/local/lib64/gcc/arm-none-eabi/4.5.2/thumb/v7/crti.o
                0x000000000040a808                _fini
 .fini          0x000000000040a80c        0x8 /usr/local/lib64/gcc/arm-none-eabi/4.5.2/thumb/v7/crtn.o
                0x000000000040a814                . = ALIGN (0x4)
                0x000000000040a814                __fini_array_start = .
 *(.fini_array)
 .fini_array    0x000000000040a814        0x4 /usr/local/lib64/gcc/arm-none-eabi/4.5.2/thumb/v7/crtbegin.o
 *(SORT(.fini_array.*))
                0x000000000040a818                __fini_array_end = .
 *crtbegin.o(.dtors)
 *(EXCLUDE_FILE(*crtend.o) .dtors)
 *(SORT(.dtors.*))
 *crtend.o(.dtors)
                0x000000000040a818                . = ALIGN (0x4)
                0x000000000040a818                _efixed = .
                0x000000000040a818                PROVIDE (__exidx_start, .)

.jcr            0x000000000040a818        0x0
 .jcr           0x000000000040a818        0x0 /usr/local/lib64/gcc/arm-none-eabi/4.5.2/thumb/v7/crtbegin.o

.vfp11_veneer   0x000000000040a818        0x0
 .vfp11_veneer  0x0000000000000000        0x0 linker stubs

.v4_bx          0x000000000040a818        0x0
 .v4_bx         0x0000000000000000        0x0 linker stubs

.ARM.exidx
 *(.ARM.exidx* .gnu.linkonce.armexidx.*)
                0x000000000040a818                PROVIDE (__exidx_end, .)
                0x000000000040a818                . = ALIGN (0x4)
                0x000000000040a818                _etext = .

.relocate       0x0000000020000000      0x8e0 load address 0x000000000040a818
                0x0000000020000000                . = ALIGN (0x4)
                0x0000000020000000                _srelocate = .
 *(.ramfunc .ramfunc.*)
 *(.data .data.*)
 .data          0x0000000020000000      0x430 /usr/local/lib64/gcc/arm-none-eabi/4.5.2/../../../../arm-none-eabi/lib/libc.a(lib_a-impure.o)
                0x0000000020000000                _impure_ptr
 .data          0x0000000020000430        0x4 build/obj/usb_console.o
 .data          0x0000000020000434        0x4 build/obj/system.o
                0x0000000020000434                SystemCoreClock
 .data          0x0000000020000438        0x4 build/obj/uart_console.o
 .data          0x000000002000043c        0x8 build/obj/usb_device_descriptor.o
                0x000000002000043c                stringDescriptors
 .data          0x0000000020000444        0x1 build/obj/main.o
                0x0000000020000444                _state
 *fill*         0x0000000020000445        0x3 00
 .data          0x0000000020000448        0x4 /usr/local/lib64/gcc/arm-none-eabi/4.5.2/../../../../arm-none-eabi/lib/libg.a(lib_a-ctype_.o)
                0x0000000020000448                __ctype_ptr__
 .data          0x000000002000044c       0x7c /usr/local/lib64/gcc/arm-none-eabi/4.5.2/../../../../arm-none-eabi/lib/libg.a(lib_a-locale.o)
                0x000000002000046c                __mb_cur_max
 .data          0x00000000200004c8      0x410 /usr/local/lib64/gcc/arm-none-eabi/4.5.2/../../../../arm-none-eabi/lib/libg.a(lib_a-mallocr.o)
                0x00000000200004c8                __malloc_av_
                0x00000000200008d0                __malloc_sbrk_base
                0x00000000200008d4                __malloc_trim_threshold
 .data          0x00000000200008d8        0x4 /usr/local/lib64/gcc/arm-none-eabi/4.5.2/../../../../arm-none-eabi/lib/libg.a(lib_a-mbtowc_r.o)
                0x00000000200008d8                __mbtowc
 .data          0x00000000200008dc        0x4 /usr/local/lib64/gcc/arm-none-eabi/4.5.2/../../../../arm-none-eabi/lib/libg.a(lib_a-wctomb_r.o)
                0x00000000200008dc                __wctomb
                0x00000000200008e0                . = ALIGN (0x4)
                0x00000000200008e0                _erelocate = .

.bss            0x00000000200008e0      0x2d0 load address 0x000000000040b0f8
                0x00000000200008e0                . = ALIGN (0x4)
                0x00000000200008e0                _sbss = .
                0x00000000200008e0                _szero = .
 *(.bss .bss.*)
 .bss           0x00000000200008e0        0x1 /usr/local/lib64/gcc/arm-none-eabi/4.5.2/thumb/v7/crtbegin.o
 *fill*         0x00000000200008e1        0x3 00
 .bss           0x00000000200008e4        0x4 build/obj/syscalls.o
 .bss           0x00000000200008e8      0x10c build/obj/usb_console.o
 .bss           0x00000000200009f4        0x1 build/obj/uart_console.o
 *fill*         0x00000000200009f5        0x3 00
 .bss           0x00000000200009f8        0x8 build/obj/led.o
 .bss           0x0000000020000a00        0x4 build/obj/timetick.o
 .bss           0x0000000020000a04       0x1c build/obj/input.o
                0x0000000020000a0c                current
                0x0000000020000a14                previous
 .bss           0x0000000020000a20       0xe0 libusb/lib/libusb_sam3s_rel.a(release-USBD_HAL.o)
 .bss           0x0000000020000b00        0x2 libusb/lib/libusb_sam3s_rel.a(release-USBD.o)
 *fill*         0x0000000020000b02        0x2 00
 .bss           0x0000000020000b04       0x10 libusb/lib/libusb_sam3s_rel.a(release-USBDDriver.o)
 .bss           0x0000000020000b14       0x1c libusb/lib/libusb_sam3s_rel.a(release-CDCDSerial.o)
 .bss           0x0000000020000b30        0x7 libusb/lib/libusb_sam3s_rel.a(release-CDCDSerialPort.o)
 *fill*         0x0000000020000b37        0x1 00
 .bss           0x0000000020000b38       0x3c libchip/lib/libchip_sam3s4_rel.a(release-pio_it.o)
 .bss           0x0000000020000b74        0x4 libchip/lib/libchip_sam3s4_rel.a(release-pio_capture.o)
 .bss           0x0000000020000b78       0x34 /usr/local/lib64/gcc/arm-none-eabi/4.5.2/../../../../arm-none-eabi/lib/libg.a(lib_a-mallocr.o)
                0x0000000020000b78                __malloc_top_pad
                0x0000000020000b7c                __malloc_current_mallinfo
                0x0000000020000ba4                __malloc_max_sbrked_mem
                0x0000000020000ba8                __malloc_max_total_mem
 *(COMMON)
 COMMON         0x0000000020000bac        0x4 /usr/local/lib64/gcc/arm-none-eabi/4.5.2/../../../../arm-none-eabi/lib/libg.a(lib_a-reent.o)
                0x0000000020000bac                errno
                0x0000000020000bb0                . = ALIGN (0x4)
                0x0000000020000bb0                _ebss = .
                0x0000000020000bb0                _ezero = .

.stack          0x0000000020000bb0     0x1000 load address 0x000000000040b3c8
                0x0000000020000bb0                . = ALIGN (0x8)
 *(.stack .stack.*)
 .stack         0x0000000020000bb0     0x1000 build/obj/startup.o
                0x0000000020000bb0                pdwStack
                0x0000000020001bb0                . = ALIGN (0x4)
                0x0000000020001bb0                _end = .
OUTPUT(build/bin/project.elf elf32-littlearm)

.ARM.attributes
                0x0000000000000000       0x29
 .ARM.attributes
                0x0000000000000000       0x1b /usr/local/lib64/gcc/arm-none-eabi/4.5.2/thumb/v7/crti.o
 .ARM.attributes
                0x000000000000001b       0x2b /usr/local/lib64/gcc/arm-none-eabi/4.5.2/thumb/v7/crtbegin.o
 .ARM.attributes
                0x0000000000000046       0x16 /usr/local/lib64/gcc/arm-none-eabi/4.5.2/../../../../arm-none-eabi/lib/crt0.o
 .ARM.attributes
                0x000000000000005c       0x34 /usr/local/lib64/gcc/arm-none-eabi/4.5.2/../../../../arm-none-eabi/lib/libc.a(lib_a-atexit.o)
 .ARM.attributes
                0x0000000000000090       0x34 /usr/local/lib64/gcc/arm-none-eabi/4.5.2/../../../../arm-none-eabi/lib/libc.a(lib_a-__atexit.o)
 .ARM.attributes
                0x00000000000000c4       0x34 /usr/local/lib64/gcc/arm-none-eabi/4.5.2/../../../../arm-none-eabi/lib/libc.a(lib_a-exit.o)
 .ARM.attributes
                0x00000000000000f8       0x34 /usr/local/lib64/gcc/arm-none-eabi/4.5.2/../../../../arm-none-eabi/lib/libc.a(lib_a-fini.o)
 .ARM.attributes
                0x000000000000012c       0x34 /usr/local/lib64/gcc/arm-none-eabi/4.5.2/../../../../arm-none-eabi/lib/libc.a(lib_a-impure.o)
 .ARM.attributes
                0x0000000000000160       0x34 /usr/local/lib64/gcc/arm-none-eabi/4.5.2/../../../../arm-none-eabi/lib/libc.a(lib_a-init.o)
 .ARM.attributes
                0x0000000000000194       0x34 /usr/local/lib64/gcc/arm-none-eabi/4.5.2/../../../../arm-none-eabi/lib/libc.a(lib_a-memset.o)
 .ARM.attributes
                0x00000000000001c8       0x34 /usr/local/lib64/gcc/arm-none-eabi/4.5.2/../../../../arm-none-eabi/lib/libc.a(lib_a-__call_atexit.o)
 .ARM.attributes
                0x00000000000001fc       0x33 build/obj/syscalls.o
 .ARM.attributes
                0x000000000000022f       0x33 build/obj/usb_console.o
 .ARM.attributes
                0x0000000000000262       0x33 build/obj/system.o
 .ARM.attributes
                0x0000000000000295       0x33 build/obj/uart_console.o
 .ARM.attributes
                0x00000000000002c8       0x33 build/obj/led.o
 .ARM.attributes
                0x00000000000002fb       0x33 build/obj/timetick.o
 .ARM.attributes
                0x000000000000032e       0x33 build/obj/startup.o
 .ARM.attributes
                0x0000000000000361       0x33 build/obj/usb_device_descriptor.o
 .ARM.attributes
                0x0000000000000394       0x31 build/obj/main.o
 .ARM.attributes
                0x00000000000003c5       0x31 build/obj/input.o
 .ARM.attributes
                0x00000000000003f6       0x33 libusb/lib/libusb_sam3s_rel.a(release-USBD_HAL.o)
 .ARM.attributes
                0x0000000000000429       0x33 libusb/lib/libusb_sam3s_rel.a(release-USBDescriptors.o)
 .ARM.attributes
                0x000000000000045c       0x33 libusb/lib/libusb_sam3s_rel.a(release-USBD.o)
 .ARM.attributes
                0x000000000000048f       0x33 libusb/lib/libusb_sam3s_rel.a(release-USBDCallbacks.o)
 .ARM.attributes
                0x00000000000004c2       0x33 libusb/lib/libusb_sam3s_rel.a(release-USBDDriver.o)
 .ARM.attributes
                0x00000000000004f5       0x33 libusb/lib/libusb_sam3s_rel.a(release-CDCDSerial.o)
 .ARM.attributes
                0x0000000000000528       0x33 libusb/lib/libusb_sam3s_rel.a(release-USBDDriverCallbacks.o)
 .ARM.attributes
                0x000000000000055b       0x33 libusb/lib/libusb_sam3s_rel.a(release-CDCDSerialDriver.o)
 .ARM.attributes
                0x000000000000058e       0x33 libusb/lib/libusb_sam3s_rel.a(release-USBRequests.o)
 .ARM.attributes
                0x00000000000005c1       0x33 libusb/lib/libusb_sam3s_rel.a(release-CDCDSerialPort.o)
 .ARM.attributes
                0x00000000000005f4       0x33 libusb/lib/libusb_sam3s_rel.a(release-CDCLineCoding.o)
 .ARM.attributes
                0x0000000000000627       0x33 libchip/lib/libchip_sam3s4_rel.a(release-pio_it.o)
 .ARM.attributes
                0x000000000000065a       0x33 libchip/lib/libchip_sam3s4_rel.a(release-exceptions.o)
 .ARM.attributes
                0x000000000000068d       0x33 libchip/lib/libchip_sam3s4_rel.a(release-adc.o)
 .ARM.attributes
                0x00000000000006c0       0x33 libchip/lib/libchip_sam3s4_rel.a(release-pio.o)
 .ARM.attributes
                0x00000000000006f3       0x33 libchip/lib/libchip_sam3s4_rel.a(release-pmc.o)
 .ARM.attributes
                0x0000000000000726       0x33 libchip/lib/libchip_sam3s4_rel.a(release-tc.o)
 .ARM.attributes
                0x0000000000000759       0x33 libchip/lib/libchip_sam3s4_rel.a(release-pio_capture.o)
 .ARM.attributes
                0x000000000000078c       0x34 /usr/local/lib64/gcc/arm-none-eabi/4.5.2/../../../../arm-none-eabi/lib/libg.a(lib_a-assert.o)
 .ARM.attributes
                0x00000000000007c0       0x34 /usr/local/lib64/gcc/arm-none-eabi/4.5.2/../../../../arm-none-eabi/lib/libg.a(lib_a-fiprintf.o)
 .ARM.attributes
                0x00000000000007f4       0x34 /usr/local/lib64/gcc/arm-none-eabi/4.5.2/../../../../arm-none-eabi/lib/libg.a(lib_a-gets.o)
 .ARM.attributes
                0x0000000000000828       0x34 /usr/local/lib64/gcc/arm-none-eabi/4.5.2/../../../../arm-none-eabi/lib/libg.a(lib_a-iprintf.o)
 .ARM.attributes
                0x000000000000085c       0x34 /usr/local/lib64/gcc/arm-none-eabi/4.5.2/../../../../arm-none-eabi/lib/libg.a(lib_a-memcpy.o)
 .ARM.attributes
                0x0000000000000890       0x34 /usr/local/lib64/gcc/arm-none-eabi/4.5.2/../../../../arm-none-eabi/lib/libg.a(lib_a-memmove.o)
 .ARM.attributes
                0x00000000000008c4       0x34 /usr/local/lib64/gcc/arm-none-eabi/4.5.2/../../../../arm-none-eabi/lib/libg.a(lib_a-reent.o)
 .ARM.attributes
                0x00000000000008f8       0x34 /usr/local/lib64/gcc/arm-none-eabi/4.5.2/../../../../arm-none-eabi/lib/libg.a(lib_a-rget.o)
 .ARM.attributes
                0x000000000000092c       0x34 /usr/local/lib64/gcc/arm-none-eabi/4.5.2/../../../../arm-none-eabi/lib/libg.a(lib_a-setbuf.o)
 .ARM.attributes
                0x0000000000000960       0x34 /usr/local/lib64/gcc/arm-none-eabi/4.5.2/../../../../arm-none-eabi/lib/libg.a(lib_a-setvbuf.o)
 .ARM.attributes
                0x0000000000000994       0x34 /usr/local/lib64/gcc/arm-none-eabi/4.5.2/../../../../arm-none-eabi/lib/libg.a(lib_a-siscanf.o)
 .ARM.attributes
                0x00000000000009c8       0x34 /usr/local/lib64/gcc/arm-none-eabi/4.5.2/../../../../arm-none-eabi/lib/libg.a(lib_a-stdio.o)
 .ARM.attributes
                0x00000000000009fc       0x34 /usr/local/lib64/gcc/arm-none-eabi/4.5.2/../../../../arm-none-eabi/lib/libg.a(lib_a-strlen.o)
 .ARM.attributes
                0x0000000000000a30       0x34 /usr/local/lib64/gcc/arm-none-eabi/4.5.2/../../../../arm-none-eabi/lib/libg.a(lib_a-svfiscanf.o)
 .ARM.attributes
                0x0000000000000a64       0x34 /usr/local/lib64/gcc/arm-none-eabi/4.5.2/../../../../arm-none-eabi/lib/libg.a(lib_a-ungetc.o)
 .ARM.attributes
                0x0000000000000a98       0x34 /usr/local/lib64/gcc/arm-none-eabi/4.5.2/../../../../arm-none-eabi/lib/libg.a(lib_a-vfiprintf.o)
 .ARM.attributes
                0x0000000000000acc       0x34 /usr/local/lib64/gcc/arm-none-eabi/4.5.2/../../../../arm-none-eabi/lib/libg.a(lib_a-writer.o)
 .ARM.attributes
                0x0000000000000b00       0x34 /usr/local/lib64/gcc/arm-none-eabi/4.5.2/../../../../arm-none-eabi/lib/libg.a(lib_a-wsetup.o)
 .ARM.attributes
                0x0000000000000b34       0x34 /usr/local/lib64/gcc/arm-none-eabi/4.5.2/../../../../arm-none-eabi/lib/libg.a(lib_a-abort.o)
 .ARM.attributes
                0x0000000000000b68       0x34 /usr/local/lib64/gcc/arm-none-eabi/4.5.2/../../../../arm-none-eabi/lib/libg.a(lib_a-closer.o)
 .ARM.attributes
                0x0000000000000b9c       0x34 /usr/local/lib64/gcc/arm-none-eabi/4.5.2/../../../../arm-none-eabi/lib/libg.a(lib_a-ctype_.o)
 .ARM.attributes
                0x0000000000000bd0       0x34 /usr/local/lib64/gcc/arm-none-eabi/4.5.2/../../../../arm-none-eabi/lib/libg.a(lib_a-fflush.o)
 .ARM.attributes
                0x0000000000000c04       0x34 /usr/local/lib64/gcc/arm-none-eabi/4.5.2/../../../../arm-none-eabi/lib/libg.a(lib_a-findfp.o)
 .ARM.attributes
                0x0000000000000c38       0x34 /usr/local/lib64/gcc/arm-none-eabi/4.5.2/../../../../arm-none-eabi/lib/libg.a(lib_a-fputwc.o)
 .ARM.attributes
                0x0000000000000c6c       0x34 /usr/local/lib64/gcc/arm-none-eabi/4.5.2/../../../../arm-none-eabi/lib/libg.a(lib_a-freer.o)
 .ARM.attributes
                0x0000000000000ca0       0x34 /usr/local/lib64/gcc/arm-none-eabi/4.5.2/../../../../arm-none-eabi/lib/libg.a(lib_a-fvwrite.o)
 .ARM.attributes
                0x0000000000000cd4       0x34 /usr/local/lib64/gcc/arm-none-eabi/4.5.2/../../../../arm-none-eabi/lib/libg.a(lib_a-fwalk.o)
 .ARM.attributes
                0x0000000000000d08       0x34 /usr/local/lib64/gcc/arm-none-eabi/4.5.2/../../../../arm-none-eabi/lib/libg.a(lib_a-iswspace.o)
 .ARM.attributes
                0x0000000000000d3c       0x34 /usr/local/lib64/gcc/arm-none-eabi/4.5.2/../../../../arm-none-eabi/lib/libg.a(lib_a-locale.o)
 .ARM.attributes
                0x0000000000000d70       0x34 /usr/local/lib64/gcc/arm-none-eabi/4.5.2/../../../../arm-none-eabi/lib/libg.a(lib_a-lseekr.o)
 .ARM.attributes
                0x0000000000000da4       0x34 /usr/local/lib64/gcc/arm-none-eabi/4.5.2/../../../../arm-none-eabi/lib/libg.a(lib_a-makebuf.o)
 .ARM.attributes
                0x0000000000000dd8       0x34 /usr/local/lib64/gcc/arm-none-eabi/4.5.2/../../../../arm-none-eabi/lib/libg.a(lib_a-malloc.o)
 .ARM.attributes
                0x0000000000000e0c       0x34 /usr/local/lib64/gcc/arm-none-eabi/4.5.2/../../../../arm-none-eabi/lib/libg.a(lib_a-mallocr.o)
 .ARM.attributes
                0x0000000000000e40       0x34 /usr/local/lib64/gcc/arm-none-eabi/4.5.2/../../../../arm-none-eabi/lib/libg.a(lib_a-mbrtowc.o)
 .ARM.attributes
                0x0000000000000e74       0x34 /usr/local/lib64/gcc/arm-none-eabi/4.5.2/../../../../arm-none-eabi/lib/libg.a(lib_a-mbtowc_r.o)
 .ARM.attributes
                0x0000000000000ea8       0x34 /usr/local/lib64/gcc/arm-none-eabi/4.5.2/../../../../arm-none-eabi/lib/libg.a(lib_a-memchr.o)
 .ARM.attributes
                0x0000000000000edc       0x34 /usr/local/lib64/gcc/arm-none-eabi/4.5.2/../../../../arm-none-eabi/lib/libg.a(lib_a-mlock.o)
 .ARM.attributes
                0x0000000000000f10       0x34 /usr/local/lib64/gcc/arm-none-eabi/4.5.2/../../../../arm-none-eabi/lib/libg.a(lib_a-readr.o)
 .ARM.attributes
                0x0000000000000f44       0x34 /usr/local/lib64/gcc/arm-none-eabi/4.5.2/../../../../arm-none-eabi/lib/libg.a(lib_a-reallocr.o)
 .ARM.attributes
                0x0000000000000f78       0x34 /usr/local/lib64/gcc/arm-none-eabi/4.5.2/../../../../arm-none-eabi/lib/libg.a(lib_a-refill.o)
 .ARM.attributes
                0x0000000000000fac       0x34 /usr/local/lib64/gcc/arm-none-eabi/4.5.2/../../../../arm-none-eabi/lib/libg.a(lib_a-sbrkr.o)
 .ARM.attributes
                0x0000000000000fe0       0x34 /usr/local/lib64/gcc/arm-none-eabi/4.5.2/../../../../arm-none-eabi/lib/libg.a(lib_a-sccl.o)
 .ARM.attributes
                0x0000000000001014       0x34 /usr/local/lib64/gcc/arm-none-eabi/4.5.2/../../../../arm-none-eabi/lib/libg.a(lib_a-signal.o)
 .ARM.attributes
                0x0000000000001048       0x34 /usr/local/lib64/gcc/arm-none-eabi/4.5.2/../../../../arm-none-eabi/lib/libg.a(lib_a-signalr.o)
 .ARM.attributes
                0x000000000000107c       0x34 /usr/local/lib64/gcc/arm-none-eabi/4.5.2/../../../../arm-none-eabi/lib/libg.a(lib_a-strcmp.o)
 .ARM.attributes
                0x00000000000010b0       0x34 /usr/local/lib64/gcc/arm-none-eabi/4.5.2/../../../../arm-none-eabi/lib/libg.a(lib_a-strtol.o)
 .ARM.attributes
                0x00000000000010e4       0x34 /usr/local/lib64/gcc/arm-none-eabi/4.5.2/../../../../arm-none-eabi/lib/libg.a(lib_a-strtoul.o)
 .ARM.attributes
                0x0000000000001118       0x34 /usr/local/lib64/gcc/arm-none-eabi/4.5.2/../../../../arm-none-eabi/lib/libg.a(lib_a-wbuf.o)
 .ARM.attributes
                0x000000000000114c       0x34 /usr/local/lib64/gcc/arm-none-eabi/4.5.2/../../../../arm-none-eabi/lib/libg.a(lib_a-wcrtomb.o)
 .ARM.attributes
                0x0000000000001180       0x34 /usr/local/lib64/gcc/arm-none-eabi/4.5.2/../../../../arm-none-eabi/lib/libg.a(lib_a-wctomb_r.o)
 .ARM.attributes
                0x00000000000011b4       0x34 /usr/local/lib64/gcc/arm-none-eabi/4.5.2/../../../../arm-none-eabi/lib/libg.a(lib_a-fclose.o)
 .ARM.attributes
                0x00000000000011e8       0x34 /usr/local/lib64/gcc/arm-none-eabi/4.5.2/../../../../arm-none-eabi/lib/libg.a(lib_a-fstatr.o)
 .ARM.attributes
                0x000000000000121c       0x34 /usr/local/lib64/gcc/arm-none-eabi/4.5.2/../../../../arm-none-eabi/lib/libg.a(lib_a-isattyr.o)
 .ARM.attributes
                0x0000000000001250       0x1d /usr/local/lib64/gcc/arm-none-eabi/4.5.2/thumb/v7/libgcc.a(_udivsi3.o)
 .ARM.attributes
                0x000000000000126d       0x1d /usr/local/lib64/gcc/arm-none-eabi/4.5.2/thumb/v7/libgcc.a(_dvmd_tls.o)
 .ARM.attributes
                0x000000000000128a       0x2b /usr/local/lib64/gcc/arm-none-eabi/4.5.2/thumb/v7/crtend.o
 .ARM.attributes
                0x00000000000012b5       0x1b /usr/local/lib64/gcc/arm-none-eabi/4.5.2/thumb/v7/crtn.o

.comment        0x0000000000000000       0x56
 .comment       0x0000000000000000       0x26 /usr/local/lib64/gcc/arm-none-eabi/4.5.2/thumb/v7/crtbegin.o
                                         0x27 (size before relaxing)
 .comment       0x0000000000000000       0x27 /usr/local/lib64/gcc/arm-none-eabi/4.5.2/../../../../arm-none-eabi/lib/libc.a(lib_a-atexit.o)
 .comment       0x0000000000000000       0x27 /usr/local/lib64/gcc/arm-none-eabi/4.5.2/../../../../arm-none-eabi/lib/libc.a(lib_a-__atexit.o)
 .comment       0x0000000000000000       0x27 /usr/local/lib64/gcc/arm-none-eabi/4.5.2/../../../../arm-none-eabi/lib/libc.a(lib_a-exit.o)
 .comment       0x0000000000000000       0x27 /usr/local/lib64/gcc/arm-none-eabi/4.5.2/../../../../arm-none-eabi/lib/libc.a(lib_a-fini.o)
 .comment       0x0000000000000000       0x27 /usr/local/lib64/gcc/arm-none-eabi/4.5.2/../../../../arm-none-eabi/lib/libc.a(lib_a-impure.o)
 .comment       0x0000000000000000       0x27 /usr/local/lib64/gcc/arm-none-eabi/4.5.2/../../../../arm-none-eabi/lib/libc.a(lib_a-init.o)
 .comment       0x0000000000000000       0x27 /usr/local/lib64/gcc/arm-none-eabi/4.5.2/../../../../arm-none-eabi/lib/libc.a(lib_a-memset.o)
 .comment       0x0000000000000000       0x27 /usr/local/lib64/gcc/arm-none-eabi/4.5.2/../../../../arm-none-eabi/lib/libc.a(lib_a-__call_atexit.o)
 .comment       0x0000000000000026       0x30 build/obj/syscalls.o
                                         0x31 (size before relaxing)
 .comment       0x0000000000000000       0x31 build/obj/usb_console.o
 .comment       0x0000000000000000       0x31 build/obj/system.o
 .comment       0x0000000000000000       0x31 build/obj/uart_console.o
 .comment       0x0000000000000000       0x31 build/obj/led.o
 .comment       0x0000000000000000       0x31 build/obj/timetick.o
 .comment       0x0000000000000000       0x31 build/obj/startup.o
 .comment       0x0000000000000000       0x31 build/obj/usb_device_descriptor.o
 .comment       0x0000000000000000       0x27 build/obj/main.o
 .comment       0x0000000000000000       0x27 build/obj/input.o
 .comment       0x0000000000000000       0x31 libusb/lib/libusb_sam3s_rel.a(release-USBD_HAL.o)
 .comment       0x0000000000000000       0x31 libusb/lib/libusb_sam3s_rel.a(release-USBDescriptors.o)
 .comment       0x0000000000000000       0x31 libusb/lib/libusb_sam3s_rel.a(release-USBD.o)
 .comment       0x0000000000000000       0x31 libusb/lib/libusb_sam3s_rel.a(release-USBDCallbacks.o)
 .comment       0x0000000000000000       0x31 libusb/lib/libusb_sam3s_rel.a(release-USBDDriver.o)
 .comment       0x0000000000000000       0x31 libusb/lib/libusb_sam3s_rel.a(release-CDCDSerial.o)
 .comment       0x0000000000000000       0x31 libusb/lib/libusb_sam3s_rel.a(release-USBDDriverCallbacks.o)
 .comment       0x0000000000000000       0x31 libusb/lib/libusb_sam3s_rel.a(release-CDCDSerialDriver.o)
 .comment       0x0000000000000000       0x31 libusb/lib/libusb_sam3s_rel.a(release-USBRequests.o)
 .comment       0x0000000000000000       0x31 libusb/lib/libusb_sam3s_rel.a(release-CDCDSerialPort.o)
 .comment       0x0000000000000000       0x31 libusb/lib/libusb_sam3s_rel.a(release-CDCLineCoding.o)
 .comment       0x0000000000000000       0x31 libchip/lib/libchip_sam3s4_rel.a(release-pio_it.o)
 .comment       0x0000000000000000       0x31 libchip/lib/libchip_sam3s4_rel.a(release-exceptions.o)
 .comment       0x0000000000000000       0x31 libchip/lib/libchip_sam3s4_rel.a(release-adc.o)
 .comment       0x0000000000000000       0x31 libchip/lib/libchip_sam3s4_rel.a(release-pio.o)
 .comment       0x0000000000000000       0x31 libchip/lib/libchip_sam3s4_rel.a(release-pmc.o)
 .comment       0x0000000000000000       0x31 libchip/lib/libchip_sam3s4_rel.a(release-tc.o)
 .comment       0x0000000000000000       0x31 libchip/lib/libchip_sam3s4_rel.a(release-pio_capture.o)
 .comment       0x0000000000000000       0x27 /usr/local/lib64/gcc/arm-none-eabi/4.5.2/../../../../arm-none-eabi/lib/libg.a(lib_a-assert.o)
 .comment       0x0000000000000000       0x27 /usr/local/lib64/gcc/arm-none-eabi/4.5.2/../../../../arm-none-eabi/lib/libg.a(lib_a-fiprintf.o)
 .comment       0x0000000000000000       0x27 /usr/local/lib64/gcc/arm-none-eabi/4.5.2/../../../../arm-none-eabi/lib/libg.a(lib_a-gets.o)
 .comment       0x0000000000000000       0x27 /usr/local/lib64/gcc/arm-none-eabi/4.5.2/../../../../arm-none-eabi/lib/libg.a(lib_a-iprintf.o)
 .comment       0x0000000000000000       0x27 /usr/local/lib64/gcc/arm-none-eabi/4.5.2/../../../../arm-none-eabi/lib/libg.a(lib_a-memcpy.o)
 .comment       0x0000000000000000       0x27 /usr/local/lib64/gcc/arm-none-eabi/4.5.2/../../../../arm-none-eabi/lib/libg.a(lib_a-memmove.o)
 .comment       0x0000000000000000       0x27 /usr/local/lib64/gcc/arm-none-eabi/4.5.2/../../../../arm-none-eabi/lib/libg.a(lib_a-reent.o)
 .comment       0x0000000000000000       0x27 /usr/local/lib64/gcc/arm-none-eabi/4.5.2/../../../../arm-none-eabi/lib/libg.a(lib_a-rget.o)
 .comment       0x0000000000000000       0x27 /usr/local/lib64/gcc/arm-none-eabi/4.5.2/../../../../arm-none-eabi/lib/libg.a(lib_a-setbuf.o)
 .comment       0x0000000000000000       0x27 /usr/local/lib64/gcc/arm-none-eabi/4.5.2/../../../../arm-none-eabi/lib/libg.a(lib_a-setvbuf.o)
 .comment       0x0000000000000000       0x27 /usr/local/lib64/gcc/arm-none-eabi/4.5.2/../../../../arm-none-eabi/lib/libg.a(lib_a-siscanf.o)
 .comment       0x0000000000000000       0x27 /usr/local/lib64/gcc/arm-none-eabi/4.5.2/../../../../arm-none-eabi/lib/libg.a(lib_a-stdio.o)
 .comment       0x0000000000000000       0x27 /usr/local/lib64/gcc/arm-none-eabi/4.5.2/../../../../arm-none-eabi/lib/libg.a(lib_a-strlen.o)
 .comment       0x0000000000000000       0x27 /usr/local/lib64/gcc/arm-none-eabi/4.5.2/../../../../arm-none-eabi/lib/libg.a(lib_a-svfiscanf.o)
 .comment       0x0000000000000000       0x27 /usr/local/lib64/gcc/arm-none-eabi/4.5.2/../../../../arm-none-eabi/lib/libg.a(lib_a-ungetc.o)
 .comment       0x0000000000000000       0x27 /usr/local/lib64/gcc/arm-none-eabi/4.5.2/../../../../arm-none-eabi/lib/libg.a(lib_a-vfiprintf.o)
 .comment       0x0000000000000000       0x27 /usr/local/lib64/gcc/arm-none-eabi/4.5.2/../../../../arm-none-eabi/lib/libg.a(lib_a-writer.o)
 .comment       0x0000000000000000       0x27 /usr/local/lib64/gcc/arm-none-eabi/4.5.2/../../../../arm-none-eabi/lib/libg.a(lib_a-wsetup.o)
 .comment       0x0000000000000000       0x27 /usr/local/lib64/gcc/arm-none-eabi/4.5.2/../../../../arm-none-eabi/lib/libg.a(lib_a-abort.o)
 .comment       0x0000000000000000       0x27 /usr/local/lib64/gcc/arm-none-eabi/4.5.2/../../../../arm-none-eabi/lib/libg.a(lib_a-closer.o)
 .comment       0x0000000000000000       0x27 /usr/local/lib64/gcc/arm-none-eabi/4.5.2/../../../../arm-none-eabi/lib/libg.a(lib_a-ctype_.o)
 .comment       0x0000000000000000       0x27 /usr/local/lib64/gcc/arm-none-eabi/4.5.2/../../../../arm-none-eabi/lib/libg.a(lib_a-fflush.o)
 .comment       0x0000000000000000       0x27 /usr/local/lib64/gcc/arm-none-eabi/4.5.2/../../../../arm-none-eabi/lib/libg.a(lib_a-findfp.o)
 .comment       0x0000000000000000       0x27 /usr/local/lib64/gcc/arm-none-eabi/4.5.2/../../../../arm-none-eabi/lib/libg.a(lib_a-fputwc.o)
 .comment       0x0000000000000000       0x27 /usr/local/lib64/gcc/arm-none-eabi/4.5.2/../../../../arm-none-eabi/lib/libg.a(lib_a-freer.o)
 .comment       0x0000000000000000       0x27 /usr/local/lib64/gcc/arm-none-eabi/4.5.2/../../../../arm-none-eabi/lib/libg.a(lib_a-fvwrite.o)
 .comment       0x0000000000000000       0x27 /usr/local/lib64/gcc/arm-none-eabi/4.5.2/../../../../arm-none-eabi/lib/libg.a(lib_a-fwalk.o)
 .comment       0x0000000000000000       0x27 /usr/local/lib64/gcc/arm-none-eabi/4.5.2/../../../../arm-none-eabi/lib/libg.a(lib_a-iswspace.o)
 .comment       0x0000000000000000       0x27 /usr/local/lib64/gcc/arm-none-eabi/4.5.2/../../../../arm-none-eabi/lib/libg.a(lib_a-locale.o)
 .comment       0x0000000000000000       0x27 /usr/local/lib64/gcc/arm-none-eabi/4.5.2/../../../../arm-none-eabi/lib/libg.a(lib_a-lseekr.o)
 .comment       0x0000000000000000       0x27 /usr/local/lib64/gcc/arm-none-eabi/4.5.2/../../../../arm-none-eabi/lib/libg.a(lib_a-makebuf.o)
 .comment       0x0000000000000000       0x27 /usr/local/lib64/gcc/arm-none-eabi/4.5.2/../../../../arm-none-eabi/lib/libg.a(lib_a-malloc.o)
 .comment       0x0000000000000000       0x27 /usr/local/lib64/gcc/arm-none-eabi/4.5.2/../../../../arm-none-eabi/lib/libg.a(lib_a-mallocr.o)
 .comment       0x0000000000000000       0x27 /usr/local/lib64/gcc/arm-none-eabi/4.5.2/../../../../arm-none-eabi/lib/libg.a(lib_a-mbrtowc.o)
 .comment       0x0000000000000000       0x27 /usr/local/lib64/gcc/arm-none-eabi/4.5.2/../../../../arm-none-eabi/lib/libg.a(lib_a-mbtowc_r.o)
 .comment       0x0000000000000000       0x27 /usr/local/lib64/gcc/arm-none-eabi/4.5.2/../../../../arm-none-eabi/lib/libg.a(lib_a-memchr.o)
 .comment       0x0000000000000000       0x27 /usr/local/lib64/gcc/arm-none-eabi/4.5.2/../../../../arm-none-eabi/lib/libg.a(lib_a-mlock.o)
 .comment       0x0000000000000000       0x27 /usr/local/lib64/gcc/arm-none-eabi/4.5.2/../../../../arm-none-eabi/lib/libg.a(lib_a-readr.o)
 .comment       0x0000000000000000       0x27 /usr/local/lib64/gcc/arm-none-eabi/4.5.2/../../../../arm-none-eabi/lib/libg.a(lib_a-reallocr.o)
 .comment       0x0000000000000000       0x27 /usr/local/lib64/gcc/arm-none-eabi/4.5.2/../../../../arm-none-eabi/lib/libg.a(lib_a-refill.o)
 .comment       0x0000000000000000       0x27 /usr/local/lib64/gcc/arm-none-eabi/4.5.2/../../../../arm-none-eabi/lib/libg.a(lib_a-sbrkr.o)
 .comment       0x0000000000000000       0x27 /usr/local/lib64/gcc/arm-none-eabi/4.5.2/../../../../arm-none-eabi/lib/libg.a(lib_a-sccl.o)
 .comment       0x0000000000000000       0x27 /usr/local/lib64/gcc/arm-none-eabi/4.5.2/../../../../arm-none-eabi/lib/libg.a(lib_a-signal.o)
 .comment       0x0000000000000000       0x27 /usr/local/lib64/gcc/arm-none-eabi/4.5.2/../../../../arm-none-eabi/lib/libg.a(lib_a-signalr.o)
 .comment       0x0000000000000000       0x27 /usr/local/lib64/gcc/arm-none-eabi/4.5.2/../../../../arm-none-eabi/lib/libg.a(lib_a-strcmp.o)
 .comment       0x0000000000000000       0x27 /usr/local/lib64/gcc/arm-none-eabi/4.5.2/../../../../arm-none-eabi/lib/libg.a(lib_a-strtol.o)
 .comment       0x0000000000000000       0x27 /usr/local/lib64/gcc/arm-none-eabi/4.5.2/../../../../arm-none-eabi/lib/libg.a(lib_a-strtoul.o)
 .comment       0x0000000000000000       0x27 /usr/local/lib64/gcc/arm-none-eabi/4.5.2/../../../../arm-none-eabi/lib/libg.a(lib_a-wbuf.o)
 .comment       0x0000000000000000       0x27 /usr/local/lib64/gcc/arm-none-eabi/4.5.2/../../../../arm-none-eabi/lib/libg.a(lib_a-wcrtomb.o)
 .comment       0x0000000000000000       0x27 /usr/local/lib64/gcc/arm-none-eabi/4.5.2/../../../../arm-none-eabi/lib/libg.a(lib_a-wctomb_r.o)
 .comment       0x0000000000000000       0x27 /usr/local/lib64/gcc/arm-none-eabi/4.5.2/../../../../arm-none-eabi/lib/libg.a(lib_a-fclose.o)
 .comment       0x0000000000000000       0x27 /usr/local/lib64/gcc/arm-none-eabi/4.5.2/../../../../arm-none-eabi/lib/libg.a(lib_a-fstatr.o)
 .comment       0x0000000000000000       0x27 /usr/local/lib64/gcc/arm-none-eabi/4.5.2/../../../../arm-none-eabi/lib/libg.a(lib_a-isattyr.o)
 .comment       0x0000000000000000       0x27 /usr/local/lib64/gcc/arm-none-eabi/4.5.2/thumb/v7/crtend.o

.debug_line     0x0000000000000000     0xa586
 .debug_line    0x0000000000000000       0x76 /usr/local/lib64/gcc/arm-none-eabi/4.5.2/thumb/v7/crti.o
 .debug_line    0x0000000000000076       0xa9 /usr/local/lib64/gcc/arm-none-eabi/4.5.2/../../../../arm-none-eabi/lib/crt0.o
 .debug_line    0x000000000000011f       0xda /usr/local/lib64/gcc/arm-none-eabi/4.5.2/../../../../arm-none-eabi/lib/libc.a(lib_a-atexit.o)
 .debug_line    0x00000000000001f9      0x16a /usr/local/lib64/gcc/arm-none-eabi/4.5.2/../../../../arm-none-eabi/lib/libc.a(lib_a-__atexit.o)
 .debug_line    0x0000000000000363      0x17c /usr/local/lib64/gcc/arm-none-eabi/4.5.2/../../../../arm-none-eabi/lib/libc.a(lib_a-exit.o)
 .debug_line    0x00000000000004df       0xbe /usr/local/lib64/gcc/arm-none-eabi/4.5.2/../../../../arm-none-eabi/lib/libc.a(lib_a-fini.o)
 .debug_line    0x000000000000059d      0x111 /usr/local/lib64/gcc/arm-none-eabi/4.5.2/../../../../arm-none-eabi/lib/libc.a(lib_a-impure.o)
 .debug_line    0x00000000000006ae       0xdb /usr/local/lib64/gcc/arm-none-eabi/4.5.2/../../../../arm-none-eabi/lib/libc.a(lib_a-init.o)
 .debug_line    0x0000000000000789      0x169 /usr/local/lib64/gcc/arm-none-eabi/4.5.2/../../../../arm-none-eabi/lib/libc.a(lib_a-memset.o)
 .debug_line    0x00000000000008f2      0x18e /usr/local/lib64/gcc/arm-none-eabi/4.5.2/../../../../arm-none-eabi/lib/libc.a(lib_a-__call_atexit.o)
 .debug_line    0x0000000000000a80      0x1b7 build/obj/syscalls.o
 .debug_line    0x0000000000000c37      0x3de build/obj/usb_console.o
 .debug_line    0x0000000000001015      0x155 build/obj/system.o
 .debug_line    0x000000000000116a      0x180 build/obj/uart_console.o
 .debug_line    0x00000000000012ea      0x1c0 build/obj/led.o
 .debug_line    0x00000000000014aa      0x185 build/obj/timetick.o
 .debug_line    0x000000000000162f      0x105 build/obj/startup.o
 .debug_line    0x0000000000001734      0x11c build/obj/usb_device_descriptor.o
 .debug_line    0x0000000000001850      0x23a build/obj/main.o
 .debug_line    0x0000000000001a8a      0x1f9 build/obj/input.o
 .debug_line    0x0000000000001c83      0x72d libusb/lib/libusb_sam3s_rel.a(release-USBD_HAL.o)
 .debug_line    0x00000000000023b0      0x1d4 libusb/lib/libusb_sam3s_rel.a(release-USBDescriptors.o)
 .debug_line    0x0000000000002584      0x31f libusb/lib/libusb_sam3s_rel.a(release-USBD.o)
 .debug_line    0x00000000000028a3      0x10a libusb/lib/libusb_sam3s_rel.a(release-USBDCallbacks.o)
 .debug_line    0x00000000000029ad      0x313 libusb/lib/libusb_sam3s_rel.a(release-USBDDriver.o)
 .debug_line    0x0000000000002cc0      0x1f8 libusb/lib/libusb_sam3s_rel.a(release-CDCDSerial.o)
 .debug_line    0x0000000000002eb8       0xc3 libusb/lib/libusb_sam3s_rel.a(release-USBDDriverCallbacks.o)
 .debug_line    0x0000000000002f7b      0x120 libusb/lib/libusb_sam3s_rel.a(release-CDCDSerialDriver.o)
 .debug_line    0x000000000000309b      0x1ce libusb/lib/libusb_sam3s_rel.a(release-USBRequests.o)
 .debug_line    0x0000000000003269      0x25b libusb/lib/libusb_sam3s_rel.a(release-CDCDSerialPort.o)
 .debug_line    0x00000000000034c4       0xca libusb/lib/libusb_sam3s_rel.a(release-CDCLineCoding.o)
 .debug_line    0x000000000000358e      0x285 libchip/lib/libchip_sam3s4_rel.a(release-pio_it.o)
 .debug_line    0x0000000000003813      0x2e8 libchip/lib/libchip_sam3s4_rel.a(release-exceptions.o)
 .debug_line    0x0000000000003afb      0x264 libchip/lib/libchip_sam3s4_rel.a(release-adc.o)
 .debug_line    0x0000000000003d5f      0x1bf libchip/lib/libchip_sam3s4_rel.a(release-pio.o)
 .debug_line    0x0000000000003f1e      0x154 libchip/lib/libchip_sam3s4_rel.a(release-pmc.o)
 .debug_line    0x0000000000004072      0x14e libchip/lib/libchip_sam3s4_rel.a(release-tc.o)
 .debug_line    0x00000000000041c0      0x194 libchip/lib/libchip_sam3s4_rel.a(release-pio_capture.o)
 .debug_line    0x0000000000004354      0x186 /usr/local/lib64/gcc/arm-none-eabi/4.5.2/../../../../arm-none-eabi/lib/libg.a(lib_a-assert.o)
 .debug_line    0x00000000000044da      0x1a0 /usr/local/lib64/gcc/arm-none-eabi/4.5.2/../../../../arm-none-eabi/lib/libg.a(lib_a-fiprintf.o)
 .debug_line    0x000000000000467a      0x19a /usr/local/lib64/gcc/arm-none-eabi/4.5.2/../../../../arm-none-eabi/lib/libg.a(lib_a-gets.o)
 .debug_line    0x0000000000004814      0x19f /usr/local/lib64/gcc/arm-none-eabi/4.5.2/../../../../arm-none-eabi/lib/libg.a(lib_a-iprintf.o)
 .debug_line    0x00000000000049b3      0x164 /usr/local/lib64/gcc/arm-none-eabi/4.5.2/../../../../arm-none-eabi/lib/libg.a(lib_a-memcpy.o)
 .debug_line    0x0000000000004b17      0x17a /usr/local/lib64/gcc/arm-none-eabi/4.5.2/../../../../arm-none-eabi/lib/libg.a(lib_a-memmove.o)
 .debug_line    0x0000000000004c91      0x167 /usr/local/lib64/gcc/arm-none-eabi/4.5.2/../../../../arm-none-eabi/lib/libg.a(lib_a-reent.o)
 .debug_line    0x0000000000004df8      0x195 /usr/local/lib64/gcc/arm-none-eabi/4.5.2/../../../../arm-none-eabi/lib/libg.a(lib_a-rget.o)
 .debug_line    0x0000000000004f8d      0x17b /usr/local/lib64/gcc/arm-none-eabi/4.5.2/../../../../arm-none-eabi/lib/libg.a(lib_a-setbuf.o)
 .debug_line    0x0000000000005108      0x1d1 /usr/local/lib64/gcc/arm-none-eabi/4.5.2/../../../../arm-none-eabi/lib/libg.a(lib_a-setvbuf.o)
 .debug_line    0x00000000000052d9      0x1cb /usr/local/lib64/gcc/arm-none-eabi/4.5.2/../../../../arm-none-eabi/lib/libg.a(lib_a-siscanf.o)
 .debug_line    0x00000000000054a4      0x1a0 /usr/local/lib64/gcc/arm-none-eabi/4.5.2/../../../../arm-none-eabi/lib/libg.a(lib_a-stdio.o)
 .debug_line    0x0000000000005644      0x112 /usr/local/lib64/gcc/arm-none-eabi/4.5.2/../../../../arm-none-eabi/lib/libg.a(lib_a-strlen.o)
 .debug_line    0x0000000000005756      0x596 /usr/local/lib64/gcc/arm-none-eabi/4.5.2/../../../../arm-none-eabi/lib/libg.a(lib_a-svfiscanf.o)
 .debug_line    0x0000000000005cec      0x202 /usr/local/lib64/gcc/arm-none-eabi/4.5.2/../../../../arm-none-eabi/lib/libg.a(lib_a-ungetc.o)
 .debug_line    0x0000000000005eee      0x6a2 /usr/local/lib64/gcc/arm-none-eabi/4.5.2/../../../../arm-none-eabi/lib/libg.a(lib_a-vfiprintf.o)
 .debug_line    0x0000000000006590      0x188 /usr/local/lib64/gcc/arm-none-eabi/4.5.2/../../../../arm-none-eabi/lib/libg.a(lib_a-writer.o)
 .debug_line    0x0000000000006718      0x1c1 /usr/local/lib64/gcc/arm-none-eabi/4.5.2/../../../../arm-none-eabi/lib/libg.a(lib_a-wsetup.o)
 .debug_line    0x00000000000068d9       0xcb /usr/local/lib64/gcc/arm-none-eabi/4.5.2/../../../../arm-none-eabi/lib/libg.a(lib_a-abort.o)
 .debug_line    0x00000000000069a4      0x188 /usr/local/lib64/gcc/arm-none-eabi/4.5.2/../../../../arm-none-eabi/lib/libg.a(lib_a-closer.o)
 .debug_line    0x0000000000006b2c       0x73 /usr/local/lib64/gcc/arm-none-eabi/4.5.2/../../../../arm-none-eabi/lib/libg.a(lib_a-ctype_.o)
 .debug_line    0x0000000000006b9f      0x252 /usr/local/lib64/gcc/arm-none-eabi/4.5.2/../../../../arm-none-eabi/lib/libg.a(lib_a-fflush.o)
 .debug_line    0x0000000000006df1      0x24e /usr/local/lib64/gcc/arm-none-eabi/4.5.2/../../../../arm-none-eabi/lib/libg.a(lib_a-findfp.o)
 .debug_line    0x000000000000703f      0x1c0 /usr/local/lib64/gcc/arm-none-eabi/4.5.2/../../../../arm-none-eabi/lib/libg.a(lib_a-fputwc.o)
 .debug_line    0x00000000000071ff      0x1e4 /usr/local/lib64/gcc/arm-none-eabi/4.5.2/../../../../arm-none-eabi/lib/libg.a(lib_a-freer.o)
 .debug_line    0x00000000000073e3      0x285 /usr/local/lib64/gcc/arm-none-eabi/4.5.2/../../../../arm-none-eabi/lib/libg.a(lib_a-fvwrite.o)
 .debug_line    0x0000000000007668      0x19d /usr/local/lib64/gcc/arm-none-eabi/4.5.2/../../../../arm-none-eabi/lib/libg.a(lib_a-fwalk.o)
 .debug_line    0x0000000000007805      0x119 /usr/local/lib64/gcc/arm-none-eabi/4.5.2/../../../../arm-none-eabi/lib/libg.a(lib_a-iswspace.o)
 .debug_line    0x000000000000791e      0x1b1 /usr/local/lib64/gcc/arm-none-eabi/4.5.2/../../../../arm-none-eabi/lib/libg.a(lib_a-locale.o)
 .debug_line    0x0000000000007acf      0x188 /usr/local/lib64/gcc/arm-none-eabi/4.5.2/../../../../arm-none-eabi/lib/libg.a(lib_a-lseekr.o)
 .debug_line    0x0000000000007c57      0x1ee /usr/local/lib64/gcc/arm-none-eabi/4.5.2/../../../../arm-none-eabi/lib/libg.a(lib_a-makebuf.o)
 .debug_line    0x0000000000007e45      0x182 /usr/local/lib64/gcc/arm-none-eabi/4.5.2/../../../../arm-none-eabi/lib/libg.a(lib_a-malloc.o)
 .debug_line    0x0000000000007fc7      0x301 /usr/local/lib64/gcc/arm-none-eabi/4.5.2/../../../../arm-none-eabi/lib/libg.a(lib_a-mallocr.o)
 .debug_line    0x00000000000082c8      0x1af /usr/local/lib64/gcc/arm-none-eabi/4.5.2/../../../../arm-none-eabi/lib/libg.a(lib_a-mbrtowc.o)
 .debug_line    0x0000000000008477      0x1ad /usr/local/lib64/gcc/arm-none-eabi/4.5.2/../../../../arm-none-eabi/lib/libg.a(lib_a-mbtowc_r.o)
 .debug_line    0x0000000000008624      0x14f /usr/local/lib64/gcc/arm-none-eabi/4.5.2/../../../../arm-none-eabi/lib/libg.a(lib_a-memchr.o)
 .debug_line    0x0000000000008773      0x123 /usr/local/lib64/gcc/arm-none-eabi/4.5.2/../../../../arm-none-eabi/lib/libg.a(lib_a-mlock.o)
 .debug_line    0x0000000000008896      0x187 /usr/local/lib64/gcc/arm-none-eabi/4.5.2/../../../../arm-none-eabi/lib/libg.a(lib_a-readr.o)
 .debug_line    0x0000000000008a1d      0x2a9 /usr/local/lib64/gcc/arm-none-eabi/4.5.2/../../../../arm-none-eabi/lib/libg.a(lib_a-reallocr.o)
 .debug_line    0x0000000000008cc6      0x1f4 /usr/local/lib64/gcc/arm-none-eabi/4.5.2/../../../../arm-none-eabi/lib/libg.a(lib_a-refill.o)
 .debug_line    0x0000000000008eba      0x185 /usr/local/lib64/gcc/arm-none-eabi/4.5.2/../../../../arm-none-eabi/lib/libg.a(lib_a-sbrkr.o)
 .debug_line    0x000000000000903f      0x10e /usr/local/lib64/gcc/arm-none-eabi/4.5.2/../../../../arm-none-eabi/lib/libg.a(lib_a-sccl.o)
 .debug_line    0x000000000000914d      0x226 /usr/local/lib64/gcc/arm-none-eabi/4.5.2/../../../../arm-none-eabi/lib/libg.a(lib_a-signal.o)
 .debug_line    0x0000000000009373      0x18e /usr/local/lib64/gcc/arm-none-eabi/4.5.2/../../../../arm-none-eabi/lib/libg.a(lib_a-signalr.o)
 .debug_line    0x0000000000009501       0xdf /usr/local/lib64/gcc/arm-none-eabi/4.5.2/../../../../arm-none-eabi/lib/libg.a(lib_a-strcmp.o)
 .debug_line    0x00000000000095e0      0x1fe /usr/local/lib64/gcc/arm-none-eabi/4.5.2/../../../../arm-none-eabi/lib/libg.a(lib_a-strtol.o)
 .debug_line    0x00000000000097de      0x1f8 /usr/local/lib64/gcc/arm-none-eabi/4.5.2/../../../../arm-none-eabi/lib/libg.a(lib_a-strtoul.o)
 .debug_line    0x00000000000099d6      0x1da /usr/local/lib64/gcc/arm-none-eabi/4.5.2/../../../../arm-none-eabi/lib/libg.a(lib_a-wbuf.o)
 .debug_line    0x0000000000009bb0      0x1af /usr/local/lib64/gcc/arm-none-eabi/4.5.2/../../../../arm-none-eabi/lib/libg.a(lib_a-wcrtomb.o)
 .debug_line    0x0000000000009d5f      0x1a5 /usr/local/lib64/gcc/arm-none-eabi/4.5.2/../../../../arm-none-eabi/lib/libg.a(lib_a-wctomb_r.o)
 .debug_line    0x0000000000009f04      0x1c2 /usr/local/lib64/gcc/arm-none-eabi/4.5.2/../../../../arm-none-eabi/lib/libg.a(lib_a-fclose.o)
 .debug_line    0x000000000000a0c6      0x19d /usr/local/lib64/gcc/arm-none-eabi/4.5.2/../../../../arm-none-eabi/lib/libg.a(lib_a-fstatr.o)
 .debug_line    0x000000000000a263      0x189 /usr/local/lib64/gcc/arm-none-eabi/4.5.2/../../../../arm-none-eabi/lib/libg.a(lib_a-isattyr.o)
 .debug_line    0x000000000000a3ec       0xa2 /usr/local/lib64/gcc/arm-none-eabi/4.5.2/thumb/v7/libgcc.a(_udivsi3.o)
 .debug_line    0x000000000000a48e       0x7f /usr/local/lib64/gcc/arm-none-eabi/4.5.2/thumb/v7/libgcc.a(_dvmd_tls.o)
 .debug_line    0x000000000000a50d       0x79 /usr/local/lib64/gcc/arm-none-eabi/4.5.2/thumb/v7/crtn.o

.debug_info     0x0000000000000000    0x32314
 .debug_info    0x0000000000000000       0x83 /usr/local/lib64/gcc/arm-none-eabi/4.5.2/thumb/v7/crti.o
 .debug_info    0x0000000000000083       0xa0 /usr/local/lib64/gcc/arm-none-eabi/4.5.2/../../../../arm-none-eabi/lib/crt0.o
 .debug_info    0x0000000000000123       0xc2 /usr/local/lib64/gcc/arm-none-eabi/4.5.2/../../../../arm-none-eabi/lib/libc.a(lib_a-atexit.o)
 .debug_info    0x00000000000001e5      0x9ef /usr/local/lib64/gcc/arm-none-eabi/4.5.2/../../../../arm-none-eabi/lib/libc.a(lib_a-__atexit.o)
 .debug_info    0x0000000000000bd4      0x974 /usr/local/lib64/gcc/arm-none-eabi/4.5.2/../../../../arm-none-eabi/lib/libc.a(lib_a-exit.o)
 .debug_info    0x0000000000001548       0xfb /usr/local/lib64/gcc/arm-none-eabi/4.5.2/../../../../arm-none-eabi/lib/libc.a(lib_a-fini.o)
 .debug_info    0x0000000000001643      0x966 /usr/local/lib64/gcc/arm-none-eabi/4.5.2/../../../../arm-none-eabi/lib/libc.a(lib_a-impure.o)
 .debug_info    0x0000000000001fa9      0x12f /usr/local/lib64/gcc/arm-none-eabi/4.5.2/../../../../arm-none-eabi/lib/libc.a(lib_a-init.o)
 .debug_info    0x00000000000020d8      0x115 /usr/local/lib64/gcc/arm-none-eabi/4.5.2/../../../../arm-none-eabi/lib/libc.a(lib_a-memset.o)
 .debug_info    0x00000000000021ed      0x9fc /usr/local/lib64/gcc/arm-none-eabi/4.5.2/../../../../arm-none-eabi/lib/libc.a(lib_a-__call_atexit.o)
 .debug_info    0x0000000000002be9      0x4e1 build/obj/syscalls.o
 .debug_info    0x00000000000030ca     0x1b58 build/obj/usb_console.o
 .debug_info    0x0000000000004c22      0x3e9 build/obj/system.o
 .debug_info    0x000000000000500b      0xbfa build/obj/uart_console.o
 .debug_info    0x0000000000005c05      0x92f build/obj/led.o
 .debug_info    0x0000000000006534      0x649 build/obj/timetick.o
 .debug_info    0x0000000000006b7d      0x37b build/obj/startup.o
 .debug_info    0x0000000000006ef8      0x7bd build/obj/usb_device_descriptor.o
 .debug_info    0x00000000000076b5     0x1146 build/obj/main.o
 .debug_info    0x00000000000087fb     0x18c5 build/obj/input.o
 .debug_info    0x000000000000a0c0     0x2144 libusb/lib/libusb_sam3s_rel.a(release-USBD_HAL.o)
 .debug_info    0x000000000000c204      0x5c9 libusb/lib/libusb_sam3s_rel.a(release-USBDescriptors.o)
 .debug_info    0x000000000000c7cd      0xd8c libusb/lib/libusb_sam3s_rel.a(release-USBD.o)
 .debug_info    0x000000000000d559      0x181 libusb/lib/libusb_sam3s_rel.a(release-USBDCallbacks.o)
 .debug_info    0x000000000000d6da     0x13d8 libusb/lib/libusb_sam3s_rel.a(release-USBDDriver.o)
 .debug_info    0x000000000000eab2      0x9c5 libusb/lib/libusb_sam3s_rel.a(release-CDCDSerial.o)
 .debug_info    0x000000000000f477       0xd7 libusb/lib/libusb_sam3s_rel.a(release-USBDDriverCallbacks.o)
 .debug_info    0x000000000000f54e      0x563 libusb/lib/libusb_sam3s_rel.a(release-CDCDSerialDriver.o)
 .debug_info    0x000000000000fab1      0x3cd libusb/lib/libusb_sam3s_rel.a(release-USBRequests.o)
 .debug_info    0x000000000000fe7e      0xc73 libusb/lib/libusb_sam3s_rel.a(release-CDCDSerialPort.o)
 .debug_info    0x0000000000010af1      0x140 libusb/lib/libusb_sam3s_rel.a(release-CDCLineCoding.o)
 .debug_info    0x0000000000010c31      0xe46 libchip/lib/libchip_sam3s4_rel.a(release-pio_it.o)
 .debug_info    0x0000000000011a77      0x3f0 libchip/lib/libchip_sam3s4_rel.a(release-exceptions.o)
 .debug_info    0x0000000000011e67      0xaa1 libchip/lib/libchip_sam3s4_rel.a(release-adc.o)
 .debug_info    0x0000000000012908      0xa6c libchip/lib/libchip_sam3s4_rel.a(release-pio.o)
 .debug_info    0x0000000000013374      0x44d libchip/lib/libchip_sam3s4_rel.a(release-pmc.o)
 .debug_info    0x00000000000137c1      0x488 libchip/lib/libchip_sam3s4_rel.a(release-tc.o)
 .debug_info    0x0000000000013c49      0x7db libchip/lib/libchip_sam3s4_rel.a(release-pio_capture.o)
 .debug_info    0x0000000000014424      0x9df /usr/local/lib64/gcc/arm-none-eabi/4.5.2/../../../../arm-none-eabi/lib/libg.a(lib_a-assert.o)
 .debug_info    0x0000000000014e03      0xa3d /usr/local/lib64/gcc/arm-none-eabi/4.5.2/../../../../arm-none-eabi/lib/libg.a(lib_a-fiprintf.o)
 .debug_info    0x0000000000015840      0xa08 /usr/local/lib64/gcc/arm-none-eabi/4.5.2/../../../../arm-none-eabi/lib/libg.a(lib_a-gets.o)
 .debug_info    0x0000000000016248      0xa20 /usr/local/lib64/gcc/arm-none-eabi/4.5.2/../../../../arm-none-eabi/lib/libg.a(lib_a-iprintf.o)
 .debug_info    0x0000000000016c68      0x12e /usr/local/lib64/gcc/arm-none-eabi/4.5.2/../../../../arm-none-eabi/lib/libg.a(lib_a-memcpy.o)
 .debug_info    0x0000000000016d96      0x130 /usr/local/lib64/gcc/arm-none-eabi/4.5.2/../../../../arm-none-eabi/lib/libg.a(lib_a-memmove.o)
 .debug_info    0x0000000000016ec6      0xa64 /usr/local/lib64/gcc/arm-none-eabi/4.5.2/../../../../arm-none-eabi/lib/libg.a(lib_a-reent.o)
 .debug_info    0x000000000001792a      0x9be /usr/local/lib64/gcc/arm-none-eabi/4.5.2/../../../../arm-none-eabi/lib/libg.a(lib_a-rget.o)
 .debug_info    0x00000000000182e8      0x972 /usr/local/lib64/gcc/arm-none-eabi/4.5.2/../../../../arm-none-eabi/lib/libg.a(lib_a-setbuf.o)
 .debug_info    0x0000000000018c5a      0x9d5 /usr/local/lib64/gcc/arm-none-eabi/4.5.2/../../../../arm-none-eabi/lib/libg.a(lib_a-setvbuf.o)
 .debug_info    0x000000000001962f      0xa54 /usr/local/lib64/gcc/arm-none-eabi/4.5.2/../../../../arm-none-eabi/lib/libg.a(lib_a-siscanf.o)
 .debug_info    0x000000000001a083      0xb36 /usr/local/lib64/gcc/arm-none-eabi/4.5.2/../../../../arm-none-eabi/lib/libg.a(lib_a-stdio.o)
 .debug_info    0x000000000001abb9       0xb1 /usr/local/lib64/gcc/arm-none-eabi/4.5.2/../../../../arm-none-eabi/lib/libg.a(lib_a-strlen.o)
 .debug_info    0x000000000001ac6a      0xe33 /usr/local/lib64/gcc/arm-none-eabi/4.5.2/../../../../arm-none-eabi/lib/libg.a(lib_a-svfiscanf.o)
 .debug_info    0x000000000001ba9d      0xa38 /usr/local/lib64/gcc/arm-none-eabi/4.5.2/../../../../arm-none-eabi/lib/libg.a(lib_a-ungetc.o)
 .debug_info    0x000000000001c4d5      0xed9 /usr/local/lib64/gcc/arm-none-eabi/4.5.2/../../../../arm-none-eabi/lib/libg.a(lib_a-vfiprintf.o)
 .debug_info    0x000000000001d3ae      0x9d6 /usr/local/lib64/gcc/arm-none-eabi/4.5.2/../../../../arm-none-eabi/lib/libg.a(lib_a-writer.o)
 .debug_info    0x000000000001dd84      0x992 /usr/local/lib64/gcc/arm-none-eabi/4.5.2/../../../../arm-none-eabi/lib/libg.a(lib_a-wsetup.o)
 .debug_info    0x000000000001e716       0x88 /usr/local/lib64/gcc/arm-none-eabi/4.5.2/../../../../arm-none-eabi/lib/libg.a(lib_a-abort.o)
 .debug_info    0x000000000001e79e      0x99b /usr/local/lib64/gcc/arm-none-eabi/4.5.2/../../../../arm-none-eabi/lib/libg.a(lib_a-closer.o)
 .debug_info    0x000000000001f139       0x8b /usr/local/lib64/gcc/arm-none-eabi/4.5.2/../../../../arm-none-eabi/lib/libg.a(lib_a-ctype_.o)
 .debug_info    0x000000000001f1c4      0xa40 /usr/local/lib64/gcc/arm-none-eabi/4.5.2/../../../../arm-none-eabi/lib/libg.a(lib_a-fflush.o)
 .debug_info    0x000000000001fc04      0xc55 /usr/local/lib64/gcc/arm-none-eabi/4.5.2/../../../../arm-none-eabi/lib/libg.a(lib_a-findfp.o)
 .debug_info    0x0000000000020859      0xaa5 /usr/local/lib64/gcc/arm-none-eabi/4.5.2/../../../../arm-none-eabi/lib/libg.a(lib_a-fputwc.o)
 .debug_info    0x00000000000212fe      0xc40 /usr/local/lib64/gcc/arm-none-eabi/4.5.2/../../../../arm-none-eabi/lib/libg.a(lib_a-freer.o)
 .debug_info    0x0000000000021f3e      0xab3 /usr/local/lib64/gcc/arm-none-eabi/4.5.2/../../../../arm-none-eabi/lib/libg.a(lib_a-fvwrite.o)
 .debug_info    0x00000000000229f1      0xb36 /usr/local/lib64/gcc/arm-none-eabi/4.5.2/../../../../arm-none-eabi/lib/libg.a(lib_a-fwalk.o)
 .debug_info    0x0000000000023527       0xce /usr/local/lib64/gcc/arm-none-eabi/4.5.2/../../../../arm-none-eabi/lib/libg.a(lib_a-iswspace.o)
 .debug_info    0x00000000000235f5      0xc96 /usr/local/lib64/gcc/arm-none-eabi/4.5.2/../../../../arm-none-eabi/lib/libg.a(lib_a-locale.o)
 .debug_info    0x000000000002428b      0x9c4 /usr/local/lib64/gcc/arm-none-eabi/4.5.2/../../../../arm-none-eabi/lib/libg.a(lib_a-lseekr.o)
 .debug_info    0x0000000000024c4f      0xb45 /usr/local/lib64/gcc/arm-none-eabi/4.5.2/../../../../arm-none-eabi/lib/libg.a(lib_a-makebuf.o)
 .debug_info    0x0000000000025794      0x9a7 /usr/local/lib64/gcc/arm-none-eabi/4.5.2/../../../../arm-none-eabi/lib/libg.a(lib_a-malloc.o)
 .debug_info    0x000000000002613b      0xd6b /usr/local/lib64/gcc/arm-none-eabi/4.5.2/../../../../arm-none-eabi/lib/libg.a(lib_a-mallocr.o)
 .debug_info    0x0000000000026ea6      0xa93 /usr/local/lib64/gcc/arm-none-eabi/4.5.2/../../../../arm-none-eabi/lib/libg.a(lib_a-mbrtowc.o)
 .debug_info    0x0000000000027939      0xa91 /usr/local/lib64/gcc/arm-none-eabi/4.5.2/../../../../arm-none-eabi/lib/libg.a(lib_a-mbtowc_r.o)
 .debug_info    0x00000000000283ca      0x123 /usr/local/lib64/gcc/arm-none-eabi/4.5.2/../../../../arm-none-eabi/lib/libg.a(lib_a-memchr.o)
 .debug_info    0x00000000000284ed      0x980 /usr/local/lib64/gcc/arm-none-eabi/4.5.2/../../../../arm-none-eabi/lib/libg.a(lib_a-mlock.o)
 .debug_info    0x0000000000028e6d      0x9cf /usr/local/lib64/gcc/arm-none-eabi/4.5.2/../../../../arm-none-eabi/lib/libg.a(lib_a-readr.o)
 .debug_info    0x000000000002983c      0xc10 /usr/local/lib64/gcc/arm-none-eabi/4.5.2/../../../../arm-none-eabi/lib/libg.a(lib_a-reallocr.o)
 .debug_info    0x000000000002a44c      0x9c2 /usr/local/lib64/gcc/arm-none-eabi/4.5.2/../../../../arm-none-eabi/lib/libg.a(lib_a-refill.o)
 .debug_info    0x000000000002ae0e      0x9ac /usr/local/lib64/gcc/arm-none-eabi/4.5.2/../../../../arm-none-eabi/lib/libg.a(lib_a-sbrkr.o)
 .debug_info    0x000000000002b7ba       0xf8 /usr/local/lib64/gcc/arm-none-eabi/4.5.2/../../../../arm-none-eabi/lib/libg.a(lib_a-sccl.o)
 .debug_info    0x000000000002b8b2      0xb22 /usr/local/lib64/gcc/arm-none-eabi/4.5.2/../../../../arm-none-eabi/lib/libg.a(lib_a-signal.o)
 .debug_info    0x000000000002c3d4      0x9f2 /usr/local/lib64/gcc/arm-none-eabi/4.5.2/../../../../arm-none-eabi/lib/libg.a(lib_a-signalr.o)
 .debug_info    0x000000000002cdc6       0xe7 /usr/local/lib64/gcc/arm-none-eabi/4.5.2/../../../../arm-none-eabi/lib/libg.a(lib_a-strcmp.o)
 .debug_info    0x000000000002cead      0xa79 /usr/local/lib64/gcc/arm-none-eabi/4.5.2/../../../../arm-none-eabi/lib/libg.a(lib_a-strtol.o)
 .debug_info    0x000000000002d926      0xa79 /usr/local/lib64/gcc/arm-none-eabi/4.5.2/../../../../arm-none-eabi/lib/libg.a(lib_a-strtoul.o)
 .debug_info    0x000000000002e39f      0x9e5 /usr/local/lib64/gcc/arm-none-eabi/4.5.2/../../../../arm-none-eabi/lib/libg.a(lib_a-wbuf.o)
 .debug_info    0x000000000002ed84      0xa99 /usr/local/lib64/gcc/arm-none-eabi/4.5.2/../../../../arm-none-eabi/lib/libg.a(lib_a-wcrtomb.o)
 .debug_info    0x000000000002f81d      0xa5d /usr/local/lib64/gcc/arm-none-eabi/4.5.2/../../../../arm-none-eabi/lib/libg.a(lib_a-wctomb_r.o)
 .debug_info    0x000000000003027a      0x9cb /usr/local/lib64/gcc/arm-none-eabi/4.5.2/../../../../arm-none-eabi/lib/libg.a(lib_a-fclose.o)
 .debug_info    0x0000000000030c45      0xb3f /usr/local/lib64/gcc/arm-none-eabi/4.5.2/../../../../arm-none-eabi/lib/libg.a(lib_a-fstatr.o)
 .debug_info    0x0000000000031784      0x99b /usr/local/lib64/gcc/arm-none-eabi/4.5.2/../../../../arm-none-eabi/lib/libg.a(lib_a-isattyr.o)
 .debug_info    0x000000000003211f       0xb9 /usr/local/lib64/gcc/arm-none-eabi/4.5.2/thumb/v7/libgcc.a(_udivsi3.o)
 .debug_info    0x00000000000321d8       0xb9 /usr/local/lib64/gcc/arm-none-eabi/4.5.2/thumb/v7/libgcc.a(_dvmd_tls.o)
 .debug_info    0x0000000000032291       0x83 /usr/local/lib64/gcc/arm-none-eabi/4.5.2/thumb/v7/crtn.o

.debug_abbrev   0x0000000000000000     0x883c
 .debug_abbrev  0x0000000000000000       0x12 /usr/local/lib64/gcc/arm-none-eabi/4.5.2/thumb/v7/crti.o
 .debug_abbrev  0x0000000000000012       0x14 /usr/local/lib64/gcc/arm-none-eabi/4.5.2/../../../../arm-none-eabi/lib/crt0.o
 .debug_abbrev  0x0000000000000026       0x78 /usr/local/lib64/gcc/arm-none-eabi/4.5.2/../../../../arm-none-eabi/lib/libc.a(lib_a-atexit.o)
 .debug_abbrev  0x000000000000009e      0x1d3 /usr/local/lib64/gcc/arm-none-eabi/4.5.2/../../../../arm-none-eabi/lib/libc.a(lib_a-__atexit.o)
 .debug_abbrev  0x0000000000000271      0x17d /usr/local/lib64/gcc/arm-none-eabi/4.5.2/../../../../arm-none-eabi/lib/libc.a(lib_a-exit.o)
 .debug_abbrev  0x00000000000003ee       0x9b /usr/local/lib64/gcc/arm-none-eabi/4.5.2/../../../../arm-none-eabi/lib/libc.a(lib_a-fini.o)
 .debug_abbrev  0x0000000000000489      0x166 /usr/local/lib64/gcc/arm-none-eabi/4.5.2/../../../../arm-none-eabi/lib/libc.a(lib_a-impure.o)
 .debug_abbrev  0x00000000000005ef       0x9b /usr/local/lib64/gcc/arm-none-eabi/4.5.2/../../../../arm-none-eabi/lib/libc.a(lib_a-init.o)
 .debug_abbrev  0x000000000000068a       0xab /usr/local/lib64/gcc/arm-none-eabi/4.5.2/../../../../arm-none-eabi/lib/libc.a(lib_a-memset.o)
 .debug_abbrev  0x0000000000000735      0x1bc /usr/local/lib64/gcc/arm-none-eabi/4.5.2/../../../../arm-none-eabi/lib/libc.a(lib_a-__call_atexit.o)
 .debug_abbrev  0x00000000000008f1      0x10f build/obj/syscalls.o
 .debug_abbrev  0x0000000000000a00      0x2f9 build/obj/usb_console.o
 .debug_abbrev  0x0000000000000cf9       0xfb build/obj/system.o
 .debug_abbrev  0x0000000000000df4      0x14f build/obj/uart_console.o
 .debug_abbrev  0x0000000000000f43      0x15c build/obj/led.o
 .debug_abbrev  0x000000000000109f      0x1c3 build/obj/timetick.o
 .debug_abbrev  0x0000000000001262       0xf6 build/obj/startup.o
 .debug_abbrev  0x0000000000001358       0xdc build/obj/usb_device_descriptor.o
 .debug_abbrev  0x0000000000001434      0x219 build/obj/main.o
 .debug_abbrev  0x000000000000164d      0x245 build/obj/input.o
 .debug_abbrev  0x0000000000001892      0x3c3 libusb/lib/libusb_sam3s_rel.a(release-USBD_HAL.o)
 .debug_abbrev  0x0000000000001c55      0x10a libusb/lib/libusb_sam3s_rel.a(release-USBDescriptors.o)
 .debug_abbrev  0x0000000000001d5f      0x265 libusb/lib/libusb_sam3s_rel.a(release-USBD.o)
 .debug_abbrev  0x0000000000001fc4       0xb3 libusb/lib/libusb_sam3s_rel.a(release-USBDCallbacks.o)
 .debug_abbrev  0x0000000000002077      0x309 libusb/lib/libusb_sam3s_rel.a(release-USBDDriver.o)
 .debug_abbrev  0x0000000000002380      0x192 libusb/lib/libusb_sam3s_rel.a(release-CDCDSerial.o)
 .debug_abbrev  0x0000000000002512       0x74 libusb/lib/libusb_sam3s_rel.a(release-USBDDriverCallbacks.o)
 .debug_abbrev  0x0000000000002586       0xf6 libusb/lib/libusb_sam3s_rel.a(release-CDCDSerialDriver.o)
 .debug_abbrev  0x000000000000267c       0xd0 libusb/lib/libusb_sam3s_rel.a(release-USBRequests.o)
 .debug_abbrev  0x000000000000274c      0x264 libusb/lib/libusb_sam3s_rel.a(release-CDCDSerialPort.o)
 .debug_abbrev  0x00000000000029b0       0x95 libusb/lib/libusb_sam3s_rel.a(release-CDCLineCoding.o)
 .debug_abbrev  0x0000000000002a45      0x256 libchip/lib/libchip_sam3s4_rel.a(release-pio_it.o)
 .debug_abbrev  0x0000000000002c9b       0x6e libchip/lib/libchip_sam3s4_rel.a(release-exceptions.o)
 .debug_abbrev  0x0000000000002d09      0x1d3 libchip/lib/libchip_sam3s4_rel.a(release-adc.o)
 .debug_abbrev  0x0000000000002edc      0x1d5 libchip/lib/libchip_sam3s4_rel.a(release-pio.o)
 .debug_abbrev  0x00000000000030b1       0xf4 libchip/lib/libchip_sam3s4_rel.a(release-pmc.o)
 .debug_abbrev  0x00000000000031a5      0x131 libchip/lib/libchip_sam3s4_rel.a(release-tc.o)
 .debug_abbrev  0x00000000000032d6      0x15d libchip/lib/libchip_sam3s4_rel.a(release-pio_capture.o)
 .debug_abbrev  0x0000000000003433      0x18c /usr/local/lib64/gcc/arm-none-eabi/4.5.2/../../../../arm-none-eabi/lib/libg.a(lib_a-assert.o)
 .debug_abbrev  0x00000000000035bf      0x1d5 /usr/local/lib64/gcc/arm-none-eabi/4.5.2/../../../../arm-none-eabi/lib/libg.a(lib_a-fiprintf.o)
 .debug_abbrev  0x0000000000003794      0x1d9 /usr/local/lib64/gcc/arm-none-eabi/4.5.2/../../../../arm-none-eabi/lib/libg.a(lib_a-gets.o)
 .debug_abbrev  0x000000000000396d      0x1cb /usr/local/lib64/gcc/arm-none-eabi/4.5.2/../../../../arm-none-eabi/lib/libg.a(lib_a-iprintf.o)
 .debug_abbrev  0x0000000000003b38       0xa8 /usr/local/lib64/gcc/arm-none-eabi/4.5.2/../../../../arm-none-eabi/lib/libg.a(lib_a-memcpy.o)
 .debug_abbrev  0x0000000000003be0       0x99 /usr/local/lib64/gcc/arm-none-eabi/4.5.2/../../../../arm-none-eabi/lib/libg.a(lib_a-memmove.o)
 .debug_abbrev  0x0000000000003c79      0x1e6 /usr/local/lib64/gcc/arm-none-eabi/4.5.2/../../../../arm-none-eabi/lib/libg.a(lib_a-reent.o)
 .debug_abbrev  0x0000000000003e5f      0x198 /usr/local/lib64/gcc/arm-none-eabi/4.5.2/../../../../arm-none-eabi/lib/libg.a(lib_a-rget.o)
 .debug_abbrev  0x0000000000003ff7      0x16c /usr/local/lib64/gcc/arm-none-eabi/4.5.2/../../../../arm-none-eabi/lib/libg.a(lib_a-setbuf.o)
 .debug_abbrev  0x0000000000004163      0x1aa /usr/local/lib64/gcc/arm-none-eabi/4.5.2/../../../../arm-none-eabi/lib/libg.a(lib_a-setvbuf.o)
 .debug_abbrev  0x000000000000430d      0x1bc /usr/local/lib64/gcc/arm-none-eabi/4.5.2/../../../../arm-none-eabi/lib/libg.a(lib_a-siscanf.o)
 .debug_abbrev  0x00000000000044c9      0x1f6 /usr/local/lib64/gcc/arm-none-eabi/4.5.2/../../../../arm-none-eabi/lib/libg.a(lib_a-stdio.o)
 .debug_abbrev  0x00000000000046bf       0x6d /usr/local/lib64/gcc/arm-none-eabi/4.5.2/../../../../arm-none-eabi/lib/libg.a(lib_a-strlen.o)
 .debug_abbrev  0x000000000000472c      0x24d /usr/local/lib64/gcc/arm-none-eabi/4.5.2/../../../../arm-none-eabi/lib/libg.a(lib_a-svfiscanf.o)
 .debug_abbrev  0x0000000000004979      0x1cf /usr/local/lib64/gcc/arm-none-eabi/4.5.2/../../../../arm-none-eabi/lib/libg.a(lib_a-ungetc.o)
 .debug_abbrev  0x0000000000004b48      0x2c0 /usr/local/lib64/gcc/arm-none-eabi/4.5.2/../../../../arm-none-eabi/lib/libg.a(lib_a-vfiprintf.o)
 .debug_abbrev  0x0000000000004e08      0x1a9 /usr/local/lib64/gcc/arm-none-eabi/4.5.2/../../../../arm-none-eabi/lib/libg.a(lib_a-writer.o)
 .debug_abbrev  0x0000000000004fb1      0x17f /usr/local/lib64/gcc/arm-none-eabi/4.5.2/../../../../arm-none-eabi/lib/libg.a(lib_a-wsetup.o)
 .debug_abbrev  0x0000000000005130       0x3f /usr/local/lib64/gcc/arm-none-eabi/4.5.2/../../../../arm-none-eabi/lib/libg.a(lib_a-abort.o)
 .debug_abbrev  0x000000000000516f      0x1a4 /usr/local/lib64/gcc/arm-none-eabi/4.5.2/../../../../arm-none-eabi/lib/libg.a(lib_a-closer.o)
 .debug_abbrev  0x0000000000005313       0x63 /usr/local/lib64/gcc/arm-none-eabi/4.5.2/../../../../arm-none-eabi/lib/libg.a(lib_a-ctype_.o)
 .debug_abbrev  0x0000000000005376      0x1bd /usr/local/lib64/gcc/arm-none-eabi/4.5.2/../../../../arm-none-eabi/lib/libg.a(lib_a-fflush.o)
 .debug_abbrev  0x0000000000005533      0x283 /usr/local/lib64/gcc/arm-none-eabi/4.5.2/../../../../arm-none-eabi/lib/libg.a(lib_a-findfp.o)
 .debug_abbrev  0x00000000000057b6      0x1f5 /usr/local/lib64/gcc/arm-none-eabi/4.5.2/../../../../arm-none-eabi/lib/libg.a(lib_a-fputwc.o)
 .debug_abbrev  0x00000000000059ab      0x1ea /usr/local/lib64/gcc/arm-none-eabi/4.5.2/../../../../arm-none-eabi/lib/libg.a(lib_a-freer.o)
 .debug_abbrev  0x0000000000005b95      0x1a5 /usr/local/lib64/gcc/arm-none-eabi/4.5.2/../../../../arm-none-eabi/lib/libg.a(lib_a-fvwrite.o)
 .debug_abbrev  0x0000000000005d3a      0x210 /usr/local/lib64/gcc/arm-none-eabi/4.5.2/../../../../arm-none-eabi/lib/libg.a(lib_a-fwalk.o)
 .debug_abbrev  0x0000000000005f4a       0x80 /usr/local/lib64/gcc/arm-none-eabi/4.5.2/../../../../arm-none-eabi/lib/libg.a(lib_a-iswspace.o)
 .debug_abbrev  0x0000000000005fca      0x25e /usr/local/lib64/gcc/arm-none-eabi/4.5.2/../../../../arm-none-eabi/lib/libg.a(lib_a-locale.o)
 .debug_abbrev  0x0000000000006228      0x1b3 /usr/local/lib64/gcc/arm-none-eabi/4.5.2/../../../../arm-none-eabi/lib/libg.a(lib_a-lseekr.o)
 .debug_abbrev  0x00000000000063db      0x199 /usr/local/lib64/gcc/arm-none-eabi/4.5.2/../../../../arm-none-eabi/lib/libg.a(lib_a-makebuf.o)
 .debug_abbrev  0x0000000000006574      0x196 /usr/local/lib64/gcc/arm-none-eabi/4.5.2/../../../../arm-none-eabi/lib/libg.a(lib_a-malloc.o)
 .debug_abbrev  0x000000000000670a      0x233 /usr/local/lib64/gcc/arm-none-eabi/4.5.2/../../../../arm-none-eabi/lib/libg.a(lib_a-mallocr.o)
 .debug_abbrev  0x000000000000693d      0x1ae /usr/local/lib64/gcc/arm-none-eabi/4.5.2/../../../../arm-none-eabi/lib/libg.a(lib_a-mbrtowc.o)
 .debug_abbrev  0x0000000000006aeb      0x1bd /usr/local/lib64/gcc/arm-none-eabi/4.5.2/../../../../arm-none-eabi/lib/libg.a(lib_a-mbtowc_r.o)
 .debug_abbrev  0x0000000000006ca8       0xc6 /usr/local/lib64/gcc/arm-none-eabi/4.5.2/../../../../arm-none-eabi/lib/libg.a(lib_a-memchr.o)
 .debug_abbrev  0x0000000000006d6e      0x179 /usr/local/lib64/gcc/arm-none-eabi/4.5.2/../../../../arm-none-eabi/lib/libg.a(lib_a-mlock.o)
 .debug_abbrev  0x0000000000006ee7      0x1a4 /usr/local/lib64/gcc/arm-none-eabi/4.5.2/../../../../arm-none-eabi/lib/libg.a(lib_a-readr.o)
 .debug_abbrev  0x000000000000708b      0x1db /usr/local/lib64/gcc/arm-none-eabi/4.5.2/../../../../arm-none-eabi/lib/libg.a(lib_a-reallocr.o)
 .debug_abbrev  0x0000000000007266      0x196 /usr/local/lib64/gcc/arm-none-eabi/4.5.2/../../../../arm-none-eabi/lib/libg.a(lib_a-refill.o)
 .debug_abbrev  0x00000000000073fc      0x1b0 /usr/local/lib64/gcc/arm-none-eabi/4.5.2/../../../../arm-none-eabi/lib/libg.a(lib_a-sbrkr.o)
 .debug_abbrev  0x00000000000075ac       0x84 /usr/local/lib64/gcc/arm-none-eabi/4.5.2/../../../../arm-none-eabi/lib/libg.a(lib_a-sccl.o)
 .debug_abbrev  0x0000000000007630      0x1da /usr/local/lib64/gcc/arm-none-eabi/4.5.2/../../../../arm-none-eabi/lib/libg.a(lib_a-signal.o)
 .debug_abbrev  0x000000000000780a      0x1b1 /usr/local/lib64/gcc/arm-none-eabi/4.5.2/../../../../arm-none-eabi/lib/libg.a(lib_a-signalr.o)
 .debug_abbrev  0x00000000000079bb       0x86 /usr/local/lib64/gcc/arm-none-eabi/4.5.2/../../../../arm-none-eabi/lib/libg.a(lib_a-strcmp.o)
 .debug_abbrev  0x0000000000007a41      0x1bd /usr/local/lib64/gcc/arm-none-eabi/4.5.2/../../../../arm-none-eabi/lib/libg.a(lib_a-strtol.o)
 .debug_abbrev  0x0000000000007bfe      0x1bd /usr/local/lib64/gcc/arm-none-eabi/4.5.2/../../../../arm-none-eabi/lib/libg.a(lib_a-strtoul.o)
 .debug_abbrev  0x0000000000007dbb      0x1a7 /usr/local/lib64/gcc/arm-none-eabi/4.5.2/../../../../arm-none-eabi/lib/libg.a(lib_a-wbuf.o)
 .debug_abbrev  0x0000000000007f62      0x1ae /usr/local/lib64/gcc/arm-none-eabi/4.5.2/../../../../arm-none-eabi/lib/libg.a(lib_a-wcrtomb.o)
 .debug_abbrev  0x0000000000008110      0x1e5 /usr/local/lib64/gcc/arm-none-eabi/4.5.2/../../../../arm-none-eabi/lib/libg.a(lib_a-wctomb_r.o)
 .debug_abbrev  0x00000000000082f5      0x1b6 /usr/local/lib64/gcc/arm-none-eabi/4.5.2/../../../../arm-none-eabi/lib/libg.a(lib_a-fclose.o)
 .debug_abbrev  0x00000000000084ab      0x1b3 /usr/local/lib64/gcc/arm-none-eabi/4.5.2/../../../../arm-none-eabi/lib/libg.a(lib_a-fstatr.o)
 .debug_abbrev  0x000000000000865e      0x1a4 /usr/local/lib64/gcc/arm-none-eabi/4.5.2/../../../../arm-none-eabi/lib/libg.a(lib_a-isattyr.o)
 .debug_abbrev  0x0000000000008802       0x14 /usr/local/lib64/gcc/arm-none-eabi/4.5.2/thumb/v7/libgcc.a(_udivsi3.o)
 .debug_abbrev  0x0000000000008816       0x14 /usr/local/lib64/gcc/arm-none-eabi/4.5.2/thumb/v7/libgcc.a(_dvmd_tls.o)
 .debug_abbrev  0x000000000000882a       0x12 /usr/local/lib64/gcc/arm-none-eabi/4.5.2/thumb/v7/crtn.o

.debug_aranges  0x0000000000000000     0x1300
 .debug_aranges
                0x0000000000000000       0x28 /usr/local/lib64/gcc/arm-none-eabi/4.5.2/thumb/v7/crti.o
 .debug_aranges
                0x0000000000000028       0x20 /usr/local/lib64/gcc/arm-none-eabi/4.5.2/../../../../arm-none-eabi/lib/crt0.o
 .debug_aranges
                0x0000000000000048       0x20 /usr/local/lib64/gcc/arm-none-eabi/4.5.2/../../../../arm-none-eabi/lib/libc.a(lib_a-atexit.o)
 .debug_aranges
                0x0000000000000068       0x20 /usr/local/lib64/gcc/arm-none-eabi/4.5.2/../../../../arm-none-eabi/lib/libc.a(lib_a-__atexit.o)
 .debug_aranges
                0x0000000000000088       0x20 /usr/local/lib64/gcc/arm-none-eabi/4.5.2/../../../../arm-none-eabi/lib/libc.a(lib_a-exit.o)
 .debug_aranges
                0x00000000000000a8       0x20 /usr/local/lib64/gcc/arm-none-eabi/4.5.2/../../../../arm-none-eabi/lib/libc.a(lib_a-fini.o)
 .debug_aranges
                0x00000000000000c8       0x20 /usr/local/lib64/gcc/arm-none-eabi/4.5.2/../../../../arm-none-eabi/lib/libc.a(lib_a-init.o)
 .debug_aranges
                0x00000000000000e8       0x20 /usr/local/lib64/gcc/arm-none-eabi/4.5.2/../../../../arm-none-eabi/lib/libc.a(lib_a-memset.o)
 .debug_aranges
                0x0000000000000108       0x20 /usr/local/lib64/gcc/arm-none-eabi/4.5.2/../../../../arm-none-eabi/lib/libc.a(lib_a-__call_atexit.o)
 .debug_aranges
                0x0000000000000128       0x70 build/obj/syscalls.o
 .debug_aranges
                0x0000000000000198       0xa8 build/obj/usb_console.o
 .debug_aranges
                0x0000000000000240       0x28 build/obj/system.o
 .debug_aranges
                0x0000000000000268       0x48 build/obj/uart_console.o
 .debug_aranges
                0x00000000000002b0       0x68 build/obj/led.o
 .debug_aranges
                0x0000000000000318       0x58 build/obj/timetick.o
 .debug_aranges
                0x0000000000000370       0x20 build/obj/startup.o
 .debug_aranges
                0x0000000000000390       0x40 build/obj/main.o
 .debug_aranges
                0x00000000000003d0       0x40 build/obj/input.o
 .debug_aranges
                0x0000000000000410       0xd8 libusb/lib/libusb_sam3s_rel.a(release-USBD_HAL.o)
 .debug_aranges
                0x00000000000004e8       0x80 libusb/lib/libusb_sam3s_rel.a(release-USBDescriptors.o)
 .debug_aranges
                0x0000000000000568       0xb0 libusb/lib/libusb_sam3s_rel.a(release-USBD.o)
 .debug_aranges
                0x0000000000000618       0x40 libusb/lib/libusb_sam3s_rel.a(release-USBDCallbacks.o)
 .debug_aranges
                0x0000000000000658       0x58 libusb/lib/libusb_sam3s_rel.a(release-USBDDriver.o)
 .debug_aranges
                0x00000000000006b0       0x78 libusb/lib/libusb_sam3s_rel.a(release-CDCDSerial.o)
 .debug_aranges
                0x0000000000000728       0x28 libusb/lib/libusb_sam3s_rel.a(release-USBDDriverCallbacks.o)
 .debug_aranges
                0x0000000000000750       0x30 libusb/lib/libusb_sam3s_rel.a(release-CDCDSerialDriver.o)
 .debug_aranges
                0x0000000000000780       0x98 libusb/lib/libusb_sam3s_rel.a(release-USBRequests.o)
 .debug_aranges
                0x0000000000000818       0x70 libusb/lib/libusb_sam3s_rel.a(release-CDCDSerialPort.o)
 .debug_aranges
                0x0000000000000888       0x20 libusb/lib/libusb_sam3s_rel.a(release-CDCLineCoding.o)
 .debug_aranges
                0x00000000000008a8       0x60 libchip/lib/libchip_sam3s4_rel.a(release-pio_it.o)
 .debug_aranges
                0x0000000000000908      0x168 libchip/lib/libchip_sam3s4_rel.a(release-exceptions.o)
 .debug_aranges
                0x0000000000000a70       0xa0 libchip/lib/libchip_sam3s4_rel.a(release-adc.o)
 .debug_aranges
                0x0000000000000b10       0x48 libchip/lib/libchip_sam3s4_rel.a(release-pio.o)
 .debug_aranges
                0x0000000000000b58       0x40 libchip/lib/libchip_sam3s4_rel.a(release-pmc.o)
 .debug_aranges
                0x0000000000000b98       0x38 libchip/lib/libchip_sam3s4_rel.a(release-tc.o)
 .debug_aranges
                0x0000000000000bd0       0x48 libchip/lib/libchip_sam3s4_rel.a(release-pio_capture.o)
 .debug_aranges
                0x0000000000000c18       0x20 /usr/local/lib64/gcc/arm-none-eabi/4.5.2/../../../../arm-none-eabi/lib/libg.a(lib_a-assert.o)
 .debug_aranges
                0x0000000000000c38       0x20 /usr/local/lib64/gcc/arm-none-eabi/4.5.2/../../../../arm-none-eabi/lib/libg.a(lib_a-fiprintf.o)
 .debug_aranges
                0x0000000000000c58       0x20 /usr/local/lib64/gcc/arm-none-eabi/4.5.2/../../../../arm-none-eabi/lib/libg.a(lib_a-gets.o)
 .debug_aranges
                0x0000000000000c78       0x20 /usr/local/lib64/gcc/arm-none-eabi/4.5.2/../../../../arm-none-eabi/lib/libg.a(lib_a-iprintf.o)
 .debug_aranges
                0x0000000000000c98       0x20 /usr/local/lib64/gcc/arm-none-eabi/4.5.2/../../../../arm-none-eabi/lib/libg.a(lib_a-memcpy.o)
 .debug_aranges
                0x0000000000000cb8       0x20 /usr/local/lib64/gcc/arm-none-eabi/4.5.2/../../../../arm-none-eabi/lib/libg.a(lib_a-memmove.o)
 .debug_aranges
                0x0000000000000cd8       0x20 /usr/local/lib64/gcc/arm-none-eabi/4.5.2/../../../../arm-none-eabi/lib/libg.a(lib_a-reent.o)
 .debug_aranges
                0x0000000000000cf8       0x20 /usr/local/lib64/gcc/arm-none-eabi/4.5.2/../../../../arm-none-eabi/lib/libg.a(lib_a-rget.o)
 .debug_aranges
                0x0000000000000d18       0x20 /usr/local/lib64/gcc/arm-none-eabi/4.5.2/../../../../arm-none-eabi/lib/libg.a(lib_a-setbuf.o)
 .debug_aranges
                0x0000000000000d38       0x20 /usr/local/lib64/gcc/arm-none-eabi/4.5.2/../../../../arm-none-eabi/lib/libg.a(lib_a-setvbuf.o)
 .debug_aranges
                0x0000000000000d58       0x20 /usr/local/lib64/gcc/arm-none-eabi/4.5.2/../../../../arm-none-eabi/lib/libg.a(lib_a-siscanf.o)
 .debug_aranges
                0x0000000000000d78       0x20 /usr/local/lib64/gcc/arm-none-eabi/4.5.2/../../../../arm-none-eabi/lib/libg.a(lib_a-stdio.o)
 .debug_aranges
                0x0000000000000d98       0x20 /usr/local/lib64/gcc/arm-none-eabi/4.5.2/../../../../arm-none-eabi/lib/libg.a(lib_a-strlen.o)
 .debug_aranges
                0x0000000000000db8       0x20 /usr/local/lib64/gcc/arm-none-eabi/4.5.2/../../../../arm-none-eabi/lib/libg.a(lib_a-svfiscanf.o)
 .debug_aranges
                0x0000000000000dd8       0x20 /usr/local/lib64/gcc/arm-none-eabi/4.5.2/../../../../arm-none-eabi/lib/libg.a(lib_a-ungetc.o)
 .debug_aranges
                0x0000000000000df8       0x20 /usr/local/lib64/gcc/arm-none-eabi/4.5.2/../../../../arm-none-eabi/lib/libg.a(lib_a-vfiprintf.o)
 .debug_aranges
                0x0000000000000e18       0x20 /usr/local/lib64/gcc/arm-none-eabi/4.5.2/../../../../arm-none-eabi/lib/libg.a(lib_a-writer.o)
 .debug_aranges
                0x0000000000000e38       0x20 /usr/local/lib64/gcc/arm-none-eabi/4.5.2/../../../../arm-none-eabi/lib/libg.a(lib_a-wsetup.o)
 .debug_aranges
                0x0000000000000e58       0x20 /usr/local/lib64/gcc/arm-none-eabi/4.5.2/../../../../arm-none-eabi/lib/libg.a(lib_a-abort.o)
 .debug_aranges
                0x0000000000000e78       0x20 /usr/local/lib64/gcc/arm-none-eabi/4.5.2/../../../../arm-none-eabi/lib/libg.a(lib_a-closer.o)
 .debug_aranges
                0x0000000000000e98       0x20 /usr/local/lib64/gcc/arm-none-eabi/4.5.2/../../../../arm-none-eabi/lib/libg.a(lib_a-fflush.o)
 .debug_aranges
                0x0000000000000eb8       0x20 /usr/local/lib64/gcc/arm-none-eabi/4.5.2/../../../../arm-none-eabi/lib/libg.a(lib_a-findfp.o)
 .debug_aranges
                0x0000000000000ed8       0x20 /usr/local/lib64/gcc/arm-none-eabi/4.5.2/../../../../arm-none-eabi/lib/libg.a(lib_a-fputwc.o)
 .debug_aranges
                0x0000000000000ef8       0x20 /usr/local/lib64/gcc/arm-none-eabi/4.5.2/../../../../arm-none-eabi/lib/libg.a(lib_a-freer.o)
 .debug_aranges
                0x0000000000000f18       0x20 /usr/local/lib64/gcc/arm-none-eabi/4.5.2/../../../../arm-none-eabi/lib/libg.a(lib_a-fvwrite.o)
 .debug_aranges
                0x0000000000000f38       0x20 /usr/local/lib64/gcc/arm-none-eabi/4.5.2/../../../../arm-none-eabi/lib/libg.a(lib_a-fwalk.o)
 .debug_aranges
                0x0000000000000f58       0x20 /usr/local/lib64/gcc/arm-none-eabi/4.5.2/../../../../arm-none-eabi/lib/libg.a(lib_a-iswspace.o)
 .debug_aranges
                0x0000000000000f78       0x20 /usr/local/lib64/gcc/arm-none-eabi/4.5.2/../../../../arm-none-eabi/lib/libg.a(lib_a-locale.o)
 .debug_aranges
                0x0000000000000f98       0x20 /usr/local/lib64/gcc/arm-none-eabi/4.5.2/../../../../arm-none-eabi/lib/libg.a(lib_a-lseekr.o)
 .debug_aranges
                0x0000000000000fb8       0x20 /usr/local/lib64/gcc/arm-none-eabi/4.5.2/../../../../arm-none-eabi/lib/libg.a(lib_a-makebuf.o)
 .debug_aranges
                0x0000000000000fd8       0x20 /usr/local/lib64/gcc/arm-none-eabi/4.5.2/../../../../arm-none-eabi/lib/libg.a(lib_a-malloc.o)
 .debug_aranges
                0x0000000000000ff8       0x20 /usr/local/lib64/gcc/arm-none-eabi/4.5.2/../../../../arm-none-eabi/lib/libg.a(lib_a-mallocr.o)
 .debug_aranges
                0x0000000000001018       0x20 /usr/local/lib64/gcc/arm-none-eabi/4.5.2/../../../../arm-none-eabi/lib/libg.a(lib_a-mbrtowc.o)
 .debug_aranges
                0x0000000000001038       0x20 /usr/local/lib64/gcc/arm-none-eabi/4.5.2/../../../../arm-none-eabi/lib/libg.a(lib_a-mbtowc_r.o)
 .debug_aranges
                0x0000000000001058       0x20 /usr/local/lib64/gcc/arm-none-eabi/4.5.2/../../../../arm-none-eabi/lib/libg.a(lib_a-memchr.o)
 .debug_aranges
                0x0000000000001078       0x20 /usr/local/lib64/gcc/arm-none-eabi/4.5.2/../../../../arm-none-eabi/lib/libg.a(lib_a-mlock.o)
 .debug_aranges
                0x0000000000001098       0x20 /usr/local/lib64/gcc/arm-none-eabi/4.5.2/../../../../arm-none-eabi/lib/libg.a(lib_a-readr.o)
 .debug_aranges
                0x00000000000010b8       0x20 /usr/local/lib64/gcc/arm-none-eabi/4.5.2/../../../../arm-none-eabi/lib/libg.a(lib_a-reallocr.o)
 .debug_aranges
                0x00000000000010d8       0x20 /usr/local/lib64/gcc/arm-none-eabi/4.5.2/../../../../arm-none-eabi/lib/libg.a(lib_a-refill.o)
 .debug_aranges
                0x00000000000010f8       0x20 /usr/local/lib64/gcc/arm-none-eabi/4.5.2/../../../../arm-none-eabi/lib/libg.a(lib_a-sbrkr.o)
 .debug_aranges
                0x0000000000001118       0x20 /usr/local/lib64/gcc/arm-none-eabi/4.5.2/../../../../arm-none-eabi/lib/libg.a(lib_a-sccl.o)
 .debug_aranges
                0x0000000000001138       0x20 /usr/local/lib64/gcc/arm-none-eabi/4.5.2/../../../../arm-none-eabi/lib/libg.a(lib_a-signal.o)
 .debug_aranges
                0x0000000000001158       0x20 /usr/local/lib64/gcc/arm-none-eabi/4.5.2/../../../../arm-none-eabi/lib/libg.a(lib_a-signalr.o)
 .debug_aranges
                0x0000000000001178       0x20 /usr/local/lib64/gcc/arm-none-eabi/4.5.2/../../../../arm-none-eabi/lib/libg.a(lib_a-strcmp.o)
 .debug_aranges
                0x0000000000001198       0x20 /usr/local/lib64/gcc/arm-none-eabi/4.5.2/../../../../arm-none-eabi/lib/libg.a(lib_a-strtol.o)
 .debug_aranges
                0x00000000000011b8       0x20 /usr/local/lib64/gcc/arm-none-eabi/4.5.2/../../../../arm-none-eabi/lib/libg.a(lib_a-strtoul.o)
 .debug_aranges
                0x00000000000011d8       0x20 /usr/local/lib64/gcc/arm-none-eabi/4.5.2/../../../../arm-none-eabi/lib/libg.a(lib_a-wbuf.o)
 .debug_aranges
                0x00000000000011f8       0x20 /usr/local/lib64/gcc/arm-none-eabi/4.5.2/../../../../arm-none-eabi/lib/libg.a(lib_a-wcrtomb.o)
 .debug_aranges
                0x0000000000001218       0x20 /usr/local/lib64/gcc/arm-none-eabi/4.5.2/../../../../arm-none-eabi/lib/libg.a(lib_a-wctomb_r.o)
 .debug_aranges
                0x0000000000001238       0x20 /usr/local/lib64/gcc/arm-none-eabi/4.5.2/../../../../arm-none-eabi/lib/libg.a(lib_a-fclose.o)
 .debug_aranges
                0x0000000000001258       0x20 /usr/local/lib64/gcc/arm-none-eabi/4.5.2/../../../../arm-none-eabi/lib/libg.a(lib_a-fstatr.o)
 .debug_aranges
                0x0000000000001278       0x20 /usr/local/lib64/gcc/arm-none-eabi/4.5.2/../../../../arm-none-eabi/lib/libg.a(lib_a-isattyr.o)
 .debug_aranges
                0x0000000000001298       0x20 /usr/local/lib64/gcc/arm-none-eabi/4.5.2/thumb/v7/libgcc.a(_udivsi3.o)
 .debug_aranges
                0x00000000000012b8       0x20 /usr/local/lib64/gcc/arm-none-eabi/4.5.2/thumb/v7/libgcc.a(_dvmd_tls.o)
 .debug_aranges
                0x00000000000012d8       0x28 /usr/local/lib64/gcc/arm-none-eabi/4.5.2/thumb/v7/crtn.o

.debug_ranges   0x0000000000000000      0xf38
 .debug_ranges  0x0000000000000000       0x20 /usr/local/lib64/gcc/arm-none-eabi/4.5.2/thumb/v7/crti.o
 .debug_ranges  0x0000000000000020       0x28 /usr/local/lib64/gcc/arm-none-eabi/4.5.2/../../../../arm-none-eabi/lib/libc.a(lib_a-__call_atexit.o)
 .debug_ranges  0x0000000000000048       0x60 build/obj/syscalls.o
 .debug_ranges  0x00000000000000a8       0x98 build/obj/usb_console.o
 .debug_ranges  0x0000000000000140       0x18 build/obj/system.o
 .debug_ranges  0x0000000000000158       0x38 build/obj/uart_console.o
 .debug_ranges  0x0000000000000190       0x58 build/obj/led.o
 .debug_ranges  0x00000000000001e8       0x48 build/obj/timetick.o
 .debug_ranges  0x0000000000000230       0x10 build/obj/startup.o
 .debug_ranges  0x0000000000000240       0x30 build/obj/main.o
 .debug_ranges  0x0000000000000270       0x30 build/obj/input.o
 .debug_ranges  0x00000000000002a0      0x308 libusb/lib/libusb_sam3s_rel.a(release-USBD_HAL.o)
 .debug_ranges  0x00000000000005a8       0x88 libusb/lib/libusb_sam3s_rel.a(release-USBDescriptors.o)
 .debug_ranges  0x0000000000000630       0xa0 libusb/lib/libusb_sam3s_rel.a(release-USBD.o)
 .debug_ranges  0x00000000000006d0       0x30 libusb/lib/libusb_sam3s_rel.a(release-USBDCallbacks.o)
 .debug_ranges  0x0000000000000700       0x78 libusb/lib/libusb_sam3s_rel.a(release-USBDDriver.o)
 .debug_ranges  0x0000000000000778       0x68 libusb/lib/libusb_sam3s_rel.a(release-CDCDSerial.o)
 .debug_ranges  0x00000000000007e0       0x18 libusb/lib/libusb_sam3s_rel.a(release-USBDDriverCallbacks.o)
 .debug_ranges  0x00000000000007f8       0x20 libusb/lib/libusb_sam3s_rel.a(release-CDCDSerialDriver.o)
 .debug_ranges  0x0000000000000818       0x88 libusb/lib/libusb_sam3s_rel.a(release-USBRequests.o)
 .debug_ranges  0x00000000000008a0       0x78 libusb/lib/libusb_sam3s_rel.a(release-CDCDSerialPort.o)
 .debug_ranges  0x0000000000000918       0x10 libusb/lib/libusb_sam3s_rel.a(release-CDCLineCoding.o)
 .debug_ranges  0x0000000000000928       0x88 libchip/lib/libchip_sam3s4_rel.a(release-pio_it.o)
 .debug_ranges  0x00000000000009b0      0x158 libchip/lib/libchip_sam3s4_rel.a(release-exceptions.o)
 .debug_ranges  0x0000000000000b08       0x90 libchip/lib/libchip_sam3s4_rel.a(release-adc.o)
 .debug_ranges  0x0000000000000b98       0x50 libchip/lib/libchip_sam3s4_rel.a(release-pio.o)
 .debug_ranges  0x0000000000000be8       0x30 libchip/lib/libchip_sam3s4_rel.a(release-pmc.o)
 .debug_ranges  0x0000000000000c18       0x28 libchip/lib/libchip_sam3s4_rel.a(release-tc.o)
 .debug_ranges  0x0000000000000c40       0x38 libchip/lib/libchip_sam3s4_rel.a(release-pio_capture.o)
 .debug_ranges  0x0000000000000c78       0xb0 /usr/local/lib64/gcc/arm-none-eabi/4.5.2/../../../../arm-none-eabi/lib/libg.a(lib_a-svfiscanf.o)
 .debug_ranges  0x0000000000000d28       0x30 /usr/local/lib64/gcc/arm-none-eabi/4.5.2/../../../../arm-none-eabi/lib/libg.a(lib_a-vfiprintf.o)
 .debug_ranges  0x0000000000000d58       0x38 /usr/local/lib64/gcc/arm-none-eabi/4.5.2/../../../../arm-none-eabi/lib/libg.a(lib_a-fflush.o)
 .debug_ranges  0x0000000000000d90       0x50 /usr/local/lib64/gcc/arm-none-eabi/4.5.2/../../../../arm-none-eabi/lib/libg.a(lib_a-findfp.o)
 .debug_ranges  0x0000000000000de0       0x30 /usr/local/lib64/gcc/arm-none-eabi/4.5.2/../../../../arm-none-eabi/lib/libg.a(lib_a-fputwc.o)
 .debug_ranges  0x0000000000000e10       0x18 /usr/local/lib64/gcc/arm-none-eabi/4.5.2/../../../../arm-none-eabi/lib/libg.a(lib_a-fvwrite.o)
 .debug_ranges  0x0000000000000e28       0x40 /usr/local/lib64/gcc/arm-none-eabi/4.5.2/../../../../arm-none-eabi/lib/libg.a(lib_a-mallocr.o)
 .debug_ranges  0x0000000000000e68       0xb0 /usr/local/lib64/gcc/arm-none-eabi/4.5.2/../../../../arm-none-eabi/lib/libg.a(lib_a-reallocr.o)
 .debug_ranges  0x0000000000000f18       0x20 /usr/local/lib64/gcc/arm-none-eabi/4.5.2/thumb/v7/crtn.o

.debug_loc      0x0000000000000000     0xc2c5
 .debug_loc     0x0000000000000000       0x3e /usr/local/lib64/gcc/arm-none-eabi/4.5.2/../../../../arm-none-eabi/lib/libc.a(lib_a-atexit.o)
 .debug_loc     0x000000000000003e      0x104 /usr/local/lib64/gcc/arm-none-eabi/4.5.2/../../../../arm-none-eabi/lib/libc.a(lib_a-__atexit.o)
 .debug_loc     0x0000000000000142       0x3e /usr/local/lib64/gcc/arm-none-eabi/4.5.2/../../../../arm-none-eabi/lib/libc.a(lib_a-exit.o)
 .debug_loc     0x0000000000000180       0x71 /usr/local/lib64/gcc/arm-none-eabi/4.5.2/../../../../arm-none-eabi/lib/libc.a(lib_a-fini.o)
 .debug_loc     0x00000000000001f1       0x7c /usr/local/lib64/gcc/arm-none-eabi/4.5.2/../../../../arm-none-eabi/lib/libc.a(lib_a-init.o)
 .debug_loc     0x000000000000026d      0x181 /usr/local/lib64/gcc/arm-none-eabi/4.5.2/../../../../arm-none-eabi/lib/libc.a(lib_a-memset.o)
 .debug_loc     0x00000000000003ee      0x1de /usr/local/lib64/gcc/arm-none-eabi/4.5.2/../../../../arm-none-eabi/lib/libc.a(lib_a-__call_atexit.o)
 .debug_loc     0x00000000000005cc      0x25c build/obj/syscalls.o
 .debug_loc     0x0000000000000828      0x39c build/obj/usb_console.o
 .debug_loc     0x0000000000000bc4       0x64 build/obj/system.o
 .debug_loc     0x0000000000000c28      0x150 build/obj/uart_console.o
 .debug_loc     0x0000000000000d78      0x224 build/obj/led.o
 .debug_loc     0x0000000000000f9c      0x19c build/obj/timetick.o
 .debug_loc     0x0000000000001138       0x38 build/obj/startup.o
 .debug_loc     0x0000000000001170      0x11a build/obj/main.o
 .debug_loc     0x000000000000128a      0x11a build/obj/input.o
 .debug_loc     0x00000000000013a4     0x1666 libusb/lib/libusb_sam3s_rel.a(release-USBD_HAL.o)
 .debug_loc     0x0000000000002a0a      0x2fe libusb/lib/libusb_sam3s_rel.a(release-USBDescriptors.o)
 .debug_loc     0x0000000000002d08      0x3db libusb/lib/libusb_sam3s_rel.a(release-USBD.o)
 .debug_loc     0x00000000000030e3       0x3e libusb/lib/libusb_sam3s_rel.a(release-USBDCallbacks.o)
 .debug_loc     0x0000000000003121      0x776 libusb/lib/libusb_sam3s_rel.a(release-USBDDriver.o)
 .debug_loc     0x0000000000003897      0x369 libusb/lib/libusb_sam3s_rel.a(release-CDCDSerial.o)
 .debug_loc     0x0000000000003c00       0xfe libusb/lib/libusb_sam3s_rel.a(release-CDCDSerialDriver.o)
 .debug_loc     0x0000000000003cfe      0x250 libusb/lib/libusb_sam3s_rel.a(release-USBRequests.o)
 .debug_loc     0x0000000000003f4e      0x548 libusb/lib/libusb_sam3s_rel.a(release-CDCDSerialPort.o)
 .debug_loc     0x0000000000004496       0x1f libusb/lib/libusb_sam3s_rel.a(release-CDCLineCoding.o)
 .debug_loc     0x00000000000044b5      0x2e3 libchip/lib/libchip_sam3s4_rel.a(release-pio_it.o)
 .debug_loc     0x0000000000004798      0x43d libchip/lib/libchip_sam3s4_rel.a(release-adc.o)
 .debug_loc     0x0000000000004bd5      0x24d libchip/lib/libchip_sam3s4_rel.a(release-pio.o)
 .debug_loc     0x0000000000004e22      0x102 libchip/lib/libchip_sam3s4_rel.a(release-pmc.o)
 .debug_loc     0x0000000000004f24      0x1b9 libchip/lib/libchip_sam3s4_rel.a(release-tc.o)
 .debug_loc     0x00000000000050dd       0x93 libchip/lib/libchip_sam3s4_rel.a(release-pio_capture.o)
 .debug_loc     0x0000000000005170       0xd7 /usr/local/lib64/gcc/arm-none-eabi/4.5.2/../../../../arm-none-eabi/lib/libg.a(lib_a-assert.o)
 .debug_loc     0x0000000000005247       0xb4 /usr/local/lib64/gcc/arm-none-eabi/4.5.2/../../../../arm-none-eabi/lib/libg.a(lib_a-fiprintf.o)
 .debug_loc     0x00000000000052fb       0xe2 /usr/local/lib64/gcc/arm-none-eabi/4.5.2/../../../../arm-none-eabi/lib/libg.a(lib_a-gets.o)
 .debug_loc     0x00000000000053dd       0x97 /usr/local/lib64/gcc/arm-none-eabi/4.5.2/../../../../arm-none-eabi/lib/libg.a(lib_a-iprintf.o)
 .debug_loc     0x0000000000005474      0x1c4 /usr/local/lib64/gcc/arm-none-eabi/4.5.2/../../../../arm-none-eabi/lib/libg.a(lib_a-memcpy.o)
 .debug_loc     0x0000000000005638      0x236 /usr/local/lib64/gcc/arm-none-eabi/4.5.2/../../../../arm-none-eabi/lib/libg.a(lib_a-memmove.o)
 .debug_loc     0x000000000000586e      0x1e8 /usr/local/lib64/gcc/arm-none-eabi/4.5.2/../../../../arm-none-eabi/lib/libg.a(lib_a-reent.o)
 .debug_loc     0x0000000000005a56       0x7a /usr/local/lib64/gcc/arm-none-eabi/4.5.2/../../../../arm-none-eabi/lib/libg.a(lib_a-rget.o)
 .debug_loc     0x0000000000005ad0       0x46 /usr/local/lib64/gcc/arm-none-eabi/4.5.2/../../../../arm-none-eabi/lib/libg.a(lib_a-setbuf.o)
 .debug_loc     0x0000000000005b16      0x186 /usr/local/lib64/gcc/arm-none-eabi/4.5.2/../../../../arm-none-eabi/lib/libg.a(lib_a-setvbuf.o)
 .debug_loc     0x0000000000005c9c       0xb6 /usr/local/lib64/gcc/arm-none-eabi/4.5.2/../../../../arm-none-eabi/lib/libg.a(lib_a-siscanf.o)
 .debug_loc     0x0000000000005d52      0x241 /usr/local/lib64/gcc/arm-none-eabi/4.5.2/../../../../arm-none-eabi/lib/libg.a(lib_a-stdio.o)
 .debug_loc     0x0000000000005f93       0x13 /usr/local/lib64/gcc/arm-none-eabi/4.5.2/../../../../arm-none-eabi/lib/libg.a(lib_a-strlen.o)
 .debug_loc     0x0000000000005fa6     0x10c9 /usr/local/lib64/gcc/arm-none-eabi/4.5.2/../../../../arm-none-eabi/lib/libg.a(lib_a-svfiscanf.o)
 .debug_loc     0x000000000000706f      0x1d9 /usr/local/lib64/gcc/arm-none-eabi/4.5.2/../../../../arm-none-eabi/lib/libg.a(lib_a-ungetc.o)
 .debug_loc     0x0000000000007248     0x1244 /usr/local/lib64/gcc/arm-none-eabi/4.5.2/../../../../arm-none-eabi/lib/libg.a(lib_a-vfiprintf.o)
 .debug_loc     0x000000000000848c       0x98 /usr/local/lib64/gcc/arm-none-eabi/4.5.2/../../../../arm-none-eabi/lib/libg.a(lib_a-writer.o)
 .debug_loc     0x0000000000008524       0x5c /usr/local/lib64/gcc/arm-none-eabi/4.5.2/../../../../arm-none-eabi/lib/libg.a(lib_a-wsetup.o)
 .debug_loc     0x0000000000008580       0x20 /usr/local/lib64/gcc/arm-none-eabi/4.5.2/../../../../arm-none-eabi/lib/libg.a(lib_a-abort.o)
 .debug_loc     0x00000000000085a0       0x51 /usr/local/lib64/gcc/arm-none-eabi/4.5.2/../../../../arm-none-eabi/lib/libg.a(lib_a-closer.o)
 .debug_loc     0x00000000000085f1      0x1dc /usr/local/lib64/gcc/arm-none-eabi/4.5.2/../../../../arm-none-eabi/lib/libg.a(lib_a-fflush.o)
 .debug_loc     0x00000000000087cd      0x305 /usr/local/lib64/gcc/arm-none-eabi/4.5.2/../../../../arm-none-eabi/lib/libg.a(lib_a-findfp.o)
 .debug_loc     0x0000000000008ad2      0x173 /usr/local/lib64/gcc/arm-none-eabi/4.5.2/../../../../arm-none-eabi/lib/libg.a(lib_a-fputwc.o)
 .debug_loc     0x0000000000008c45      0x3b0 /usr/local/lib64/gcc/arm-none-eabi/4.5.2/../../../../arm-none-eabi/lib/libg.a(lib_a-freer.o)
 .debug_loc     0x0000000000008ff5      0x4fa /usr/local/lib64/gcc/arm-none-eabi/4.5.2/../../../../arm-none-eabi/lib/libg.a(lib_a-fvwrite.o)
 .debug_loc     0x00000000000094ef      0x281 /usr/local/lib64/gcc/arm-none-eabi/4.5.2/../../../../arm-none-eabi/lib/libg.a(lib_a-fwalk.o)
 .debug_loc     0x0000000000009770       0x13 /usr/local/lib64/gcc/arm-none-eabi/4.5.2/../../../../arm-none-eabi/lib/libg.a(lib_a-iswspace.o)
 .debug_loc     0x0000000000009783       0xb3 /usr/local/lib64/gcc/arm-none-eabi/4.5.2/../../../../arm-none-eabi/lib/libg.a(lib_a-locale.o)
 .debug_loc     0x0000000000009836       0x98 /usr/local/lib64/gcc/arm-none-eabi/4.5.2/../../../../arm-none-eabi/lib/libg.a(lib_a-lseekr.o)
 .debug_loc     0x00000000000098ce      0x10d /usr/local/lib64/gcc/arm-none-eabi/4.5.2/../../../../arm-none-eabi/lib/libg.a(lib_a-makebuf.o)
 .debug_loc     0x00000000000099db       0x7c /usr/local/lib64/gcc/arm-none-eabi/4.5.2/../../../../arm-none-eabi/lib/libg.a(lib_a-malloc.o)
 .debug_loc     0x0000000000009a57      0x958 /usr/local/lib64/gcc/arm-none-eabi/4.5.2/../../../../arm-none-eabi/lib/libg.a(lib_a-mallocr.o)
 .debug_loc     0x000000000000a3af      0x1bf /usr/local/lib64/gcc/arm-none-eabi/4.5.2/../../../../arm-none-eabi/lib/libg.a(lib_a-mbrtowc.o)
 .debug_loc     0x000000000000a56e      0x131 /usr/local/lib64/gcc/arm-none-eabi/4.5.2/../../../../arm-none-eabi/lib/libg.a(lib_a-mbtowc_r.o)
 .debug_loc     0x000000000000a69f      0x13d /usr/local/lib64/gcc/arm-none-eabi/4.5.2/../../../../arm-none-eabi/lib/libg.a(lib_a-memchr.o)
 .debug_loc     0x000000000000a7dc       0x98 /usr/local/lib64/gcc/arm-none-eabi/4.5.2/../../../../arm-none-eabi/lib/libg.a(lib_a-readr.o)
 .debug_loc     0x000000000000a874      0x9ce /usr/local/lib64/gcc/arm-none-eabi/4.5.2/../../../../arm-none-eabi/lib/libg.a(lib_a-reallocr.o)
 .debug_loc     0x000000000000b242       0x8f /usr/local/lib64/gcc/arm-none-eabi/4.5.2/../../../../arm-none-eabi/lib/libg.a(lib_a-refill.o)
 .debug_loc     0x000000000000b2d1       0x51 /usr/local/lib64/gcc/arm-none-eabi/4.5.2/../../../../arm-none-eabi/lib/libg.a(lib_a-sbrkr.o)
 .debug_loc     0x000000000000b322      0x131 /usr/local/lib64/gcc/arm-none-eabi/4.5.2/../../../../arm-none-eabi/lib/libg.a(lib_a-sccl.o)
 .debug_loc     0x000000000000b453      0x280 /usr/local/lib64/gcc/arm-none-eabi/4.5.2/../../../../arm-none-eabi/lib/libg.a(lib_a-signal.o)
 .debug_loc     0x000000000000b6d3       0xa2 /usr/local/lib64/gcc/arm-none-eabi/4.5.2/../../../../arm-none-eabi/lib/libg.a(lib_a-signalr.o)
 .debug_loc     0x000000000000b775       0x26 /usr/local/lib64/gcc/arm-none-eabi/4.5.2/../../../../arm-none-eabi/lib/libg.a(lib_a-strcmp.o)
 .debug_loc     0x000000000000b79b      0x335 /usr/local/lib64/gcc/arm-none-eabi/4.5.2/../../../../arm-none-eabi/lib/libg.a(lib_a-strtol.o)
 .debug_loc     0x000000000000bad0      0x311 /usr/local/lib64/gcc/arm-none-eabi/4.5.2/../../../../arm-none-eabi/lib/libg.a(lib_a-strtoul.o)
 .debug_loc     0x000000000000bde1       0xf5 /usr/local/lib64/gcc/arm-none-eabi/4.5.2/../../../../arm-none-eabi/lib/libg.a(lib_a-wbuf.o)
 .debug_loc     0x000000000000bed6      0x1a1 /usr/local/lib64/gcc/arm-none-eabi/4.5.2/../../../../arm-none-eabi/lib/libg.a(lib_a-wcrtomb.o)
 .debug_loc     0x000000000000c077       0xe0 /usr/local/lib64/gcc/arm-none-eabi/4.5.2/../../../../arm-none-eabi/lib/libg.a(lib_a-wctomb_r.o)
 .debug_loc     0x000000000000c157       0xae /usr/local/lib64/gcc/arm-none-eabi/4.5.2/../../../../arm-none-eabi/lib/libg.a(lib_a-fclose.o)
 .debug_loc     0x000000000000c205       0x6f /usr/local/lib64/gcc/arm-none-eabi/4.5.2/../../../../arm-none-eabi/lib/libg.a(lib_a-fstatr.o)
 .debug_loc     0x000000000000c274       0x51 /usr/local/lib64/gcc/arm-none-eabi/4.5.2/../../../../arm-none-eabi/lib/libg.a(lib_a-isattyr.o)

.debug_pubnames
                0x0000000000000000      0xd2b
 .debug_pubnames
                0x0000000000000000       0x1d /usr/local/lib64/gcc/arm-none-eabi/4.5.2/../../../../arm-none-eabi/lib/libc.a(lib_a-atexit.o)
 .debug_pubnames
                0x000000000000001d       0x2a /usr/local/lib64/gcc/arm-none-eabi/4.5.2/../../../../arm-none-eabi/lib/libc.a(lib_a-__atexit.o)
 .debug_pubnames
                0x0000000000000047       0x1b /usr/local/lib64/gcc/arm-none-eabi/4.5.2/../../../../arm-none-eabi/lib/libc.a(lib_a-exit.o)
 .debug_pubnames
                0x0000000000000062       0x28 /usr/local/lib64/gcc/arm-none-eabi/4.5.2/../../../../arm-none-eabi/lib/libc.a(lib_a-fini.o)
 .debug_pubnames
                0x000000000000008a       0x39 /usr/local/lib64/gcc/arm-none-eabi/4.5.2/../../../../arm-none-eabi/lib/libc.a(lib_a-impure.o)
 .debug_pubnames
                0x00000000000000c3       0x28 /usr/local/lib64/gcc/arm-none-eabi/4.5.2/../../../../arm-none-eabi/lib/libc.a(lib_a-init.o)
 .debug_pubnames
                0x00000000000000eb       0x1d /usr/local/lib64/gcc/arm-none-eabi/4.5.2/../../../../arm-none-eabi/lib/libc.a(lib_a-memset.o)
 .debug_pubnames
                0x0000000000000108       0x27 /usr/local/lib64/gcc/arm-none-eabi/4.5.2/../../../../arm-none-eabi/lib/libc.a(lib_a-__call_atexit.o)
 .debug_pubnames
                0x000000000000012f       0x55 build/obj/main.o
 .debug_pubnames
                0x0000000000000184       0x60 build/obj/input.o
 .debug_pubnames
                0x00000000000001e4       0x31 /usr/local/lib64/gcc/arm-none-eabi/4.5.2/../../../../arm-none-eabi/lib/libg.a(lib_a-assert.o)
 .debug_pubnames
                0x0000000000000215       0x2f /usr/local/lib64/gcc/arm-none-eabi/4.5.2/../../../../arm-none-eabi/lib/libg.a(lib_a-fiprintf.o)
 .debug_pubnames
                0x0000000000000244       0x27 /usr/local/lib64/gcc/arm-none-eabi/4.5.2/../../../../arm-none-eabi/lib/libg.a(lib_a-gets.o)
 .debug_pubnames
                0x000000000000026b       0x2d /usr/local/lib64/gcc/arm-none-eabi/4.5.2/../../../../arm-none-eabi/lib/libg.a(lib_a-iprintf.o)
 .debug_pubnames
                0x0000000000000298       0x1d /usr/local/lib64/gcc/arm-none-eabi/4.5.2/../../../../arm-none-eabi/lib/libg.a(lib_a-memcpy.o)
 .debug_pubnames
                0x00000000000002b5       0x1e /usr/local/lib64/gcc/arm-none-eabi/4.5.2/../../../../arm-none-eabi/lib/libg.a(lib_a-memmove.o)
 .debug_pubnames
                0x00000000000002d3       0x52 /usr/local/lib64/gcc/arm-none-eabi/4.5.2/../../../../arm-none-eabi/lib/libg.a(lib_a-reent.o)
 .debug_pubnames
                0x0000000000000325       0x2c /usr/local/lib64/gcc/arm-none-eabi/4.5.2/../../../../arm-none-eabi/lib/libg.a(lib_a-rget.o)
 .debug_pubnames
                0x0000000000000351       0x1d /usr/local/lib64/gcc/arm-none-eabi/4.5.2/../../../../arm-none-eabi/lib/libg.a(lib_a-setbuf.o)
 .debug_pubnames
                0x000000000000036e       0x1e /usr/local/lib64/gcc/arm-none-eabi/4.5.2/../../../../arm-none-eabi/lib/libg.a(lib_a-setvbuf.o)
 .debug_pubnames
                0x000000000000038c       0x2d /usr/local/lib64/gcc/arm-none-eabi/4.5.2/../../../../arm-none-eabi/lib/libg.a(lib_a-siscanf.o)
 .debug_pubnames
                0x00000000000003b9       0x53 /usr/local/lib64/gcc/arm-none-eabi/4.5.2/../../../../arm-none-eabi/lib/libg.a(lib_a-stdio.o)
 .debug_pubnames
                0x000000000000040c       0x1d /usr/local/lib64/gcc/arm-none-eabi/4.5.2/../../../../arm-none-eabi/lib/libg.a(lib_a-strlen.o)
 .debug_pubnames
                0x0000000000000429       0x53 /usr/local/lib64/gcc/arm-none-eabi/4.5.2/../../../../arm-none-eabi/lib/libg.a(lib_a-svfiscanf.o)
 .debug_pubnames
                0x000000000000047c       0x39 /usr/local/lib64/gcc/arm-none-eabi/4.5.2/../../../../arm-none-eabi/lib/libg.a(lib_a-ungetc.o)
 .debug_pubnames
                0x00000000000004b5       0x40 /usr/local/lib64/gcc/arm-none-eabi/4.5.2/../../../../arm-none-eabi/lib/libg.a(lib_a-vfiprintf.o)
 .debug_pubnames
                0x00000000000004f5       0x1f /usr/local/lib64/gcc/arm-none-eabi/4.5.2/../../../../arm-none-eabi/lib/libg.a(lib_a-writer.o)
 .debug_pubnames
                0x0000000000000514       0x22 /usr/local/lib64/gcc/arm-none-eabi/4.5.2/../../../../arm-none-eabi/lib/libg.a(lib_a-wsetup.o)
 .debug_pubnames
                0x0000000000000536       0x1c /usr/local/lib64/gcc/arm-none-eabi/4.5.2/../../../../arm-none-eabi/lib/libg.a(lib_a-abort.o)
 .debug_pubnames
                0x0000000000000552       0x1f /usr/local/lib64/gcc/arm-none-eabi/4.5.2/../../../../arm-none-eabi/lib/libg.a(lib_a-closer.o)
 .debug_pubnames
                0x0000000000000571       0x30 /usr/local/lib64/gcc/arm-none-eabi/4.5.2/../../../../arm-none-eabi/lib/libg.a(lib_a-ctype_.o)
 .debug_pubnames
                0x00000000000005a1       0x2b /usr/local/lib64/gcc/arm-none-eabi/4.5.2/../../../../arm-none-eabi/lib/libg.a(lib_a-fflush.o)
 .debug_pubnames
                0x00000000000005cc       0xdb /usr/local/lib64/gcc/arm-none-eabi/4.5.2/../../../../arm-none-eabi/lib/libg.a(lib_a-findfp.o)
 .debug_pubnames
                0x00000000000006a7       0x2b /usr/local/lib64/gcc/arm-none-eabi/4.5.2/../../../../arm-none-eabi/lib/libg.a(lib_a-fputwc.o)
 .debug_pubnames
                0x00000000000006d2       0x31 /usr/local/lib64/gcc/arm-none-eabi/4.5.2/../../../../arm-none-eabi/lib/libg.a(lib_a-freer.o)
 .debug_pubnames
                0x0000000000000703       0x23 /usr/local/lib64/gcc/arm-none-eabi/4.5.2/../../../../arm-none-eabi/lib/libg.a(lib_a-fvwrite.o)
 .debug_pubnames
                0x0000000000000726       0x2e /usr/local/lib64/gcc/arm-none-eabi/4.5.2/../../../../arm-none-eabi/lib/libg.a(lib_a-fwalk.o)
 .debug_pubnames
                0x0000000000000754       0x1f /usr/local/lib64/gcc/arm-none-eabi/4.5.2/../../../../arm-none-eabi/lib/libg.a(lib_a-iswspace.o)
 .debug_pubnames
                0x0000000000000773       0xfa /usr/local/lib64/gcc/arm-none-eabi/4.5.2/../../../../arm-none-eabi/lib/libg.a(lib_a-locale.o)
 .debug_pubnames
                0x000000000000086d       0x1f /usr/local/lib64/gcc/arm-none-eabi/4.5.2/../../../../arm-none-eabi/lib/libg.a(lib_a-lseekr.o)
 .debug_pubnames
                0x000000000000088c       0x23 /usr/local/lib64/gcc/arm-none-eabi/4.5.2/../../../../arm-none-eabi/lib/libg.a(lib_a-makebuf.o)
 .debug_pubnames
                0x00000000000008af       0x26 /usr/local/lib64/gcc/arm-none-eabi/4.5.2/../../../../arm-none-eabi/lib/libg.a(lib_a-malloc.o)
 .debug_pubnames
                0x00000000000008d5       0xce /usr/local/lib64/gcc/arm-none-eabi/4.5.2/../../../../arm-none-eabi/lib/libg.a(lib_a-mallocr.o)
 .debug_pubnames
                0x00000000000009a3       0x2d /usr/local/lib64/gcc/arm-none-eabi/4.5.2/../../../../arm-none-eabi/lib/libg.a(lib_a-mbrtowc.o)
 .debug_pubnames
                0x00000000000009d0       0x40 /usr/local/lib64/gcc/arm-none-eabi/4.5.2/../../../../arm-none-eabi/lib/libg.a(lib_a-mbtowc_r.o)
 .debug_pubnames
                0x0000000000000a10       0x1d /usr/local/lib64/gcc/arm-none-eabi/4.5.2/../../../../arm-none-eabi/lib/libg.a(lib_a-memchr.o)
 .debug_pubnames
                0x0000000000000a2d       0x38 /usr/local/lib64/gcc/arm-none-eabi/4.5.2/../../../../arm-none-eabi/lib/libg.a(lib_a-mlock.o)
 .debug_pubnames
                0x0000000000000a65       0x1e /usr/local/lib64/gcc/arm-none-eabi/4.5.2/../../../../arm-none-eabi/lib/libg.a(lib_a-readr.o)
 .debug_pubnames
                0x0000000000000a83       0x21 /usr/local/lib64/gcc/arm-none-eabi/4.5.2/../../../../arm-none-eabi/lib/libg.a(lib_a-reallocr.o)
 .debug_pubnames
                0x0000000000000aa4       0x22 /usr/local/lib64/gcc/arm-none-eabi/4.5.2/../../../../arm-none-eabi/lib/libg.a(lib_a-refill.o)
 .debug_pubnames
                0x0000000000000ac6       0x1e /usr/local/lib64/gcc/arm-none-eabi/4.5.2/../../../../arm-none-eabi/lib/libg.a(lib_a-sbrkr.o)
 .debug_pubnames
                0x0000000000000ae4       0x1d /usr/local/lib64/gcc/arm-none-eabi/4.5.2/../../../../arm-none-eabi/lib/libg.a(lib_a-sccl.o)
 .debug_pubnames
                0x0000000000000b01       0x86 /usr/local/lib64/gcc/arm-none-eabi/4.5.2/../../../../arm-none-eabi/lib/libg.a(lib_a-signal.o)
 .debug_pubnames
                0x0000000000000b87       0x2c /usr/local/lib64/gcc/arm-none-eabi/4.5.2/../../../../arm-none-eabi/lib/libg.a(lib_a-signalr.o)
 .debug_pubnames
                0x0000000000000bb3       0x1d /usr/local/lib64/gcc/arm-none-eabi/4.5.2/../../../../arm-none-eabi/lib/libg.a(lib_a-strcmp.o)
 .debug_pubnames
                0x0000000000000bd0       0x2b /usr/local/lib64/gcc/arm-none-eabi/4.5.2/../../../../arm-none-eabi/lib/libg.a(lib_a-strtol.o)
 .debug_pubnames
                0x0000000000000bfb       0x2d /usr/local/lib64/gcc/arm-none-eabi/4.5.2/../../../../arm-none-eabi/lib/libg.a(lib_a-strtoul.o)
 .debug_pubnames
                0x0000000000000c28       0x2c /usr/local/lib64/gcc/arm-none-eabi/4.5.2/../../../../arm-none-eabi/lib/libg.a(lib_a-wbuf.o)
 .debug_pubnames
                0x0000000000000c54       0x2d /usr/local/lib64/gcc/arm-none-eabi/4.5.2/../../../../arm-none-eabi/lib/libg.a(lib_a-wcrtomb.o)
 .debug_pubnames
                0x0000000000000c81       0x40 /usr/local/lib64/gcc/arm-none-eabi/4.5.2/../../../../arm-none-eabi/lib/libg.a(lib_a-wctomb_r.o)
 .debug_pubnames
                0x0000000000000cc1       0x2b /usr/local/lib64/gcc/arm-none-eabi/4.5.2/../../../../arm-none-eabi/lib/libg.a(lib_a-fclose.o)
 .debug_pubnames
                0x0000000000000cec       0x1f /usr/local/lib64/gcc/arm-none-eabi/4.5.2/../../../../arm-none-eabi/lib/libg.a(lib_a-fstatr.o)
 .debug_pubnames
                0x0000000000000d0b       0x20 /usr/local/lib64/gcc/arm-none-eabi/4.5.2/../../../../arm-none-eabi/lib/libg.a(lib_a-isattyr.o)

.debug_pubtypes
                0x0000000000000000     0x32b9
 .debug_pubtypes
                0x0000000000000000       0x25 /usr/local/lib64/gcc/arm-none-eabi/4.5.2/../../../../arm-none-eabi/lib/libc.a(lib_a-atexit.o)
 .debug_pubtypes
                0x0000000000000025       0xf0 /usr/local/lib64/gcc/arm-none-eabi/4.5.2/../../../../arm-none-eabi/lib/libc.a(lib_a-__atexit.o)
 .debug_pubtypes
                0x0000000000000115       0xdd /usr/local/lib64/gcc/arm-none-eabi/4.5.2/../../../../arm-none-eabi/lib/libc.a(lib_a-exit.o)
 .debug_pubtypes
                0x00000000000001f2       0x1d /usr/local/lib64/gcc/arm-none-eabi/4.5.2/../../../../arm-none-eabi/lib/libc.a(lib_a-fini.o)
 .debug_pubtypes
                0x000000000000020f       0xdd /usr/local/lib64/gcc/arm-none-eabi/4.5.2/../../../../arm-none-eabi/lib/libc.a(lib_a-impure.o)
 .debug_pubtypes
                0x00000000000002ec       0x1d /usr/local/lib64/gcc/arm-none-eabi/4.5.2/../../../../arm-none-eabi/lib/libc.a(lib_a-init.o)
 .debug_pubtypes
                0x0000000000000309       0x1d /usr/local/lib64/gcc/arm-none-eabi/4.5.2/../../../../arm-none-eabi/lib/libc.a(lib_a-memset.o)
 .debug_pubtypes
                0x0000000000000326       0xdd /usr/local/lib64/gcc/arm-none-eabi/4.5.2/../../../../arm-none-eabi/lib/libc.a(lib_a-__call_atexit.o)
 .debug_pubtypes
                0x0000000000000403      0x124 build/obj/main.o
 .debug_pubtypes
                0x0000000000000527      0x177 build/obj/input.o
 .debug_pubtypes
                0x000000000000069e       0xdd /usr/local/lib64/gcc/arm-none-eabi/4.5.2/../../../../arm-none-eabi/lib/libg.a(lib_a-assert.o)
 .debug_pubtypes
                0x000000000000077b      0x113 /usr/local/lib64/gcc/arm-none-eabi/4.5.2/../../../../arm-none-eabi/lib/libg.a(lib_a-fiprintf.o)
 .debug_pubtypes
                0x000000000000088e       0xdd /usr/local/lib64/gcc/arm-none-eabi/4.5.2/../../../../arm-none-eabi/lib/libg.a(lib_a-gets.o)
 .debug_pubtypes
                0x000000000000096b      0x10a /usr/local/lib64/gcc/arm-none-eabi/4.5.2/../../../../arm-none-eabi/lib/libg.a(lib_a-iprintf.o)
 .debug_pubtypes
                0x0000000000000a75       0x1d /usr/local/lib64/gcc/arm-none-eabi/4.5.2/../../../../arm-none-eabi/lib/libg.a(lib_a-memcpy.o)
 .debug_pubtypes
                0x0000000000000a92       0x1d /usr/local/lib64/gcc/arm-none-eabi/4.5.2/../../../../arm-none-eabi/lib/libg.a(lib_a-memmove.o)
 .debug_pubtypes
                0x0000000000000aaf       0xdd /usr/local/lib64/gcc/arm-none-eabi/4.5.2/../../../../arm-none-eabi/lib/libg.a(lib_a-reent.o)
 .debug_pubtypes
                0x0000000000000b8c       0xe6 /usr/local/lib64/gcc/arm-none-eabi/4.5.2/../../../../arm-none-eabi/lib/libg.a(lib_a-rget.o)
 .debug_pubtypes
                0x0000000000000c72       0xe6 /usr/local/lib64/gcc/arm-none-eabi/4.5.2/../../../../arm-none-eabi/lib/libg.a(lib_a-setbuf.o)
 .debug_pubtypes
                0x0000000000000d58       0xf1 /usr/local/lib64/gcc/arm-none-eabi/4.5.2/../../../../arm-none-eabi/lib/libg.a(lib_a-setvbuf.o)
 .debug_pubtypes
                0x0000000000000e49      0x113 /usr/local/lib64/gcc/arm-none-eabi/4.5.2/../../../../arm-none-eabi/lib/libg.a(lib_a-siscanf.o)
 .debug_pubtypes
                0x0000000000000f5c       0xf1 /usr/local/lib64/gcc/arm-none-eabi/4.5.2/../../../../arm-none-eabi/lib/libg.a(lib_a-stdio.o)
 .debug_pubtypes
                0x000000000000104d       0x1d /usr/local/lib64/gcc/arm-none-eabi/4.5.2/../../../../arm-none-eabi/lib/libg.a(lib_a-strlen.o)
 .debug_pubtypes
                0x000000000000106a      0x146 /usr/local/lib64/gcc/arm-none-eabi/4.5.2/../../../../arm-none-eabi/lib/libg.a(lib_a-svfiscanf.o)
 .debug_pubtypes
                0x00000000000011b0       0xf1 /usr/local/lib64/gcc/arm-none-eabi/4.5.2/../../../../arm-none-eabi/lib/libg.a(lib_a-ungetc.o)
 .debug_pubtypes
                0x00000000000012a1      0x165 /usr/local/lib64/gcc/arm-none-eabi/4.5.2/../../../../arm-none-eabi/lib/libg.a(lib_a-vfiprintf.o)
 .debug_pubtypes
                0x0000000000001406       0xf5 /usr/local/lib64/gcc/arm-none-eabi/4.5.2/../../../../arm-none-eabi/lib/libg.a(lib_a-writer.o)
 .debug_pubtypes
                0x00000000000014fb       0xe6 /usr/local/lib64/gcc/arm-none-eabi/4.5.2/../../../../arm-none-eabi/lib/libg.a(lib_a-wsetup.o)
 .debug_pubtypes
                0x00000000000015e1       0x12 /usr/local/lib64/gcc/arm-none-eabi/4.5.2/../../../../arm-none-eabi/lib/libg.a(lib_a-abort.o)
 .debug_pubtypes
                0x00000000000015f3       0xdd /usr/local/lib64/gcc/arm-none-eabi/4.5.2/../../../../arm-none-eabi/lib/libg.a(lib_a-closer.o)
 .debug_pubtypes
                0x00000000000016d0       0xe6 /usr/local/lib64/gcc/arm-none-eabi/4.5.2/../../../../arm-none-eabi/lib/libg.a(lib_a-fflush.o)
 .debug_pubtypes
                0x00000000000017b6       0xe6 /usr/local/lib64/gcc/arm-none-eabi/4.5.2/../../../../arm-none-eabi/lib/libg.a(lib_a-findfp.o)
 .debug_pubtypes
                0x000000000000189c       0xfd /usr/local/lib64/gcc/arm-none-eabi/4.5.2/../../../../arm-none-eabi/lib/libg.a(lib_a-fputwc.o)
 .debug_pubtypes
                0x0000000000001999      0x120 /usr/local/lib64/gcc/arm-none-eabi/4.5.2/../../../../arm-none-eabi/lib/libg.a(lib_a-freer.o)
 .debug_pubtypes
                0x0000000000001ab9      0x107 /usr/local/lib64/gcc/arm-none-eabi/4.5.2/../../../../arm-none-eabi/lib/libg.a(lib_a-fvwrite.o)
 .debug_pubtypes
                0x0000000000001bc0       0xe6 /usr/local/lib64/gcc/arm-none-eabi/4.5.2/../../../../arm-none-eabi/lib/libg.a(lib_a-fwalk.o)
 .debug_pubtypes
                0x0000000000001ca6       0x1d /usr/local/lib64/gcc/arm-none-eabi/4.5.2/../../../../arm-none-eabi/lib/libg.a(lib_a-iswspace.o)
 .debug_pubtypes
                0x0000000000001cc3       0xe7 /usr/local/lib64/gcc/arm-none-eabi/4.5.2/../../../../arm-none-eabi/lib/libg.a(lib_a-locale.o)
 .debug_pubtypes
                0x0000000000001daa       0xe8 /usr/local/lib64/gcc/arm-none-eabi/4.5.2/../../../../arm-none-eabi/lib/libg.a(lib_a-lseekr.o)
 .debug_pubtypes
                0x0000000000001e92      0x17d /usr/local/lib64/gcc/arm-none-eabi/4.5.2/../../../../arm-none-eabi/lib/libg.a(lib_a-makebuf.o)
 .debug_pubtypes
                0x000000000000200f       0xe8 /usr/local/lib64/gcc/arm-none-eabi/4.5.2/../../../../arm-none-eabi/lib/libg.a(lib_a-malloc.o)
 .debug_pubtypes
                0x00000000000020f7      0x120 /usr/local/lib64/gcc/arm-none-eabi/4.5.2/../../../../arm-none-eabi/lib/libg.a(lib_a-mallocr.o)
 .debug_pubtypes
                0x0000000000002217      0x102 /usr/local/lib64/gcc/arm-none-eabi/4.5.2/../../../../arm-none-eabi/lib/libg.a(lib_a-mbrtowc.o)
 .debug_pubtypes
                0x0000000000002319      0x102 /usr/local/lib64/gcc/arm-none-eabi/4.5.2/../../../../arm-none-eabi/lib/libg.a(lib_a-mbtowc_r.o)
 .debug_pubtypes
                0x000000000000241b       0x1d /usr/local/lib64/gcc/arm-none-eabi/4.5.2/../../../../arm-none-eabi/lib/libg.a(lib_a-memchr.o)
 .debug_pubtypes
                0x0000000000002438       0xdd /usr/local/lib64/gcc/arm-none-eabi/4.5.2/../../../../arm-none-eabi/lib/libg.a(lib_a-mlock.o)
 .debug_pubtypes
                0x0000000000002515       0xf5 /usr/local/lib64/gcc/arm-none-eabi/4.5.2/../../../../arm-none-eabi/lib/libg.a(lib_a-readr.o)
 .debug_pubtypes
                0x000000000000260a      0x113 /usr/local/lib64/gcc/arm-none-eabi/4.5.2/../../../../arm-none-eabi/lib/libg.a(lib_a-reallocr.o)
 .debug_pubtypes
                0x000000000000271d       0xe6 /usr/local/lib64/gcc/arm-none-eabi/4.5.2/../../../../arm-none-eabi/lib/libg.a(lib_a-refill.o)
 .debug_pubtypes
                0x0000000000002803       0xeb /usr/local/lib64/gcc/arm-none-eabi/4.5.2/../../../../arm-none-eabi/lib/libg.a(lib_a-sbrkr.o)
 .debug_pubtypes
                0x00000000000028ee       0x1d /usr/local/lib64/gcc/arm-none-eabi/4.5.2/../../../../arm-none-eabi/lib/libg.a(lib_a-sccl.o)
 .debug_pubtypes
                0x000000000000290b       0xef /usr/local/lib64/gcc/arm-none-eabi/4.5.2/../../../../arm-none-eabi/lib/libg.a(lib_a-signal.o)
 .debug_pubtypes
                0x00000000000029fa       0xdd /usr/local/lib64/gcc/arm-none-eabi/4.5.2/../../../../arm-none-eabi/lib/libg.a(lib_a-signalr.o)
 .debug_pubtypes
                0x0000000000002ad7       0x12 /usr/local/lib64/gcc/arm-none-eabi/4.5.2/../../../../arm-none-eabi/lib/libg.a(lib_a-strcmp.o)
 .debug_pubtypes
                0x0000000000002ae9       0xdd /usr/local/lib64/gcc/arm-none-eabi/4.5.2/../../../../arm-none-eabi/lib/libg.a(lib_a-strtol.o)
 .debug_pubtypes
                0x0000000000002bc6       0xdd /usr/local/lib64/gcc/arm-none-eabi/4.5.2/../../../../arm-none-eabi/lib/libg.a(lib_a-strtoul.o)
 .debug_pubtypes
                0x0000000000002ca3       0xe6 /usr/local/lib64/gcc/arm-none-eabi/4.5.2/../../../../arm-none-eabi/lib/libg.a(lib_a-wbuf.o)
 .debug_pubtypes
                0x0000000000002d89      0x102 /usr/local/lib64/gcc/arm-none-eabi/4.5.2/../../../../arm-none-eabi/lib/libg.a(lib_a-wcrtomb.o)
 .debug_pubtypes
                0x0000000000002e8b      0x102 /usr/local/lib64/gcc/arm-none-eabi/4.5.2/../../../../arm-none-eabi/lib/libg.a(lib_a-wctomb_r.o)
 .debug_pubtypes
                0x0000000000002f8d       0xe6 /usr/local/lib64/gcc/arm-none-eabi/4.5.2/../../../../arm-none-eabi/lib/libg.a(lib_a-fclose.o)
 .debug_pubtypes
                0x0000000000003073      0x169 /usr/local/lib64/gcc/arm-none-eabi/4.5.2/../../../../arm-none-eabi/lib/libg.a(lib_a-fstatr.o)
 .debug_pubtypes
                0x00000000000031dc       0xdd /usr/local/lib64/gcc/arm-none-eabi/4.5.2/../../../../arm-none-eabi/lib/libg.a(lib_a-isattyr.o)

.debug_str      0x0000000000000000     0x5397
 .debug_str     0x0000000000000000      0x115 /usr/local/lib64/gcc/arm-none-eabi/4.5.2/../../../../arm-none-eabi/lib/libc.a(lib_a-atexit.o)
                                        0x155 (size before relaxing)
 .debug_str     0x0000000000000115      0x3e1 /usr/local/lib64/gcc/arm-none-eabi/4.5.2/../../../../arm-none-eabi/lib/libc.a(lib_a-__atexit.o)
                                        0x53e (size before relaxing)
 .debug_str     0x00000000000004f6       0x42 /usr/local/lib64/gcc/arm-none-eabi/4.5.2/../../../../arm-none-eabi/lib/libc.a(lib_a-exit.o)
                                        0x4e8 (size before relaxing)
 .debug_str     0x0000000000000538       0xb9 /usr/local/lib64/gcc/arm-none-eabi/4.5.2/../../../../arm-none-eabi/lib/libc.a(lib_a-fini.o)
                                        0x15b (size before relaxing)
 .debug_str     0x00000000000005f1       0x93 /usr/local/lib64/gcc/arm-none-eabi/4.5.2/../../../../arm-none-eabi/lib/libc.a(lib_a-impure.o)
                                        0x4f6 (size before relaxing)
 .debug_str     0x0000000000000684       0xa0 /usr/local/lib64/gcc/arm-none-eabi/4.5.2/../../../../arm-none-eabi/lib/libc.a(lib_a-init.o)
                                        0x185 (size before relaxing)
 .debug_str     0x0000000000000724       0xa4 /usr/local/lib64/gcc/arm-none-eabi/4.5.2/../../../../arm-none-eabi/lib/libc.a(lib_a-memset.o)
                                        0x140 (size before relaxing)
 .debug_str     0x00000000000007c8       0x6a /usr/local/lib64/gcc/arm-none-eabi/4.5.2/../../../../arm-none-eabi/lib/libc.a(lib_a-__call_atexit.o)
                                        0x510 (size before relaxing)
 .debug_str     0x0000000000000832      0x17d build/obj/syscalls.o
                                        0x24c (size before relaxing)
 .debug_str     0x00000000000009af      0xb33 build/obj/usb_console.o
                                       0x103e (size before relaxing)
 .debug_str     0x00000000000014e2       0x6c build/obj/system.o
                                        0x283 (size before relaxing)
 .debug_str     0x000000000000154e      0x142 build/obj/uart_console.o
                                        0x60f (size before relaxing)
 .debug_str     0x0000000000001690       0x94 build/obj/led.o
                                        0x45a (size before relaxing)
 .debug_str     0x0000000000001724      0x118 build/obj/timetick.o
                                        0x421 (size before relaxing)
 .debug_str     0x000000000000183c       0x7e build/obj/startup.o
                                        0x1ae (size before relaxing)
 .debug_str     0x00000000000018ba      0x2cb build/obj/usb_device_descriptor.o
                                        0x6e7 (size before relaxing)
 .debug_str     0x0000000000001b85       0x75 build/obj/main.o
                                        0x806 (size before relaxing)
 .debug_str     0x0000000000001bfa      0x1e4 build/obj/input.o
                                        0xc36 (size before relaxing)
 .debug_str     0x0000000000001dde      0x52a libusb/lib/libusb_sam3s_rel.a(release-USBD_HAL.o)
                                        0xcb2 (size before relaxing)
 .debug_str     0x0000000000002308      0x262 libusb/lib/libusb_sam3s_rel.a(release-USBDescriptors.o)
                                        0x51e (size before relaxing)
 .debug_str     0x000000000000256a      0x154 libusb/lib/libusb_sam3s_rel.a(release-USBD.o)
                                        0x7ed (size before relaxing)
 .debug_str     0x00000000000026be       0x59 libusb/lib/libusb_sam3s_rel.a(release-USBDCallbacks.o)
                                        0x1b4 (size before relaxing)
 .debug_str     0x0000000000002717      0x218 libusb/lib/libusb_sam3s_rel.a(release-USBDDriver.o)
                                        0xb4f (size before relaxing)
 .debug_str     0x000000000000292f      0x26f libusb/lib/libusb_sam3s_rel.a(release-CDCDSerial.o)
                                        0x7b7 (size before relaxing)
 .debug_str     0x0000000000002b9e       0x53 libusb/lib/libusb_sam3s_rel.a(release-USBDDriverCallbacks.o)
                                        0x15e (size before relaxing)
 .debug_str     0x0000000000002bf1       0x89 libusb/lib/libusb_sam3s_rel.a(release-CDCDSerialDriver.o)
                                        0x49a (size before relaxing)
 .debug_str     0x0000000000002c7a      0x231 libusb/lib/libusb_sam3s_rel.a(release-USBRequests.o)
                                        0x354 (size before relaxing)
 .debug_str     0x0000000000002eab      0x1b3 libusb/lib/libusb_sam3s_rel.a(release-CDCDSerialPort.o)
                                        0x91b (size before relaxing)
 .debug_str     0x000000000000305e       0x51 libusb/lib/libusb_sam3s_rel.a(release-CDCLineCoding.o)
                                        0x181 (size before relaxing)
 .debug_str     0x00000000000030af      0x140 libchip/lib/libchip_sam3s4_rel.a(release-pio_it.o)
                                        0x7a6 (size before relaxing)
 .debug_str     0x00000000000031ef      0x23d libchip/lib/libchip_sam3s4_rel.a(release-exceptions.o)
                                        0x384 (size before relaxing)
 .debug_str     0x000000000000342c      0x204 libchip/lib/libchip_sam3s4_rel.a(release-adc.o)
                                        0x557 (size before relaxing)
 .debug_str     0x0000000000003630      0x104 libchip/lib/libchip_sam3s4_rel.a(release-pio.o)
                                        0x4dc (size before relaxing)
 .debug_str     0x0000000000003734       0x84 libchip/lib/libchip_sam3s4_rel.a(release-pmc.o)
                                        0x2b0 (size before relaxing)
 .debug_str     0x00000000000037b8       0x7d libchip/lib/libchip_sam3s4_rel.a(release-tc.o)
                                        0x22c (size before relaxing)
 .debug_str     0x0000000000003835      0x142 libchip/lib/libchip_sam3s4_rel.a(release-pio_capture.o)
                                        0x529 (size before relaxing)
 .debug_str     0x0000000000003977       0x66 /usr/local/lib64/gcc/arm-none-eabi/4.5.2/../../../../arm-none-eabi/lib/libg.a(lib_a-assert.o)
                                        0x50a (size before relaxing)
 .debug_str     0x00000000000039dd       0xb3 /usr/local/lib64/gcc/arm-none-eabi/4.5.2/../../../../arm-none-eabi/lib/libg.a(lib_a-fiprintf.o)
                                        0x519 (size before relaxing)
 .debug_str     0x0000000000003a90       0x74 /usr/local/lib64/gcc/arm-none-eabi/4.5.2/../../../../arm-none-eabi/lib/libg.a(lib_a-gets.o)
                                        0x508 (size before relaxing)
 .debug_str     0x0000000000003b04       0x4f /usr/local/lib64/gcc/arm-none-eabi/4.5.2/../../../../arm-none-eabi/lib/libg.a(lib_a-iprintf.o)
                                        0x511 (size before relaxing)
 .debug_str     0x0000000000003b53       0x72 /usr/local/lib64/gcc/arm-none-eabi/4.5.2/../../../../arm-none-eabi/lib/libg.a(lib_a-memcpy.o)
                                        0x153 (size before relaxing)
 .debug_str     0x0000000000003bc5       0x5f /usr/local/lib64/gcc/arm-none-eabi/4.5.2/../../../../arm-none-eabi/lib/libg.a(lib_a-memmove.o)
                                        0x15f (size before relaxing)
 .debug_str     0x0000000000003c24       0x7c /usr/local/lib64/gcc/arm-none-eabi/4.5.2/../../../../arm-none-eabi/lib/libg.a(lib_a-reent.o)
                                        0x51b (size before relaxing)
 .debug_str     0x0000000000003ca0       0x53 /usr/local/lib64/gcc/arm-none-eabi/4.5.2/../../../../arm-none-eabi/lib/libg.a(lib_a-rget.o)
                                        0x4ec (size before relaxing)
 .debug_str     0x0000000000003cf3       0x4a /usr/local/lib64/gcc/arm-none-eabi/4.5.2/../../../../arm-none-eabi/lib/libg.a(lib_a-setbuf.o)
                                        0x4d7 (size before relaxing)
 .debug_str     0x0000000000003d3d       0x4c /usr/local/lib64/gcc/arm-none-eabi/4.5.2/../../../../arm-none-eabi/lib/libg.a(lib_a-setvbuf.o)
                                        0x4f6 (size before relaxing)
 .debug_str     0x0000000000003d89       0x57 /usr/local/lib64/gcc/arm-none-eabi/4.5.2/../../../../arm-none-eabi/lib/libg.a(lib_a-siscanf.o)
                                        0x516 (size before relaxing)
 .debug_str     0x0000000000003de0       0x76 /usr/local/lib64/gcc/arm-none-eabi/4.5.2/../../../../arm-none-eabi/lib/libg.a(lib_a-stdio.o)
                                        0x51d (size before relaxing)
 .debug_str     0x0000000000003e56       0x9d /usr/local/lib64/gcc/arm-none-eabi/4.5.2/../../../../arm-none-eabi/lib/libg.a(lib_a-strlen.o)
                                        0x139 (size before relaxing)
 .debug_str     0x0000000000003ef3      0x12b /usr/local/lib64/gcc/arm-none-eabi/4.5.2/../../../../arm-none-eabi/lib/libg.a(lib_a-svfiscanf.o)
                                        0x616 (size before relaxing)
 .debug_str     0x000000000000401e       0x5e /usr/local/lib64/gcc/arm-none-eabi/4.5.2/../../../../arm-none-eabi/lib/libg.a(lib_a-ungetc.o)
                                        0x503 (size before relaxing)
 .debug_str     0x000000000000407c      0x143 /usr/local/lib64/gcc/arm-none-eabi/4.5.2/../../../../arm-none-eabi/lib/libg.a(lib_a-vfiprintf.o)
                                        0x65d (size before relaxing)
 .debug_str     0x00000000000041bf       0x55 /usr/local/lib64/gcc/arm-none-eabi/4.5.2/../../../../arm-none-eabi/lib/libg.a(lib_a-writer.o)
                                        0x4ea (size before relaxing)
 .debug_str     0x0000000000004214       0x4f /usr/local/lib64/gcc/arm-none-eabi/4.5.2/../../../../arm-none-eabi/lib/libg.a(lib_a-wsetup.o)
                                        0x4e8 (size before relaxing)
 .debug_str     0x0000000000004263       0x49 /usr/local/lib64/gcc/arm-none-eabi/4.5.2/../../../../arm-none-eabi/lib/libg.a(lib_a-abort.o)
                                        0x123 (size before relaxing)
 .debug_str     0x00000000000042ac       0x4c /usr/local/lib64/gcc/arm-none-eabi/4.5.2/../../../../arm-none-eabi/lib/libg.a(lib_a-closer.o)
                                        0x4da (size before relaxing)
 .debug_str     0x00000000000042f8       0x8f /usr/local/lib64/gcc/arm-none-eabi/4.5.2/../../../../arm-none-eabi/lib/libg.a(lib_a-ctype_.o)
                                         0xbb (size before relaxing)
 .debug_str     0x0000000000004387       0x65 /usr/local/lib64/gcc/arm-none-eabi/4.5.2/../../../../arm-none-eabi/lib/libg.a(lib_a-fflush.o)
                                        0x518 (size before relaxing)
 .debug_str     0x00000000000043ec       0xe5 /usr/local/lib64/gcc/arm-none-eabi/4.5.2/../../../../arm-none-eabi/lib/libg.a(lib_a-findfp.o)
                                        0x5d0 (size before relaxing)
 .debug_str     0x00000000000044d1       0x56 /usr/local/lib64/gcc/arm-none-eabi/4.5.2/../../../../arm-none-eabi/lib/libg.a(lib_a-fputwc.o)
                                        0x505 (size before relaxing)
 .debug_str     0x0000000000004527      0x164 /usr/local/lib64/gcc/arm-none-eabi/4.5.2/../../../../arm-none-eabi/lib/libg.a(lib_a-freer.o)
                                        0x61f (size before relaxing)
 .debug_str     0x000000000000468b       0x6f /usr/local/lib64/gcc/arm-none-eabi/4.5.2/../../../../arm-none-eabi/lib/libg.a(lib_a-fvwrite.o)
                                        0x53f (size before relaxing)
 .debug_str     0x00000000000046fa       0x67 /usr/local/lib64/gcc/arm-none-eabi/4.5.2/../../../../arm-none-eabi/lib/libg.a(lib_a-fwalk.o)
                                        0x511 (size before relaxing)
 .debug_str     0x0000000000004761       0x4e /usr/local/lib64/gcc/arm-none-eabi/4.5.2/../../../../arm-none-eabi/lib/libg.a(lib_a-iswspace.o)
                                        0x13c (size before relaxing)
 .debug_str     0x00000000000047af      0x264 /usr/local/lib64/gcc/arm-none-eabi/4.5.2/../../../../arm-none-eabi/lib/libg.a(lib_a-locale.o)
                                        0x74c (size before relaxing)
 .debug_str     0x0000000000004a13       0x4c /usr/local/lib64/gcc/arm-none-eabi/4.5.2/../../../../arm-none-eabi/lib/libg.a(lib_a-lseekr.o)
                                        0x4ef (size before relaxing)
 .debug_str     0x0000000000004a5f       0x5c /usr/local/lib64/gcc/arm-none-eabi/4.5.2/../../../../arm-none-eabi/lib/libg.a(lib_a-makebuf.o)
                                        0x5e2 (size before relaxing)
 .debug_str     0x0000000000004abb       0x4e /usr/local/lib64/gcc/arm-none-eabi/4.5.2/../../../../arm-none-eabi/lib/libg.a(lib_a-malloc.o)
                                        0x4f8 (size before relaxing)
 .debug_str     0x0000000000004b09       0xe9 /usr/local/lib64/gcc/arm-none-eabi/4.5.2/../../../../arm-none-eabi/lib/libg.a(lib_a-mallocr.o)
                                        0x6cd (size before relaxing)
 .debug_str     0x0000000000004bf2       0x68 /usr/local/lib64/gcc/arm-none-eabi/4.5.2/../../../../arm-none-eabi/lib/libg.a(lib_a-mbrtowc.o)
                                        0x516 (size before relaxing)
 .debug_str     0x0000000000004c5a       0x65 /usr/local/lib64/gcc/arm-none-eabi/4.5.2/../../../../arm-none-eabi/lib/libg.a(lib_a-mbtowc_r.o)
                                        0x51e (size before relaxing)
 .debug_str     0x0000000000004cbf       0x50 /usr/local/lib64/gcc/arm-none-eabi/4.5.2/../../../../arm-none-eabi/lib/libg.a(lib_a-memchr.o)
                                        0x146 (size before relaxing)
 .debug_str     0x0000000000004d0f       0x76 /usr/local/lib64/gcc/arm-none-eabi/4.5.2/../../../../arm-none-eabi/lib/libg.a(lib_a-mlock.o)
                                        0x4ff (size before relaxing)
 .debug_str     0x0000000000004d85       0x4a /usr/local/lib64/gcc/arm-none-eabi/4.5.2/../../../../arm-none-eabi/lib/libg.a(lib_a-readr.o)
                                        0x4e8 (size before relaxing)
 .debug_str     0x0000000000004dcf       0x59 /usr/local/lib64/gcc/arm-none-eabi/4.5.2/../../../../arm-none-eabi/lib/libg.a(lib_a-reallocr.o)
                                        0x59f (size before relaxing)
 .debug_str     0x0000000000004e28       0x56 /usr/local/lib64/gcc/arm-none-eabi/4.5.2/../../../../arm-none-eabi/lib/libg.a(lib_a-refill.o)
                                        0x4f6 (size before relaxing)
 .debug_str     0x0000000000004e7e       0x54 /usr/local/lib64/gcc/arm-none-eabi/4.5.2/../../../../arm-none-eabi/lib/libg.a(lib_a-sbrkr.o)
                                        0x4ed (size before relaxing)
 .debug_str     0x0000000000004ed2       0x58 /usr/local/lib64/gcc/arm-none-eabi/4.5.2/../../../../arm-none-eabi/lib/libg.a(lib_a-sccl.o)
                                        0x131 (size before relaxing)
 .debug_str     0x0000000000004f2a       0xe3 /usr/local/lib64/gcc/arm-none-eabi/4.5.2/../../../../arm-none-eabi/lib/libg.a(lib_a-signal.o)
                                        0x549 (size before relaxing)
 .debug_str     0x000000000000500d       0x56 /usr/local/lib64/gcc/arm-none-eabi/4.5.2/../../../../arm-none-eabi/lib/libg.a(lib_a-signalr.o)
                                        0x4f2 (size before relaxing)
 .debug_str     0x0000000000005063       0x64 /usr/local/lib64/gcc/arm-none-eabi/4.5.2/../../../../arm-none-eabi/lib/libg.a(lib_a-strcmp.o)
                                        0x143 (size before relaxing)
 .debug_str     0x00000000000050c7       0x6a /usr/local/lib64/gcc/arm-none-eabi/4.5.2/../../../../arm-none-eabi/lib/libg.a(lib_a-strtol.o)
                                        0x51c (size before relaxing)
 .debug_str     0x0000000000005131       0x58 /usr/local/lib64/gcc/arm-none-eabi/4.5.2/../../../../arm-none-eabi/lib/libg.a(lib_a-strtoul.o)
                                        0x51f (size before relaxing)
 .debug_str     0x0000000000005189       0x53 /usr/local/lib64/gcc/arm-none-eabi/4.5.2/../../../../arm-none-eabi/lib/libg.a(lib_a-wbuf.o)
                                        0x4ec (size before relaxing)
 .debug_str     0x00000000000051dc       0x61 /usr/local/lib64/gcc/arm-none-eabi/4.5.2/../../../../arm-none-eabi/lib/libg.a(lib_a-wcrtomb.o)
                                        0x516 (size before relaxing)
 .debug_str     0x000000000000523d       0x66 /usr/local/lib64/gcc/arm-none-eabi/4.5.2/../../../../arm-none-eabi/lib/libg.a(lib_a-wctomb_r.o)
                                        0x525 (size before relaxing)
 .debug_str     0x00000000000052a3       0x54 /usr/local/lib64/gcc/arm-none-eabi/4.5.2/../../../../arm-none-eabi/lib/libg.a(lib_a-fclose.o)
                                        0x4f2 (size before relaxing)
 .debug_str     0x00000000000052f7       0x52 /usr/local/lib64/gcc/arm-none-eabi/4.5.2/../../../../arm-none-eabi/lib/libg.a(lib_a-fstatr.o)
                                        0x5d4 (size before relaxing)
 .debug_str     0x0000000000005349       0x4e /usr/local/lib64/gcc/arm-none-eabi/4.5.2/../../../../arm-none-eabi/lib/libg.a(lib_a-isattyr.o)
                                        0x4e4 (size before relaxing)

.debug_frame    0x0000000000000000     0x2b24
 .debug_frame   0x0000000000000000       0x28 /usr/local/lib64/gcc/arm-none-eabi/4.5.2/../../../../arm-none-eabi/lib/libc.a(lib_a-atexit.o)
 .debug_frame   0x0000000000000028       0x34 /usr/local/lib64/gcc/arm-none-eabi/4.5.2/../../../../arm-none-eabi/lib/libc.a(lib_a-__atexit.o)
 .debug_frame   0x000000000000005c       0x28 /usr/local/lib64/gcc/arm-none-eabi/4.5.2/../../../../arm-none-eabi/lib/libc.a(lib_a-exit.o)
 .debug_frame   0x0000000000000084       0x2c /usr/local/lib64/gcc/arm-none-eabi/4.5.2/../../../../arm-none-eabi/lib/libc.a(lib_a-fini.o)
 .debug_frame   0x00000000000000b0       0x2c /usr/local/lib64/gcc/arm-none-eabi/4.5.2/../../../../arm-none-eabi/lib/libc.a(lib_a-init.o)
 .debug_frame   0x00000000000000dc       0x28 /usr/local/lib64/gcc/arm-none-eabi/4.5.2/../../../../arm-none-eabi/lib/libc.a(lib_a-memset.o)
 .debug_frame   0x0000000000000104       0x3c /usr/local/lib64/gcc/arm-none-eabi/4.5.2/../../../../arm-none-eabi/lib/libc.a(lib_a-__call_atexit.o)
 .debug_frame   0x0000000000000140      0x150 build/obj/syscalls.o
 .debug_frame   0x0000000000000290      0x22c build/obj/usb_console.o
 .debug_frame   0x00000000000004bc       0x48 build/obj/system.o
 .debug_frame   0x0000000000000504       0xd0 build/obj/uart_console.o
 .debug_frame   0x00000000000005d4      0x140 build/obj/led.o
 .debug_frame   0x0000000000000714       0xfc build/obj/timetick.o
 .debug_frame   0x0000000000000810       0x30 build/obj/startup.o
 .debug_frame   0x0000000000000840       0xc8 build/obj/main.o
 .debug_frame   0x0000000000000908       0xb4 build/obj/input.o
 .debug_frame   0x00000000000009bc      0x2b8 libusb/lib/libusb_sam3s_rel.a(release-USBD_HAL.o)
 .debug_frame   0x0000000000000c74      0x108 libusb/lib/libusb_sam3s_rel.a(release-USBDescriptors.o)
 .debug_frame   0x0000000000000d7c      0x1d8 libusb/lib/libusb_sam3s_rel.a(release-USBD.o)
 .debug_frame   0x0000000000000f54       0x68 libusb/lib/libusb_sam3s_rel.a(release-USBDCallbacks.o)
 .debug_frame   0x0000000000000fbc       0xc0 libusb/lib/libusb_sam3s_rel.a(release-USBDDriver.o)
 .debug_frame   0x000000000000107c      0x134 libusb/lib/libusb_sam3s_rel.a(release-CDCDSerial.o)
 .debug_frame   0x00000000000011b0       0x30 libusb/lib/libusb_sam3s_rel.a(release-USBDDriverCallbacks.o)
 .debug_frame   0x00000000000011e0       0x60 libusb/lib/libusb_sam3s_rel.a(release-CDCDSerialDriver.o)
 .debug_frame   0x0000000000001240      0x158 libusb/lib/libusb_sam3s_rel.a(release-USBRequests.o)
 .debug_frame   0x0000000000001398      0x12c libusb/lib/libusb_sam3s_rel.a(release-CDCDSerialPort.o)
 .debug_frame   0x00000000000014c4       0x20 libusb/lib/libusb_sam3s_rel.a(release-CDCLineCoding.o)
 .debug_frame   0x00000000000014e4       0xf8 libchip/lib/libchip_sam3s4_rel.a(release-pio_it.o)
 .debug_frame   0x00000000000015dc      0x2b0 libchip/lib/libchip_sam3s4_rel.a(release-exceptions.o)
 .debug_frame   0x000000000000188c      0x148 libchip/lib/libchip_sam3s4_rel.a(release-adc.o)
 .debug_frame   0x00000000000019d4       0x7c libchip/lib/libchip_sam3s4_rel.a(release-pio.o)
 .debug_frame   0x0000000000001a50       0x78 libchip/lib/libchip_sam3s4_rel.a(release-pmc.o)
 .debug_frame   0x0000000000001ac8       0x78 libchip/lib/libchip_sam3s4_rel.a(release-tc.o)
 .debug_frame   0x0000000000001b40       0x84 libchip/lib/libchip_sam3s4_rel.a(release-pio_capture.o)
 .debug_frame   0x0000000000001bc4       0x44 /usr/local/lib64/gcc/arm-none-eabi/4.5.2/../../../../arm-none-eabi/lib/libg.a(lib_a-assert.o)
 .debug_frame   0x0000000000001c08       0x54 /usr/local/lib64/gcc/arm-none-eabi/4.5.2/../../../../arm-none-eabi/lib/libg.a(lib_a-fiprintf.o)
 .debug_frame   0x0000000000001c5c       0x40 /usr/local/lib64/gcc/arm-none-eabi/4.5.2/../../../../arm-none-eabi/lib/libg.a(lib_a-gets.o)
 .debug_frame   0x0000000000001c9c       0x58 /usr/local/lib64/gcc/arm-none-eabi/4.5.2/../../../../arm-none-eabi/lib/libg.a(lib_a-iprintf.o)
 .debug_frame   0x0000000000001cf4       0x2c /usr/local/lib64/gcc/arm-none-eabi/4.5.2/../../../../arm-none-eabi/lib/libg.a(lib_a-memcpy.o)
 .debug_frame   0x0000000000001d20       0x2c /usr/local/lib64/gcc/arm-none-eabi/4.5.2/../../../../arm-none-eabi/lib/libg.a(lib_a-memmove.o)
 .debug_frame   0x0000000000001d4c       0x68 /usr/local/lib64/gcc/arm-none-eabi/4.5.2/../../../../arm-none-eabi/lib/libg.a(lib_a-reent.o)
 .debug_frame   0x0000000000001db4       0x3c /usr/local/lib64/gcc/arm-none-eabi/4.5.2/../../../../arm-none-eabi/lib/libg.a(lib_a-rget.o)
 .debug_frame   0x0000000000001df0       0x28 /usr/local/lib64/gcc/arm-none-eabi/4.5.2/../../../../arm-none-eabi/lib/libg.a(lib_a-setbuf.o)
 .debug_frame   0x0000000000001e18       0x34 /usr/local/lib64/gcc/arm-none-eabi/4.5.2/../../../../arm-none-eabi/lib/libg.a(lib_a-setvbuf.o)
 .debug_frame   0x0000000000001e4c       0x60 /usr/local/lib64/gcc/arm-none-eabi/4.5.2/../../../../arm-none-eabi/lib/libg.a(lib_a-siscanf.o)
 .debug_frame   0x0000000000001eac       0x88 /usr/local/lib64/gcc/arm-none-eabi/4.5.2/../../../../arm-none-eabi/lib/libg.a(lib_a-stdio.o)
 .debug_frame   0x0000000000001f34       0x20 /usr/local/lib64/gcc/arm-none-eabi/4.5.2/../../../../arm-none-eabi/lib/libg.a(lib_a-strlen.o)
 .debug_frame   0x0000000000001f54       0x9c /usr/local/lib64/gcc/arm-none-eabi/4.5.2/../../../../arm-none-eabi/lib/libg.a(lib_a-svfiscanf.o)
 .debug_frame   0x0000000000001ff0       0x5c /usr/local/lib64/gcc/arm-none-eabi/4.5.2/../../../../arm-none-eabi/lib/libg.a(lib_a-ungetc.o)
 .debug_frame   0x000000000000204c       0x7c /usr/local/lib64/gcc/arm-none-eabi/4.5.2/../../../../arm-none-eabi/lib/libg.a(lib_a-vfiprintf.o)
 .debug_frame   0x00000000000020c8       0x2c /usr/local/lib64/gcc/arm-none-eabi/4.5.2/../../../../arm-none-eabi/lib/libg.a(lib_a-writer.o)
 .debug_frame   0x00000000000020f4       0x2c /usr/local/lib64/gcc/arm-none-eabi/4.5.2/../../../../arm-none-eabi/lib/libg.a(lib_a-wsetup.o)
 .debug_frame   0x0000000000002120       0x28 /usr/local/lib64/gcc/arm-none-eabi/4.5.2/../../../../arm-none-eabi/lib/libg.a(lib_a-abort.o)
 .debug_frame   0x0000000000002148       0x2c /usr/local/lib64/gcc/arm-none-eabi/4.5.2/../../../../arm-none-eabi/lib/libg.a(lib_a-closer.o)
 .debug_frame   0x0000000000002174       0x48 /usr/local/lib64/gcc/arm-none-eabi/4.5.2/../../../../arm-none-eabi/lib/libg.a(lib_a-fflush.o)
 .debug_frame   0x00000000000021bc      0x12c /usr/local/lib64/gcc/arm-none-eabi/4.5.2/../../../../arm-none-eabi/lib/libg.a(lib_a-findfp.o)
 .debug_frame   0x00000000000022e8       0x54 /usr/local/lib64/gcc/arm-none-eabi/4.5.2/../../../../arm-none-eabi/lib/libg.a(lib_a-fputwc.o)
 .debug_frame   0x000000000000233c       0x50 /usr/local/lib64/gcc/arm-none-eabi/4.5.2/../../../../arm-none-eabi/lib/libg.a(lib_a-freer.o)
 .debug_frame   0x000000000000238c       0x3c /usr/local/lib64/gcc/arm-none-eabi/4.5.2/../../../../arm-none-eabi/lib/libg.a(lib_a-fvwrite.o)
 .debug_frame   0x00000000000023c8       0x54 /usr/local/lib64/gcc/arm-none-eabi/4.5.2/../../../../arm-none-eabi/lib/libg.a(lib_a-fwalk.o)
 .debug_frame   0x000000000000241c       0x20 /usr/local/lib64/gcc/arm-none-eabi/4.5.2/../../../../arm-none-eabi/lib/libg.a(lib_a-iswspace.o)
 .debug_frame   0x000000000000243c       0x98 /usr/local/lib64/gcc/arm-none-eabi/4.5.2/../../../../arm-none-eabi/lib/libg.a(lib_a-locale.o)
 .debug_frame   0x00000000000024d4       0x2c /usr/local/lib64/gcc/arm-none-eabi/4.5.2/../../../../arm-none-eabi/lib/libg.a(lib_a-lseekr.o)
 .debug_frame   0x0000000000002500       0x34 /usr/local/lib64/gcc/arm-none-eabi/4.5.2/../../../../arm-none-eabi/lib/libg.a(lib_a-makebuf.o)
 .debug_frame   0x0000000000002534       0x40 /usr/local/lib64/gcc/arm-none-eabi/4.5.2/../../../../arm-none-eabi/lib/libg.a(lib_a-malloc.o)
 .debug_frame   0x0000000000002574       0x3c /usr/local/lib64/gcc/arm-none-eabi/4.5.2/../../../../arm-none-eabi/lib/libg.a(lib_a-mallocr.o)
 .debug_frame   0x00000000000025b0       0x60 /usr/local/lib64/gcc/arm-none-eabi/4.5.2/../../../../arm-none-eabi/lib/libg.a(lib_a-mbrtowc.o)
 .debug_frame   0x0000000000002610       0x48 /usr/local/lib64/gcc/arm-none-eabi/4.5.2/../../../../arm-none-eabi/lib/libg.a(lib_a-mbtowc_r.o)
 .debug_frame   0x0000000000002658       0x2c /usr/local/lib64/gcc/arm-none-eabi/4.5.2/../../../../arm-none-eabi/lib/libg.a(lib_a-memchr.o)
 .debug_frame   0x0000000000002684       0x30 /usr/local/lib64/gcc/arm-none-eabi/4.5.2/../../../../arm-none-eabi/lib/libg.a(lib_a-mlock.o)
 .debug_frame   0x00000000000026b4       0x2c /usr/local/lib64/gcc/arm-none-eabi/4.5.2/../../../../arm-none-eabi/lib/libg.a(lib_a-readr.o)
 .debug_frame   0x00000000000026e0       0x3c /usr/local/lib64/gcc/arm-none-eabi/4.5.2/../../../../arm-none-eabi/lib/libg.a(lib_a-reallocr.o)
 .debug_frame   0x000000000000271c       0x44 /usr/local/lib64/gcc/arm-none-eabi/4.5.2/../../../../arm-none-eabi/lib/libg.a(lib_a-refill.o)
 .debug_frame   0x0000000000002760       0x2c /usr/local/lib64/gcc/arm-none-eabi/4.5.2/../../../../arm-none-eabi/lib/libg.a(lib_a-sbrkr.o)
 .debug_frame   0x000000000000278c       0x2c /usr/local/lib64/gcc/arm-none-eabi/4.5.2/../../../../arm-none-eabi/lib/libg.a(lib_a-sccl.o)
 .debug_frame   0x00000000000027b8       0xc0 /usr/local/lib64/gcc/arm-none-eabi/4.5.2/../../../../arm-none-eabi/lib/libg.a(lib_a-signal.o)
 .debug_frame   0x0000000000002878       0x44 /usr/local/lib64/gcc/arm-none-eabi/4.5.2/../../../../arm-none-eabi/lib/libg.a(lib_a-signalr.o)
 .debug_frame   0x00000000000028bc       0x30 /usr/local/lib64/gcc/arm-none-eabi/4.5.2/../../../../arm-none-eabi/lib/libg.a(lib_a-strcmp.o)
 .debug_frame   0x00000000000028ec       0x54 /usr/local/lib64/gcc/arm-none-eabi/4.5.2/../../../../arm-none-eabi/lib/libg.a(lib_a-strtol.o)
 .debug_frame   0x0000000000002940       0x54 /usr/local/lib64/gcc/arm-none-eabi/4.5.2/../../../../arm-none-eabi/lib/libg.a(lib_a-strtoul.o)
 .debug_frame   0x0000000000002994       0x3c /usr/local/lib64/gcc/arm-none-eabi/4.5.2/../../../../arm-none-eabi/lib/libg.a(lib_a-wbuf.o)
 .debug_frame   0x00000000000029d0       0x5c /usr/local/lib64/gcc/arm-none-eabi/4.5.2/../../../../arm-none-eabi/lib/libg.a(lib_a-wcrtomb.o)
 .debug_frame   0x0000000000002a2c       0x44 /usr/local/lib64/gcc/arm-none-eabi/4.5.2/../../../../arm-none-eabi/lib/libg.a(lib_a-wctomb_r.o)
 .debug_frame   0x0000000000002a70       0x3c /usr/local/lib64/gcc/arm-none-eabi/4.5.2/../../../../arm-none-eabi/lib/libg.a(lib_a-fclose.o)
 .debug_frame   0x0000000000002aac       0x2c /usr/local/lib64/gcc/arm-none-eabi/4.5.2/../../../../arm-none-eabi/lib/libg.a(lib_a-fstatr.o)
 .debug_frame   0x0000000000002ad8       0x2c /usr/local/lib64/gcc/arm-none-eabi/4.5.2/../../../../arm-none-eabi/lib/libg.a(lib_a-isattyr.o)
 .debug_frame   0x0000000000002b04       0x20 /usr/local/lib64/gcc/arm-none-eabi/4.5.2/thumb/v7/libgcc.a(_udivsi3.o)

Cross Reference Table

Symbol                                            File
ACC_IrqHandler                                    libchip/lib/libchip_sam3s4_rel.a(release-exceptions.o)
                                                  build/obj/startup.o
ADC_CfgChannelMode                                libchip/lib/libchip_sam3s4_rel.a(release-adc.o)
ADC_CfgLowRes                                     libchip/lib/libchip_sam3s4_rel.a(release-adc.o)
ADC_CfgPowerSave                                  libchip/lib/libchip_sam3s4_rel.a(release-adc.o)
ADC_CfgTiming                                     libchip/lib/libchip_sam3s4_rel.a(release-adc.o)
ADC_CfgTrigering                                  libchip/lib/libchip_sam3s4_rel.a(release-adc.o)
ADC_GetConvertedData                              libchip/lib/libchip_sam3s4_rel.a(release-adc.o)
ADC_Initialize                                    libchip/lib/libchip_sam3s4_rel.a(release-adc.o)
                                                  build/obj/input.o
ADC_IrqHandler                                    build/obj/input.o
                                                  build/obj/startup.o
ADC_IsChannelInterruptStatusSet                   libchip/lib/libchip_sam3s4_rel.a(release-adc.o)
ADC_IsInterruptMasked                             libchip/lib/libchip_sam3s4_rel.a(release-adc.o)
ADC_IsStatusSet                                   libchip/lib/libchip_sam3s4_rel.a(release-adc.o)
ADC_ReadBuffer                                    libchip/lib/libchip_sam3s4_rel.a(release-adc.o)
                                                  build/obj/input.o
ADC_SetCompareChannel                             libchip/lib/libchip_sam3s4_rel.a(release-adc.o)
ADC_SetCompareMode                                libchip/lib/libchip_sam3s4_rel.a(release-adc.o)
ADC_SetComparisonWindow                           libchip/lib/libchip_sam3s4_rel.a(release-adc.o)
ADC_cfgFrequency                                  libchip/lib/libchip_sam3s4_rel.a(release-adc.o)
                                                  build/obj/input.o
ADC_check                                         libchip/lib/libchip_sam3s4_rel.a(release-adc.o)
BusFault_Handler                                  libchip/lib/libchip_sam3s4_rel.a(release-exceptions.o)
                                                  build/obj/startup.o
CDCDSerialDriver_ConfigurationChangedHandler      libusb/lib/libusb_sam3s_rel.a(release-CDCDSerialDriver.o)
                                                  build/obj/usb_console.o
CDCDSerialDriver_Initialize                       libusb/lib/libusb_sam3s_rel.a(release-CDCDSerialDriver.o)
                                                  build/obj/usb_console.o
CDCDSerialDriver_RequestHandler                   libusb/lib/libusb_sam3s_rel.a(release-CDCDSerialDriver.o)
                                                  build/obj/usb_console.o
CDCDSerialPort_GetControlLineState                libusb/lib/libusb_sam3s_rel.a(release-CDCDSerialPort.o)
                                                  libusb/lib/libusb_sam3s_rel.a(release-CDCDSerial.o)
CDCDSerialPort_GetLineCoding                      libusb/lib/libusb_sam3s_rel.a(release-CDCDSerialPort.o)
                                                  libusb/lib/libusb_sam3s_rel.a(release-CDCDSerial.o)
CDCDSerialPort_GetSerialState                     libusb/lib/libusb_sam3s_rel.a(release-CDCDSerialPort.o)
                                                  libusb/lib/libusb_sam3s_rel.a(release-CDCDSerial.o)
CDCDSerialPort_Initialize                         libusb/lib/libusb_sam3s_rel.a(release-CDCDSerialPort.o)
                                                  libusb/lib/libusb_sam3s_rel.a(release-CDCDSerial.o)
CDCDSerialPort_ParseInterfaces                    libusb/lib/libusb_sam3s_rel.a(release-CDCDSerialPort.o)
                                                  libusb/lib/libusb_sam3s_rel.a(release-CDCDSerial.o)
CDCDSerialPort_Read                               libusb/lib/libusb_sam3s_rel.a(release-CDCDSerialPort.o)
                                                  libusb/lib/libusb_sam3s_rel.a(release-CDCDSerial.o)
CDCDSerialPort_RequestHandler                     libusb/lib/libusb_sam3s_rel.a(release-CDCDSerialPort.o)
                                                  libusb/lib/libusb_sam3s_rel.a(release-CDCDSerial.o)
CDCDSerialPort_SetSerialState                     libusb/lib/libusb_sam3s_rel.a(release-CDCDSerialPort.o)
                                                  libusb/lib/libusb_sam3s_rel.a(release-CDCDSerial.o)
CDCDSerialPort_Write                              libusb/lib/libusb_sam3s_rel.a(release-CDCDSerialPort.o)
                                                  libusb/lib/libusb_sam3s_rel.a(release-CDCDSerial.o)
CDCDSerial_ConfigureFunction                      libusb/lib/libusb_sam3s_rel.a(release-CDCDSerial.o)
                                                  libusb/lib/libusb_sam3s_rel.a(release-CDCDSerialDriver.o)
CDCDSerial_ControlLineStateChanged                libusb/lib/libusb_sam3s_rel.a(release-CDCDSerial.o)
CDCDSerial_GetControlLineState                    libusb/lib/libusb_sam3s_rel.a(release-CDCDSerial.o)
CDCDSerial_GetLineCoding                          libusb/lib/libusb_sam3s_rel.a(release-CDCDSerial.o)
CDCDSerial_GetSerialState                         libusb/lib/libusb_sam3s_rel.a(release-CDCDSerial.o)
CDCDSerial_Initialize                             libusb/lib/libusb_sam3s_rel.a(release-CDCDSerial.o)
                                                  libusb/lib/libusb_sam3s_rel.a(release-CDCDSerialDriver.o)
CDCDSerial_LineCodingIsToChange                   libusb/lib/libusb_sam3s_rel.a(release-CDCDSerial.o)
CDCDSerial_Read                                   libusb/lib/libusb_sam3s_rel.a(release-CDCDSerial.o)
                                                  build/obj/usb_console.o
CDCDSerial_RequestHandler                         libusb/lib/libusb_sam3s_rel.a(release-CDCDSerial.o)
                                                  libusb/lib/libusb_sam3s_rel.a(release-CDCDSerialDriver.o)
CDCDSerial_SetSerialState                         libusb/lib/libusb_sam3s_rel.a(release-CDCDSerial.o)
CDCDSerial_Write                                  libusb/lib/libusb_sam3s_rel.a(release-CDCDSerial.o)
                                                  build/obj/usb_console.o
CDCLineCoding_Initialize                          libusb/lib/libusb_sam3s_rel.a(release-CDCLineCoding.o)
                                                  libusb/lib/libusb_sam3s_rel.a(release-CDCDSerialPort.o)
CRCCU_IrqHandler                                  libchip/lib/libchip_sam3s4_rel.a(release-exceptions.o)
                                                  build/obj/startup.o
DAC_IrqHandler                                    libchip/lib/libchip_sam3s4_rel.a(release-exceptions.o)
                                                  build/obj/startup.o
DebugMon_Handler                                  libchip/lib/libchip_sam3s4_rel.a(release-exceptions.o)
                                                  build/obj/startup.o
EEFC_IrqHandler                                   libchip/lib/libchip_sam3s4_rel.a(release-exceptions.o)
                                                  build/obj/startup.o
GetTickCount                                      build/obj/timetick.o
                                                  build/obj/input.o
                                                  build/obj/main.o
                                                  build/obj/uart_console.o
                                                  build/obj/usb_console.o
HardFault_Handler                                 libchip/lib/libchip_sam3s4_rel.a(release-exceptions.o)
                                                  build/obj/startup.o
IrqHandlerNotUsed                                 libchip/lib/libchip_sam3s4_rel.a(release-exceptions.o)
                                                  build/obj/startup.o
LED_blink                                         build/obj/led.o
                                                  build/obj/main.o
LED_blinking                                      build/obj/led.o
                                                  build/obj/main.o
LED_blinkstop                                     build/obj/led.o
                                                  build/obj/main.o
LED_blinkwait                                     build/obj/led.o
LED_clr                                           build/obj/led.o
                                                  build/obj/main.o
LED_get                                           build/obj/led.o
LED_set                                           build/obj/led.o
LED_tgl                                           build/obj/led.o
LEDs_configure                                    build/obj/led.o
                                                  build/obj/main.o
MCI_IrqHandler                                    libchip/lib/libchip_sam3s4_rel.a(release-exceptions.o)
                                                  build/obj/startup.o
MemManage_Handler                                 libchip/lib/libchip_sam3s4_rel.a(release-exceptions.o)
                                                  build/obj/startup.o
NMI_Handler                                       libchip/lib/libchip_sam3s4_rel.a(release-exceptions.o)
                                                  build/obj/startup.o
PIOA_IrqHandler                                   libchip/lib/libchip_sam3s4_rel.a(release-pio_it.o)
                                                  build/obj/startup.o
PIOB_IrqHandler                                   libchip/lib/libchip_sam3s4_rel.a(release-pio_it.o)
                                                  build/obj/startup.o
PIOC_IrqHandler                                   libchip/lib/libchip_sam3s4_rel.a(release-pio_it.o)
                                                  build/obj/startup.o
PIO_CaptureDisable                                libchip/lib/libchip_sam3s4_rel.a(release-pio_capture.o)
PIO_CaptureDisableIt                              libchip/lib/libchip_sam3s4_rel.a(release-pio_capture.o)
PIO_CaptureEnable                                 libchip/lib/libchip_sam3s4_rel.a(release-pio_capture.o)
PIO_CaptureEnableIt                               libchip/lib/libchip_sam3s4_rel.a(release-pio_capture.o)
PIO_CaptureHandler                                libchip/lib/libchip_sam3s4_rel.a(release-pio_capture.o)
                                                  libchip/lib/libchip_sam3s4_rel.a(release-pio_it.o)
PIO_CaptureInit                                   libchip/lib/libchip_sam3s4_rel.a(release-pio_capture.o)
PIO_Clear                                         libchip/lib/libchip_sam3s4_rel.a(release-pio.o)
                                                  build/obj/main.o
PIO_Configure                                     libchip/lib/libchip_sam3s4_rel.a(release-pio.o)
                                                  build/obj/input.o
                                                  build/obj/main.o
                                                  build/obj/led.o
                                                  build/obj/uart_console.o
                                                  build/obj/usb_console.o
PIO_ConfigureIt                                   libchip/lib/libchip_sam3s4_rel.a(release-pio_it.o)
                                                  build/obj/usb_console.o
PIO_DisableIt                                     libchip/lib/libchip_sam3s4_rel.a(release-pio_it.o)
PIO_EnableIt                                      libchip/lib/libchip_sam3s4_rel.a(release-pio_it.o)
                                                  build/obj/usb_console.o
PIO_Get                                           libchip/lib/libchip_sam3s4_rel.a(release-pio.o)
                                                  build/obj/usb_console.o
PIO_GetOutputDataStatus                           libchip/lib/libchip_sam3s4_rel.a(release-pio.o)
PIO_InitializeInterrupts                          libchip/lib/libchip_sam3s4_rel.a(release-pio_it.o)
                                                  build/obj/usb_console.o
PIO_Set                                           libchip/lib/libchip_sam3s4_rel.a(release-pio.o)
                                                  build/obj/main.o
PIO_SetDebounceFilter                             libchip/lib/libchip_sam3s4_rel.a(release-pio.o)
PMC_DisableAllPeripherals                         libchip/lib/libchip_sam3s4_rel.a(release-pmc.o)
PMC_DisablePeripheral                             libchip/lib/libchip_sam3s4_rel.a(release-pmc.o)
                                                  libusb/lib/libusb_sam3s_rel.a(release-USBD_HAL.o)
PMC_EnableAllPeripherals                          libchip/lib/libchip_sam3s4_rel.a(release-pmc.o)
PMC_EnablePeripheral                              libchip/lib/libchip_sam3s4_rel.a(release-pmc.o)
                                                  libchip/lib/libchip_sam3s4_rel.a(release-pio_capture.o)
                                                  libchip/lib/libchip_sam3s4_rel.a(release-pio.o)
                                                  libchip/lib/libchip_sam3s4_rel.a(release-pio_it.o)
                                                  libusb/lib/libusb_sam3s_rel.a(release-USBD_HAL.o)
                                                  build/obj/input.o
PMC_IrqHandler                                    libchip/lib/libchip_sam3s4_rel.a(release-exceptions.o)
                                                  build/obj/startup.o
PMC_IsPeriphEnabled                               libchip/lib/libchip_sam3s4_rel.a(release-pmc.o)
                                                  libusb/lib/libusb_sam3s_rel.a(release-USBD_HAL.o)
PWM_IrqHandler                                    libchip/lib/libchip_sam3s4_rel.a(release-exceptions.o)
                                                  build/obj/startup.o
PendSV_Handler                                    libchip/lib/libchip_sam3s4_rel.a(release-exceptions.o)
                                                  build/obj/startup.o
PioInterruptHandler                               libchip/lib/libchip_sam3s4_rel.a(release-pio_it.o)
RSTC_IrqHandler                                   libchip/lib/libchip_sam3s4_rel.a(release-exceptions.o)
                                                  build/obj/startup.o
RTC_IrqHandler                                    libchip/lib/libchip_sam3s4_rel.a(release-exceptions.o)
                                                  build/obj/startup.o
RTT_IrqHandler                                    libchip/lib/libchip_sam3s4_rel.a(release-exceptions.o)
                                                  build/obj/startup.o
ResetException                                    build/obj/startup.o
SMC_IrqHandler                                    libchip/lib/libchip_sam3s4_rel.a(release-exceptions.o)
                                                  build/obj/startup.o
SPI_IrqHandler                                    libchip/lib/libchip_sam3s4_rel.a(release-exceptions.o)
                                                  build/obj/startup.o
SSC_IrqHandler                                    libchip/lib/libchip_sam3s4_rel.a(release-exceptions.o)
                                                  build/obj/startup.o
SUPC_IrqHandler                                   libchip/lib/libchip_sam3s4_rel.a(release-exceptions.o)
                                                  build/obj/startup.o
SVC_Handler                                       libchip/lib/libchip_sam3s4_rel.a(release-exceptions.o)
                                                  build/obj/startup.o
Sleep                                             build/obj/timetick.o
SysTick_Handler                                   build/obj/timetick.o
                                                  build/obj/startup.o
SystemCoreClock                                   build/obj/system.o
SystemCoreClockUpdate                             build/obj/system.o
                                                  build/obj/startup.o
SystemInit                                        build/obj/system.o
                                                  build/obj/startup.o
TC0_IrqHandler                                    build/obj/input.o
                                                  build/obj/startup.o
TC1_IrqHandler                                    libchip/lib/libchip_sam3s4_rel.a(release-exceptions.o)
                                                  build/obj/startup.o
TC2_IrqHandler                                    libchip/lib/libchip_sam3s4_rel.a(release-exceptions.o)
                                                  build/obj/startup.o
TC3_IrqHandler                                    libchip/lib/libchip_sam3s4_rel.a(release-exceptions.o)
                                                  build/obj/startup.o
TC4_IrqHandler                                    libchip/lib/libchip_sam3s4_rel.a(release-exceptions.o)
                                                  build/obj/startup.o
TC5_IrqHandler                                    libchip/lib/libchip_sam3s4_rel.a(release-exceptions.o)
                                                  build/obj/startup.o
TC_Configure                                      libchip/lib/libchip_sam3s4_rel.a(release-tc.o)
                                                  build/obj/input.o
TC_FindMckDivisor                                 libchip/lib/libchip_sam3s4_rel.a(release-tc.o)
                                                  build/obj/input.o
TC_Start                                          libchip/lib/libchip_sam3s4_rel.a(release-tc.o)
                                                  build/obj/input.o
TC_Stop                                           libchip/lib/libchip_sam3s4_rel.a(release-tc.o)
TWI0_IrqHandler                                   libchip/lib/libchip_sam3s4_rel.a(release-exceptions.o)
                                                  build/obj/startup.o
TWI1_IrqHandler                                   libchip/lib/libchip_sam3s4_rel.a(release-exceptions.o)
                                                  build/obj/startup.o
TimeTick_Configure                                build/obj/timetick.o
                                                  build/obj/main.o
UART0_IrqHandler                                  libchip/lib/libchip_sam3s4_rel.a(release-exceptions.o)
                                                  build/obj/startup.o
UART1_IrqHandler                                  libchip/lib/libchip_sam3s4_rel.a(release-exceptions.o)
                                                  build/obj/startup.o
UART_Configure                                    build/obj/uart_console.o
UART_Get                                          build/obj/uart_console.o
UART_Gets                                         build/obj/uart_console.o
                                                  build/obj/syscalls.o
UART_Put                                          build/obj/uart_console.o
UART_Puts                                         build/obj/uart_console.o
                                                  build/obj/syscalls.o
UART_SetTimeout                                   build/obj/uart_console.o
USART0_IrqHandler                                 libchip/lib/libchip_sam3s4_rel.a(release-exceptions.o)
                                                  build/obj/startup.o
USART1_IrqHandler                                 libchip/lib/libchip_sam3s4_rel.a(release-exceptions.o)
                                                  build/obj/startup.o
USBC_Configure                                    build/obj/usb_console.o
                                                  build/obj/main.o
USBC_Gets                                         build/obj/usb_console.o
                                                  build/obj/syscalls.o
USBC_Puts                                         build/obj/usb_console.o
                                                  build/obj/syscalls.o
USBC_SetTimeout                                   build/obj/usb_console.o
USBC_StartListening                               build/obj/usb_console.o
USBC_hasData                                      build/obj/usb_console.o
                                                  build/obj/main.o
USBC_isConfigured                                 build/obj/usb_console.o
                                                  build/obj/main.o
USBConfigurationDescriptor_GetNumInterfaces       libusb/lib/libusb_sam3s_rel.a(release-USBDescriptors.o)
USBConfigurationDescriptor_GetTotalLength         libusb/lib/libusb_sam3s_rel.a(release-USBDescriptors.o)
                                                  libusb/lib/libusb_sam3s_rel.a(release-USBDDriver.o)
USBConfigurationDescriptor_IsSelfPowered          libusb/lib/libusb_sam3s_rel.a(release-USBDescriptors.o)
                                                  libusb/lib/libusb_sam3s_rel.a(release-USBDDriver.o)
USBConfigurationDescriptor_Parse                  libusb/lib/libusb_sam3s_rel.a(release-USBDescriptors.o)
                                                  libusb/lib/libusb_sam3s_rel.a(release-USBDDriver.o)
USBDCallbacks_Initialized                         build/obj/usb_console.o
                                                  libusb/lib/libusb_sam3s_rel.a(release-USBD.o)
USBDCallbacks_RequestReceived                     build/obj/usb_console.o
                                                  libusb/lib/libusb_sam3s_rel.a(release-USBD.o)
USBDCallbacks_Reset                               libusb/lib/libusb_sam3s_rel.a(release-USBDCallbacks.o)
                                                  libusb/lib/libusb_sam3s_rel.a(release-USBD.o)
USBDCallbacks_Resumed                             libusb/lib/libusb_sam3s_rel.a(release-USBDCallbacks.o)
                                                  libusb/lib/libusb_sam3s_rel.a(release-USBD.o)
USBDCallbacks_Suspended                           libusb/lib/libusb_sam3s_rel.a(release-USBDCallbacks.o)
                                                  libusb/lib/libusb_sam3s_rel.a(release-USBD.o)
USBDDriverCallbacks_ConfigurationChanged          build/obj/usb_console.o
                                                  libusb/lib/libusb_sam3s_rel.a(release-USBDDriver.o)
USBDDriverCallbacks_InterfaceSettingChanged       libusb/lib/libusb_sam3s_rel.a(release-USBDDriverCallbacks.o)
                                                  libusb/lib/libusb_sam3s_rel.a(release-USBDDriver.o)
USBDDriver_GetCfgDescriptors                      libusb/lib/libusb_sam3s_rel.a(release-USBDDriver.o)
                                                  libusb/lib/libusb_sam3s_rel.a(release-CDCDSerialDriver.o)
USBDDriver_Initialize                             libusb/lib/libusb_sam3s_rel.a(release-USBDDriver.o)
                                                  libusb/lib/libusb_sam3s_rel.a(release-CDCDSerialDriver.o)
USBDDriver_IsRemoteWakeUpEnabled                  libusb/lib/libusb_sam3s_rel.a(release-USBDDriver.o)
USBDDriver_RequestHandler                         libusb/lib/libusb_sam3s_rel.a(release-USBDDriver.o)
                                                  libusb/lib/libusb_sam3s_rel.a(release-CDCDSerialDriver.o)
                                                  libusb/lib/libusb_sam3s_rel.a(release-USBDCallbacks.o)
USBDDriver_clearOTGFeatures                       libusb/lib/libusb_sam3s_rel.a(release-USBDDriver.o)
USBDDriver_returnOTGFeatures                      libusb/lib/libusb_sam3s_rel.a(release-USBDDriver.o)
USBD_ConfigureEndpoint                            libusb/lib/libusb_sam3s_rel.a(release-USBD.o)
                                                  libusb/lib/libusb_sam3s_rel.a(release-USBDDriver.o)
USBD_Connect                                      libusb/lib/libusb_sam3s_rel.a(release-USBD.o)
                                                  build/obj/usb_console.o
USBD_Disconnect                                   libusb/lib/libusb_sam3s_rel.a(release-USBD.o)
                                                  build/obj/usb_console.o
USBD_GetDriver                                    libusb/lib/libusb_sam3s_rel.a(release-USBDDriver.o)
                                                  libusb/lib/libusb_sam3s_rel.a(release-CDCDSerialDriver.o)
                                                  libusb/lib/libusb_sam3s_rel.a(release-USBDCallbacks.o)
USBD_GetState                                     libusb/lib/libusb_sam3s_rel.a(release-USBD.o)
                                                  libusb/lib/libusb_sam3s_rel.a(release-USBD_HAL.o)
                                                  build/obj/usb_console.o
USBD_HAL_Activate                                 libusb/lib/libusb_sam3s_rel.a(release-USBD_HAL.o)
                                                  libusb/lib/libusb_sam3s_rel.a(release-USBD.o)
USBD_HAL_CancelIo                                 libusb/lib/libusb_sam3s_rel.a(release-USBD_HAL.o)
                                                  build/obj/usb_console.o
USBD_HAL_ConfigureEP                              libusb/lib/libusb_sam3s_rel.a(release-USBD_HAL.o)
                                                  libusb/lib/libusb_sam3s_rel.a(release-USBD.o)
USBD_HAL_Connect                                  libusb/lib/libusb_sam3s_rel.a(release-USBD_HAL.o)
                                                  libusb/lib/libusb_sam3s_rel.a(release-USBD.o)
USBD_HAL_Disconnect                               libusb/lib/libusb_sam3s_rel.a(release-USBD_HAL.o)
                                                  libusb/lib/libusb_sam3s_rel.a(release-USBD.o)
USBD_HAL_Halt                                     libusb/lib/libusb_sam3s_rel.a(release-USBD_HAL.o)
                                                  libusb/lib/libusb_sam3s_rel.a(release-USBDDriver.o)
                                                  libusb/lib/libusb_sam3s_rel.a(release-USBD.o)
USBD_HAL_Init                                     libusb/lib/libusb_sam3s_rel.a(release-USBD_HAL.o)
                                                  libusb/lib/libusb_sam3s_rel.a(release-USBD.o)
USBD_HAL_IsHighSpeed                              libusb/lib/libusb_sam3s_rel.a(release-USBD_HAL.o)
                                                  libusb/lib/libusb_sam3s_rel.a(release-USBDDriver.o)
                                                  libusb/lib/libusb_sam3s_rel.a(release-USBD.o)
USBD_HAL_Read                                     libusb/lib/libusb_sam3s_rel.a(release-USBD_HAL.o)
                                                  libusb/lib/libusb_sam3s_rel.a(release-USBD.o)
USBD_HAL_RemoteWakeUp                             libusb/lib/libusb_sam3s_rel.a(release-USBD_HAL.o)
                                                  libusb/lib/libusb_sam3s_rel.a(release-USBD.o)
USBD_HAL_ResetEPs                                 libusb/lib/libusb_sam3s_rel.a(release-USBD_HAL.o)
                                                  libusb/lib/libusb_sam3s_rel.a(release-USBD.o)
USBD_HAL_SetAddress                               libusb/lib/libusb_sam3s_rel.a(release-USBD_HAL.o)
                                                  libusb/lib/libusb_sam3s_rel.a(release-USBD.o)
USBD_HAL_SetConfiguration                         libusb/lib/libusb_sam3s_rel.a(release-USBD_HAL.o)
                                                  libusb/lib/libusb_sam3s_rel.a(release-USBD.o)
USBD_HAL_SetTransferCallback                      libusb/lib/libusb_sam3s_rel.a(release-USBD_HAL.o)
                                                  libusb/lib/libusb_sam3s_rel.a(release-USBD.o)
USBD_HAL_SetupMblTransfer                         libusb/lib/libusb_sam3s_rel.a(release-USBD_HAL.o)
USBD_HAL_Stall                                    libusb/lib/libusb_sam3s_rel.a(release-USBD_HAL.o)
                                                  libusb/lib/libusb_sam3s_rel.a(release-USBD.o)
USBD_HAL_Suspend                                  libusb/lib/libusb_sam3s_rel.a(release-USBD_HAL.o)
                                                  libusb/lib/libusb_sam3s_rel.a(release-USBD.o)
USBD_HAL_Write                                    libusb/lib/libusb_sam3s_rel.a(release-USBD_HAL.o)
                                                  libusb/lib/libusb_sam3s_rel.a(release-USBD.o)
USBD_Halt                                         libusb/lib/libusb_sam3s_rel.a(release-USBD.o)
                                                  libusb/lib/libusb_sam3s_rel.a(release-USBDDriver.o)
USBD_Init                                         libusb/lib/libusb_sam3s_rel.a(release-USBD.o)
                                                  libusb/lib/libusb_sam3s_rel.a(release-CDCDSerialDriver.o)
USBD_IrqHandler                                   libusb/lib/libusb_sam3s_rel.a(release-USBD_HAL.o)
                                                  build/obj/startup.o
USBD_IsHalted                                     libusb/lib/libusb_sam3s_rel.a(release-USBD.o)
USBD_IsHighSpeed                                  libusb/lib/libusb_sam3s_rel.a(release-USBD.o)
                                                  libusb/lib/libusb_sam3s_rel.a(release-USBDDriver.o)
USBD_Read                                         libusb/lib/libusb_sam3s_rel.a(release-USBD.o)
                                                  libusb/lib/libusb_sam3s_rel.a(release-CDCDSerialPort.o)
USBD_RemoteWakeUp                                 libusb/lib/libusb_sam3s_rel.a(release-USBD.o)
USBD_RequestHandler                               libusb/lib/libusb_sam3s_rel.a(release-USBD.o)
                                                  libusb/lib/libusb_sam3s_rel.a(release-USBD_HAL.o)
USBD_ResetHandler                                 libusb/lib/libusb_sam3s_rel.a(release-USBD.o)
                                                  libusb/lib/libusb_sam3s_rel.a(release-USBD_HAL.o)
USBD_ResumeHandler                                libusb/lib/libusb_sam3s_rel.a(release-USBD.o)
                                                  libusb/lib/libusb_sam3s_rel.a(release-USBD_HAL.o)
USBD_SetAddress                                   libusb/lib/libusb_sam3s_rel.a(release-USBD.o)
                                                  libusb/lib/libusb_sam3s_rel.a(release-USBDDriver.o)
USBD_SetConfiguration                             libusb/lib/libusb_sam3s_rel.a(release-USBD.o)
                                                  libusb/lib/libusb_sam3s_rel.a(release-USBDDriver.o)
USBD_Stall                                        libusb/lib/libusb_sam3s_rel.a(release-USBD.o)
                                                  libusb/lib/libusb_sam3s_rel.a(release-CDCDSerialPort.o)
                                                  libusb/lib/libusb_sam3s_rel.a(release-USBDDriver.o)
USBD_SuspendHandler                               libusb/lib/libusb_sam3s_rel.a(release-USBD.o)
                                                  libusb/lib/libusb_sam3s_rel.a(release-USBD_HAL.o)
USBD_Unhalt                                       libusb/lib/libusb_sam3s_rel.a(release-USBD.o)
                                                  libusb/lib/libusb_sam3s_rel.a(release-USBDDriver.o)
USBD_Write                                        libusb/lib/libusb_sam3s_rel.a(release-USBD.o)
                                                  libusb/lib/libusb_sam3s_rel.a(release-CDCDSerialPort.o)
                                                  libusb/lib/libusb_sam3s_rel.a(release-USBDDriver.o)
USBEndpointDescriptor_GetDirection                libusb/lib/libusb_sam3s_rel.a(release-USBDescriptors.o)
                                                  libusb/lib/libusb_sam3s_rel.a(release-USBD_HAL.o)
USBEndpointDescriptor_GetInterval                 libusb/lib/libusb_sam3s_rel.a(release-USBDescriptors.o)
USBEndpointDescriptor_GetMaxPacketSize            libusb/lib/libusb_sam3s_rel.a(release-USBDescriptors.o)
                                                  libusb/lib/libusb_sam3s_rel.a(release-USBD_HAL.o)
USBEndpointDescriptor_GetNumber                   libusb/lib/libusb_sam3s_rel.a(release-USBDescriptors.o)
                                                  libusb/lib/libusb_sam3s_rel.a(release-USBD_HAL.o)
USBEndpointDescriptor_GetType                     libusb/lib/libusb_sam3s_rel.a(release-USBDescriptors.o)
                                                  libusb/lib/libusb_sam3s_rel.a(release-USBD_HAL.o)
USBFeatureRequest_GetFeatureSelector              libusb/lib/libusb_sam3s_rel.a(release-USBRequests.o)
                                                  libusb/lib/libusb_sam3s_rel.a(release-USBDDriver.o)
USBFeatureRequest_GetTestSelector                 libusb/lib/libusb_sam3s_rel.a(release-USBRequests.o)
USBGenericDescriptor_GetLength                    libusb/lib/libusb_sam3s_rel.a(release-USBDescriptors.o)
                                                  libusb/lib/libusb_sam3s_rel.a(release-USBDDriver.o)
USBGenericDescriptor_GetNextDescriptor            libusb/lib/libusb_sam3s_rel.a(release-USBDescriptors.o)
USBGenericDescriptor_GetType                      libusb/lib/libusb_sam3s_rel.a(release-USBDescriptors.o)
USBGenericDescriptor_Parse                        libusb/lib/libusb_sam3s_rel.a(release-USBDescriptors.o)
                                                  libusb/lib/libusb_sam3s_rel.a(release-CDCDSerialPort.o)
USBGenericRequest_GetDirection                    libusb/lib/libusb_sam3s_rel.a(release-USBRequests.o)
                                                  libusb/lib/libusb_sam3s_rel.a(release-USBD_HAL.o)
USBGenericRequest_GetEndpointNumber               libusb/lib/libusb_sam3s_rel.a(release-USBRequests.o)
                                                  libusb/lib/libusb_sam3s_rel.a(release-USBDDriver.o)
USBGenericRequest_GetIndex                        libusb/lib/libusb_sam3s_rel.a(release-USBRequests.o)
USBGenericRequest_GetLength                       libusb/lib/libusb_sam3s_rel.a(release-USBRequests.o)
                                                  libusb/lib/libusb_sam3s_rel.a(release-USBDDriver.o)
USBGenericRequest_GetRecipient                    libusb/lib/libusb_sam3s_rel.a(release-USBRequests.o)
                                                  libusb/lib/libusb_sam3s_rel.a(release-USBDDriver.o)
USBGenericRequest_GetRequest                      libusb/lib/libusb_sam3s_rel.a(release-USBRequests.o)
                                                  libusb/lib/libusb_sam3s_rel.a(release-CDCDSerialPort.o)
                                                  libusb/lib/libusb_sam3s_rel.a(release-USBDDriver.o)
USBGenericRequest_GetType                         libusb/lib/libusb_sam3s_rel.a(release-USBRequests.o)
                                                  libusb/lib/libusb_sam3s_rel.a(release-CDCDSerialPort.o)
USBGenericRequest_GetValue                        libusb/lib/libusb_sam3s_rel.a(release-USBRequests.o)
USBGetDescriptorRequest_GetDescriptorIndex        libusb/lib/libusb_sam3s_rel.a(release-USBRequests.o)
                                                  libusb/lib/libusb_sam3s_rel.a(release-USBDDriver.o)
USBGetDescriptorRequest_GetDescriptorType         libusb/lib/libusb_sam3s_rel.a(release-USBRequests.o)
                                                  libusb/lib/libusb_sam3s_rel.a(release-USBDDriver.o)
USBInterfaceRequest_GetAlternateSetting           libusb/lib/libusb_sam3s_rel.a(release-USBRequests.o)
                                                  libusb/lib/libusb_sam3s_rel.a(release-USBDDriver.o)
USBInterfaceRequest_GetInterface                  libusb/lib/libusb_sam3s_rel.a(release-USBRequests.o)
                                                  libusb/lib/libusb_sam3s_rel.a(release-USBDDriver.o)
USBSetAddressRequest_GetAddress                   libusb/lib/libusb_sam3s_rel.a(release-USBRequests.o)
                                                  libusb/lib/libusb_sam3s_rel.a(release-USBDDriver.o)
USBSetConfigurationRequest_GetConfiguration       libusb/lib/libusb_sam3s_rel.a(release-USBRequests.o)
                                                  libusb/lib/libusb_sam3s_rel.a(release-USBDDriver.o)
UsageFault_Handler                                libchip/lib/libchip_sam3s4_rel.a(release-exceptions.o)
                                                  build/obj/startup.o
WDT_IrqHandler                                    libchip/lib/libchip_sam3s4_rel.a(release-exceptions.o)
                                                  build/obj/startup.o
Wait                                              build/obj/timetick.o
_Jv_RegisterClasses                               /usr/local/lib64/gcc/arm-none-eabi/4.5.2/thumb/v7/crtbegin.o
_PathLocale                                       /usr/local/lib64/gcc/arm-none-eabi/4.5.2/../../../../arm-none-eabi/lib/libg.a(lib_a-locale.o)
__aeabi_idiv0                                     /usr/local/lib64/gcc/arm-none-eabi/4.5.2/thumb/v7/libgcc.a(_dvmd_tls.o)
                                                  /usr/local/lib64/gcc/arm-none-eabi/4.5.2/thumb/v7/libgcc.a(_udivsi3.o)
__aeabi_ldiv0                                     /usr/local/lib64/gcc/arm-none-eabi/4.5.2/thumb/v7/libgcc.a(_dvmd_tls.o)
__aeabi_uidiv                                     /usr/local/lib64/gcc/arm-none-eabi/4.5.2/thumb/v7/libgcc.a(_udivsi3.o)
                                                  /usr/local/lib64/gcc/arm-none-eabi/4.5.2/../../../../arm-none-eabi/lib/libg.a(lib_a-strtoul.o)
                                                  /usr/local/lib64/gcc/arm-none-eabi/4.5.2/../../../../arm-none-eabi/lib/libg.a(lib_a-strtol.o)
                                                  /usr/local/lib64/gcc/arm-none-eabi/4.5.2/../../../../arm-none-eabi/lib/libg.a(lib_a-svfiscanf.o)
__aeabi_uidivmod                                  /usr/local/lib64/gcc/arm-none-eabi/4.5.2/thumb/v7/libgcc.a(_udivsi3.o)
                                                  /usr/local/lib64/gcc/arm-none-eabi/4.5.2/../../../../arm-none-eabi/lib/libg.a(lib_a-strtoul.o)
                                                  /usr/local/lib64/gcc/arm-none-eabi/4.5.2/../../../../arm-none-eabi/lib/libg.a(lib_a-strtol.o)
__ascii_mbtowc                                    /usr/local/lib64/gcc/arm-none-eabi/4.5.2/../../../../arm-none-eabi/lib/libg.a(lib_a-mbtowc_r.o)
__ascii_wctomb                                    /usr/local/lib64/gcc/arm-none-eabi/4.5.2/../../../../arm-none-eabi/lib/libg.a(lib_a-wctomb_r.o)
__assert                                          /usr/local/lib64/gcc/arm-none-eabi/4.5.2/../../../../arm-none-eabi/lib/libg.a(lib_a-assert.o)
__assert_func                                     /usr/local/lib64/gcc/arm-none-eabi/4.5.2/../../../../arm-none-eabi/lib/libg.a(lib_a-assert.o)
                                                  libchip/lib/libchip_sam3s4_rel.a(release-pio_capture.o)
                                                  libchip/lib/libchip_sam3s4_rel.a(release-tc.o)
                                                  libchip/lib/libchip_sam3s4_rel.a(release-pmc.o)
                                                  libchip/lib/libchip_sam3s4_rel.a(release-adc.o)
                                                  libchip/lib/libchip_sam3s4_rel.a(release-pio_it.o)
                                                  build/obj/led.o
__bss_end__                                       /usr/local/lib64/gcc/arm-none-eabi/4.5.2/../../../../arm-none-eabi/lib/crt0.o
__bss_start__                                     /usr/local/lib64/gcc/arm-none-eabi/4.5.2/../../../../arm-none-eabi/lib/crt0.o
__call_exitprocs                                  /usr/local/lib64/gcc/arm-none-eabi/4.5.2/../../../../arm-none-eabi/lib/libc.a(lib_a-__call_atexit.o)
                                                  /usr/local/lib64/gcc/arm-none-eabi/4.5.2/../../../../arm-none-eabi/lib/libc.a(lib_a-exit.o)
__ctype_ptr__                                     /usr/local/lib64/gcc/arm-none-eabi/4.5.2/../../../../arm-none-eabi/lib/libg.a(lib_a-ctype_.o)
                                                  /usr/local/lib64/gcc/arm-none-eabi/4.5.2/../../../../arm-none-eabi/lib/libg.a(lib_a-strtoul.o)
                                                  /usr/local/lib64/gcc/arm-none-eabi/4.5.2/../../../../arm-none-eabi/lib/libg.a(lib_a-strtol.o)
                                                  /usr/local/lib64/gcc/arm-none-eabi/4.5.2/../../../../arm-none-eabi/lib/libg.a(lib_a-iswspace.o)
                                                  /usr/local/lib64/gcc/arm-none-eabi/4.5.2/../../../../arm-none-eabi/lib/libg.a(lib_a-svfiscanf.o)
__dso_handle                                      /usr/local/lib64/gcc/arm-none-eabi/4.5.2/thumb/v7/crtbegin.o
__fini_array_end                                  /usr/local/lib64/gcc/arm-none-eabi/4.5.2/../../../../arm-none-eabi/lib/libc.a(lib_a-fini.o)
__fini_array_start                                /usr/local/lib64/gcc/arm-none-eabi/4.5.2/../../../../arm-none-eabi/lib/libc.a(lib_a-fini.o)
__fp_lock_all                                     /usr/local/lib64/gcc/arm-none-eabi/4.5.2/../../../../arm-none-eabi/lib/libg.a(lib_a-findfp.o)
__fp_unlock_all                                   /usr/local/lib64/gcc/arm-none-eabi/4.5.2/../../../../arm-none-eabi/lib/libg.a(lib_a-findfp.o)
__init_array_end                                  /usr/local/lib64/gcc/arm-none-eabi/4.5.2/../../../../arm-none-eabi/lib/libc.a(lib_a-init.o)
__init_array_start                                /usr/local/lib64/gcc/arm-none-eabi/4.5.2/../../../../arm-none-eabi/lib/libc.a(lib_a-init.o)
__libc_fini_array                                 /usr/local/lib64/gcc/arm-none-eabi/4.5.2/../../../../arm-none-eabi/lib/libc.a(lib_a-fini.o)
                                                  /usr/local/lib64/gcc/arm-none-eabi/4.5.2/../../../../arm-none-eabi/lib/crt0.o
__libc_init_array                                 /usr/local/lib64/gcc/arm-none-eabi/4.5.2/../../../../arm-none-eabi/lib/libc.a(lib_a-init.o)
                                                  /usr/local/lib64/gcc/arm-none-eabi/4.5.2/../../../../arm-none-eabi/lib/crt0.o
__locale_charset                                  /usr/local/lib64/gcc/arm-none-eabi/4.5.2/../../../../arm-none-eabi/lib/libg.a(lib_a-locale.o)
                                                  /usr/local/lib64/gcc/arm-none-eabi/4.5.2/../../../../arm-none-eabi/lib/libg.a(lib_a-wctomb_r.o)
                                                  /usr/local/lib64/gcc/arm-none-eabi/4.5.2/../../../../arm-none-eabi/lib/libg.a(lib_a-wcrtomb.o)
                                                  /usr/local/lib64/gcc/arm-none-eabi/4.5.2/../../../../arm-none-eabi/lib/libg.a(lib_a-mbtowc_r.o)
                                                  /usr/local/lib64/gcc/arm-none-eabi/4.5.2/../../../../arm-none-eabi/lib/libg.a(lib_a-mbrtowc.o)
__locale_cjk_lang                                 /usr/local/lib64/gcc/arm-none-eabi/4.5.2/../../../../arm-none-eabi/lib/libg.a(lib_a-locale.o)
__locale_mb_cur_max                               /usr/local/lib64/gcc/arm-none-eabi/4.5.2/../../../../arm-none-eabi/lib/libg.a(lib_a-locale.o)
                                                  /usr/local/lib64/gcc/arm-none-eabi/4.5.2/../../../../arm-none-eabi/lib/libg.a(lib_a-fputwc.o)
                                                  /usr/local/lib64/gcc/arm-none-eabi/4.5.2/../../../../arm-none-eabi/lib/libg.a(lib_a-svfiscanf.o)
__locale_msgcharset                               /usr/local/lib64/gcc/arm-none-eabi/4.5.2/../../../../arm-none-eabi/lib/libg.a(lib_a-locale.o)
__malloc_av_                                      /usr/local/lib64/gcc/arm-none-eabi/4.5.2/../../../../arm-none-eabi/lib/libg.a(lib_a-mallocr.o)
                                                  /usr/local/lib64/gcc/arm-none-eabi/4.5.2/../../../../arm-none-eabi/lib/libg.a(lib_a-reallocr.o)
                                                  /usr/local/lib64/gcc/arm-none-eabi/4.5.2/../../../../arm-none-eabi/lib/libg.a(lib_a-freer.o)
__malloc_current_mallinfo                         /usr/local/lib64/gcc/arm-none-eabi/4.5.2/../../../../arm-none-eabi/lib/libg.a(lib_a-mallocr.o)
                                                  /usr/local/lib64/gcc/arm-none-eabi/4.5.2/../../../../arm-none-eabi/lib/libg.a(lib_a-freer.o)
__malloc_lock                                     /usr/local/lib64/gcc/arm-none-eabi/4.5.2/../../../../arm-none-eabi/lib/libg.a(lib_a-mlock.o)
                                                  /usr/local/lib64/gcc/arm-none-eabi/4.5.2/../../../../arm-none-eabi/lib/libg.a(lib_a-reallocr.o)
                                                  /usr/local/lib64/gcc/arm-none-eabi/4.5.2/../../../../arm-none-eabi/lib/libg.a(lib_a-mallocr.o)
                                                  /usr/local/lib64/gcc/arm-none-eabi/4.5.2/../../../../arm-none-eabi/lib/libg.a(lib_a-freer.o)
__malloc_max_sbrked_mem                           /usr/local/lib64/gcc/arm-none-eabi/4.5.2/../../../../arm-none-eabi/lib/libg.a(lib_a-mallocr.o)
__malloc_max_total_mem                            /usr/local/lib64/gcc/arm-none-eabi/4.5.2/../../../../arm-none-eabi/lib/libg.a(lib_a-mallocr.o)
__malloc_sbrk_base                                /usr/local/lib64/gcc/arm-none-eabi/4.5.2/../../../../arm-none-eabi/lib/libg.a(lib_a-mallocr.o)
                                                  /usr/local/lib64/gcc/arm-none-eabi/4.5.2/../../../../arm-none-eabi/lib/libg.a(lib_a-freer.o)
__malloc_top_pad                                  /usr/local/lib64/gcc/arm-none-eabi/4.5.2/../../../../arm-none-eabi/lib/libg.a(lib_a-mallocr.o)
                                                  /usr/local/lib64/gcc/arm-none-eabi/4.5.2/../../../../arm-none-eabi/lib/libg.a(lib_a-freer.o)
__malloc_trim_threshold                           /usr/local/lib64/gcc/arm-none-eabi/4.5.2/../../../../arm-none-eabi/lib/libg.a(lib_a-mallocr.o)
                                                  /usr/local/lib64/gcc/arm-none-eabi/4.5.2/../../../../arm-none-eabi/lib/libg.a(lib_a-freer.o)
__malloc_unlock                                   /usr/local/lib64/gcc/arm-none-eabi/4.5.2/../../../../arm-none-eabi/lib/libg.a(lib_a-mlock.o)
                                                  /usr/local/lib64/gcc/arm-none-eabi/4.5.2/../../../../arm-none-eabi/lib/libg.a(lib_a-reallocr.o)
                                                  /usr/local/lib64/gcc/arm-none-eabi/4.5.2/../../../../arm-none-eabi/lib/libg.a(lib_a-mallocr.o)
                                                  /usr/local/lib64/gcc/arm-none-eabi/4.5.2/../../../../arm-none-eabi/lib/libg.a(lib_a-freer.o)
__mb_cur_max                                      /usr/local/lib64/gcc/arm-none-eabi/4.5.2/../../../../arm-none-eabi/lib/libg.a(lib_a-locale.o)
__mbtowc                                          /usr/local/lib64/gcc/arm-none-eabi/4.5.2/../../../../arm-none-eabi/lib/libg.a(lib_a-mbtowc_r.o)
                                                  /usr/local/lib64/gcc/arm-none-eabi/4.5.2/../../../../arm-none-eabi/lib/libg.a(lib_a-mbrtowc.o)
__mlocale_changed                                 /usr/local/lib64/gcc/arm-none-eabi/4.5.2/../../../../arm-none-eabi/lib/libg.a(lib_a-locale.o)
__nlocale_changed                                 /usr/local/lib64/gcc/arm-none-eabi/4.5.2/../../../../arm-none-eabi/lib/libg.a(lib_a-locale.o)
__preinit_array_end                               /usr/local/lib64/gcc/arm-none-eabi/4.5.2/../../../../arm-none-eabi/lib/libc.a(lib_a-init.o)
__preinit_array_start                             /usr/local/lib64/gcc/arm-none-eabi/4.5.2/../../../../arm-none-eabi/lib/libc.a(lib_a-init.o)
__register_exitproc                               /usr/local/lib64/gcc/arm-none-eabi/4.5.2/../../../../arm-none-eabi/lib/libc.a(lib_a-__atexit.o)
                                                  /usr/local/lib64/gcc/arm-none-eabi/4.5.2/../../../../arm-none-eabi/lib/libc.a(lib_a-atexit.o)
__sccl                                            /usr/local/lib64/gcc/arm-none-eabi/4.5.2/../../../../arm-none-eabi/lib/libg.a(lib_a-sccl.o)
                                                  /usr/local/lib64/gcc/arm-none-eabi/4.5.2/../../../../arm-none-eabi/lib/libg.a(lib_a-svfiscanf.o)
__sclose                                          /usr/local/lib64/gcc/arm-none-eabi/4.5.2/../../../../arm-none-eabi/lib/libg.a(lib_a-stdio.o)
                                                  /usr/local/lib64/gcc/arm-none-eabi/4.5.2/../../../../arm-none-eabi/lib/libg.a(lib_a-findfp.o)
__seofread                                        /usr/local/lib64/gcc/arm-none-eabi/4.5.2/../../../../arm-none-eabi/lib/libg.a(lib_a-stdio.o)
                                                  /usr/local/lib64/gcc/arm-none-eabi/4.5.2/../../../../arm-none-eabi/lib/libg.a(lib_a-siscanf.o)
__sfmoreglue                                      /usr/local/lib64/gcc/arm-none-eabi/4.5.2/../../../../arm-none-eabi/lib/libg.a(lib_a-findfp.o)
__sfp                                             /usr/local/lib64/gcc/arm-none-eabi/4.5.2/../../../../arm-none-eabi/lib/libg.a(lib_a-findfp.o)
__sfp_lock_acquire                                /usr/local/lib64/gcc/arm-none-eabi/4.5.2/../../../../arm-none-eabi/lib/libg.a(lib_a-findfp.o)
                                                  /usr/local/lib64/gcc/arm-none-eabi/4.5.2/../../../../arm-none-eabi/lib/libg.a(lib_a-fclose.o)
                                                  /usr/local/lib64/gcc/arm-none-eabi/4.5.2/../../../../arm-none-eabi/lib/libg.a(lib_a-fwalk.o)
                                                  /usr/local/lib64/gcc/arm-none-eabi/4.5.2/../../../../arm-none-eabi/lib/libg.a(lib_a-svfiscanf.o)
                                                  /usr/local/lib64/gcc/arm-none-eabi/4.5.2/../../../../arm-none-eabi/lib/libg.a(lib_a-gets.o)
__sfp_lock_release                                /usr/local/lib64/gcc/arm-none-eabi/4.5.2/../../../../arm-none-eabi/lib/libg.a(lib_a-findfp.o)
                                                  /usr/local/lib64/gcc/arm-none-eabi/4.5.2/../../../../arm-none-eabi/lib/libg.a(lib_a-fclose.o)
                                                  /usr/local/lib64/gcc/arm-none-eabi/4.5.2/../../../../arm-none-eabi/lib/libg.a(lib_a-fwalk.o)
                                                  /usr/local/lib64/gcc/arm-none-eabi/4.5.2/../../../../arm-none-eabi/lib/libg.a(lib_a-svfiscanf.o)
                                                  /usr/local/lib64/gcc/arm-none-eabi/4.5.2/../../../../arm-none-eabi/lib/libg.a(lib_a-gets.o)
__sfvwrite_r                                      /usr/local/lib64/gcc/arm-none-eabi/4.5.2/../../../../arm-none-eabi/lib/libg.a(lib_a-fvwrite.o)
                                                  /usr/local/lib64/gcc/arm-none-eabi/4.5.2/../../../../arm-none-eabi/lib/libg.a(lib_a-vfiprintf.o)
__sigtramp                                        /usr/local/lib64/gcc/arm-none-eabi/4.5.2/../../../../arm-none-eabi/lib/libg.a(lib_a-signal.o)
__sigtramp_r                                      /usr/local/lib64/gcc/arm-none-eabi/4.5.2/../../../../arm-none-eabi/lib/libg.a(lib_a-signal.o)
__sinit                                           /usr/local/lib64/gcc/arm-none-eabi/4.5.2/../../../../arm-none-eabi/lib/libg.a(lib_a-findfp.o)
                                                  /usr/local/lib64/gcc/arm-none-eabi/4.5.2/../../../../arm-none-eabi/lib/libg.a(lib_a-fclose.o)
                                                  /usr/local/lib64/gcc/arm-none-eabi/4.5.2/../../../../arm-none-eabi/lib/libg.a(lib_a-wbuf.o)
                                                  /usr/local/lib64/gcc/arm-none-eabi/4.5.2/../../../../arm-none-eabi/lib/libg.a(lib_a-refill.o)
                                                  /usr/local/lib64/gcc/arm-none-eabi/4.5.2/../../../../arm-none-eabi/lib/libg.a(lib_a-fputwc.o)
                                                  /usr/local/lib64/gcc/arm-none-eabi/4.5.2/../../../../arm-none-eabi/lib/libg.a(lib_a-fflush.o)
                                                  /usr/local/lib64/gcc/arm-none-eabi/4.5.2/../../../../arm-none-eabi/lib/libg.a(lib_a-wsetup.o)
                                                  /usr/local/lib64/gcc/arm-none-eabi/4.5.2/../../../../arm-none-eabi/lib/libg.a(lib_a-vfiprintf.o)
                                                  /usr/local/lib64/gcc/arm-none-eabi/4.5.2/../../../../arm-none-eabi/lib/libg.a(lib_a-ungetc.o)
                                                  /usr/local/lib64/gcc/arm-none-eabi/4.5.2/../../../../arm-none-eabi/lib/libg.a(lib_a-setvbuf.o)
                                                  /usr/local/lib64/gcc/arm-none-eabi/4.5.2/../../../../arm-none-eabi/lib/libg.a(lib_a-rget.o)
__sinit_lock_acquire                              /usr/local/lib64/gcc/arm-none-eabi/4.5.2/../../../../arm-none-eabi/lib/libg.a(lib_a-findfp.o)
__sinit_lock_release                              /usr/local/lib64/gcc/arm-none-eabi/4.5.2/../../../../arm-none-eabi/lib/libg.a(lib_a-findfp.o)
__smakebuf_r                                      /usr/local/lib64/gcc/arm-none-eabi/4.5.2/../../../../arm-none-eabi/lib/libg.a(lib_a-makebuf.o)
                                                  /usr/local/lib64/gcc/arm-none-eabi/4.5.2/../../../../arm-none-eabi/lib/libg.a(lib_a-refill.o)
                                                  /usr/local/lib64/gcc/arm-none-eabi/4.5.2/../../../../arm-none-eabi/lib/libg.a(lib_a-wsetup.o)
__sprint_r                                        /usr/local/lib64/gcc/arm-none-eabi/4.5.2/../../../../arm-none-eabi/lib/libg.a(lib_a-vfiprintf.o)
__sread                                           /usr/local/lib64/gcc/arm-none-eabi/4.5.2/../../../../arm-none-eabi/lib/libg.a(lib_a-stdio.o)
                                                  /usr/local/lib64/gcc/arm-none-eabi/4.5.2/../../../../arm-none-eabi/lib/libg.a(lib_a-findfp.o)
__srefill_r                                       /usr/local/lib64/gcc/arm-none-eabi/4.5.2/../../../../arm-none-eabi/lib/libg.a(lib_a-refill.o)
                                                  /usr/local/lib64/gcc/arm-none-eabi/4.5.2/../../../../arm-none-eabi/lib/libg.a(lib_a-rget.o)
__srget                                           /usr/local/lib64/gcc/arm-none-eabi/4.5.2/../../../../arm-none-eabi/lib/libg.a(lib_a-rget.o)
__srget_r                                         /usr/local/lib64/gcc/arm-none-eabi/4.5.2/../../../../arm-none-eabi/lib/libg.a(lib_a-rget.o)
                                                  /usr/local/lib64/gcc/arm-none-eabi/4.5.2/../../../../arm-none-eabi/lib/libg.a(lib_a-gets.o)
__sseek                                           /usr/local/lib64/gcc/arm-none-eabi/4.5.2/../../../../arm-none-eabi/lib/libg.a(lib_a-stdio.o)
                                                  /usr/local/lib64/gcc/arm-none-eabi/4.5.2/../../../../arm-none-eabi/lib/libg.a(lib_a-makebuf.o)
                                                  /usr/local/lib64/gcc/arm-none-eabi/4.5.2/../../../../arm-none-eabi/lib/libg.a(lib_a-findfp.o)
__ssrefill_r                                      /usr/local/lib64/gcc/arm-none-eabi/4.5.2/../../../../arm-none-eabi/lib/libg.a(lib_a-svfiscanf.o)
__ssvfiscanf_r                                    /usr/local/lib64/gcc/arm-none-eabi/4.5.2/../../../../arm-none-eabi/lib/libg.a(lib_a-svfiscanf.o)
                                                  /usr/local/lib64/gcc/arm-none-eabi/4.5.2/../../../../arm-none-eabi/lib/libg.a(lib_a-siscanf.o)
__stack                                           /usr/local/lib64/gcc/arm-none-eabi/4.5.2/../../../../arm-none-eabi/lib/crt0.o
__submore                                         /usr/local/lib64/gcc/arm-none-eabi/4.5.2/../../../../arm-none-eabi/lib/libg.a(lib_a-ungetc.o)
                                                  /usr/local/lib64/gcc/arm-none-eabi/4.5.2/../../../../arm-none-eabi/lib/libg.a(lib_a-svfiscanf.o)
__swbuf                                           /usr/local/lib64/gcc/arm-none-eabi/4.5.2/../../../../arm-none-eabi/lib/libg.a(lib_a-wbuf.o)
__swbuf_r                                         /usr/local/lib64/gcc/arm-none-eabi/4.5.2/../../../../arm-none-eabi/lib/libg.a(lib_a-wbuf.o)
                                                  /usr/local/lib64/gcc/arm-none-eabi/4.5.2/../../../../arm-none-eabi/lib/libg.a(lib_a-fputwc.o)
__swrite                                          /usr/local/lib64/gcc/arm-none-eabi/4.5.2/../../../../arm-none-eabi/lib/libg.a(lib_a-stdio.o)
                                                  /usr/local/lib64/gcc/arm-none-eabi/4.5.2/../../../../arm-none-eabi/lib/libg.a(lib_a-findfp.o)
__swsetup_r                                       /usr/local/lib64/gcc/arm-none-eabi/4.5.2/../../../../arm-none-eabi/lib/libg.a(lib_a-wsetup.o)
                                                  /usr/local/lib64/gcc/arm-none-eabi/4.5.2/../../../../arm-none-eabi/lib/libg.a(lib_a-wbuf.o)
                                                  /usr/local/lib64/gcc/arm-none-eabi/4.5.2/../../../../arm-none-eabi/lib/libg.a(lib_a-fvwrite.o)
                                                  /usr/local/lib64/gcc/arm-none-eabi/4.5.2/../../../../arm-none-eabi/lib/libg.a(lib_a-vfiprintf.o)
__udivsi3                                         /usr/local/lib64/gcc/arm-none-eabi/4.5.2/thumb/v7/libgcc.a(_udivsi3.o)
__wctomb                                          /usr/local/lib64/gcc/arm-none-eabi/4.5.2/../../../../arm-none-eabi/lib/libg.a(lib_a-wctomb_r.o)
                                                  /usr/local/lib64/gcc/arm-none-eabi/4.5.2/../../../../arm-none-eabi/lib/libg.a(lib_a-wcrtomb.o)
_cleanup                                          /usr/local/lib64/gcc/arm-none-eabi/4.5.2/../../../../arm-none-eabi/lib/libg.a(lib_a-findfp.o)
_cleanup_r                                        /usr/local/lib64/gcc/arm-none-eabi/4.5.2/../../../../arm-none-eabi/lib/libg.a(lib_a-findfp.o)
                                                  /usr/local/lib64/gcc/arm-none-eabi/4.5.2/../../../../arm-none-eabi/lib/libg.a(lib_a-makebuf.o)
                                                  /usr/local/lib64/gcc/arm-none-eabi/4.5.2/../../../../arm-none-eabi/lib/libg.a(lib_a-setvbuf.o)
_close                                            build/obj/syscalls.o
                                                  /usr/local/lib64/gcc/arm-none-eabi/4.5.2/../../../../arm-none-eabi/lib/libg.a(lib_a-closer.o)
_close_r                                          /usr/local/lib64/gcc/arm-none-eabi/4.5.2/../../../../arm-none-eabi/lib/libg.a(lib_a-closer.o)
                                                  /usr/local/lib64/gcc/arm-none-eabi/4.5.2/../../../../arm-none-eabi/lib/libg.a(lib_a-stdio.o)
_ctype_                                           /usr/local/lib64/gcc/arm-none-eabi/4.5.2/../../../../arm-none-eabi/lib/libg.a(lib_a-ctype_.o)
_end                                              build/obj/syscalls.o
_erelocate                                        build/obj/startup.o
_etext                                            build/obj/startup.o
_exit                                             build/obj/syscalls.o
                                                  /usr/local/lib64/gcc/arm-none-eabi/4.5.2/../../../../arm-none-eabi/lib/libg.a(lib_a-abort.o)
                                                  /usr/local/lib64/gcc/arm-none-eabi/4.5.2/../../../../arm-none-eabi/lib/libc.a(lib_a-exit.o)
_ezero                                            build/obj/startup.o
_fclose_r                                         /usr/local/lib64/gcc/arm-none-eabi/4.5.2/../../../../arm-none-eabi/lib/libg.a(lib_a-fclose.o)
_fflush_r                                         /usr/local/lib64/gcc/arm-none-eabi/4.5.2/../../../../arm-none-eabi/lib/libg.a(lib_a-fflush.o)
                                                  /usr/local/lib64/gcc/arm-none-eabi/4.5.2/../../../../arm-none-eabi/lib/libg.a(lib_a-fclose.o)
                                                  /usr/local/lib64/gcc/arm-none-eabi/4.5.2/../../../../arm-none-eabi/lib/libg.a(lib_a-wbuf.o)
                                                  /usr/local/lib64/gcc/arm-none-eabi/4.5.2/../../../../arm-none-eabi/lib/libg.a(lib_a-refill.o)
                                                  /usr/local/lib64/gcc/arm-none-eabi/4.5.2/../../../../arm-none-eabi/lib/libg.a(lib_a-fvwrite.o)
                                                  /usr/local/lib64/gcc/arm-none-eabi/4.5.2/../../../../arm-none-eabi/lib/libg.a(lib_a-vfiprintf.o)
                                                  /usr/local/lib64/gcc/arm-none-eabi/4.5.2/../../../../arm-none-eabi/lib/libg.a(lib_a-ungetc.o)
                                                  /usr/local/lib64/gcc/arm-none-eabi/4.5.2/../../../../arm-none-eabi/lib/libg.a(lib_a-setvbuf.o)
_fini                                             /usr/local/lib64/gcc/arm-none-eabi/4.5.2/thumb/v7/crti.o
                                                  /usr/local/lib64/gcc/arm-none-eabi/4.5.2/../../../../arm-none-eabi/lib/libc.a(lib_a-fini.o)
_fiprintf_r                                       /usr/local/lib64/gcc/arm-none-eabi/4.5.2/../../../../arm-none-eabi/lib/libg.a(lib_a-fiprintf.o)
_fputwc_r                                         /usr/local/lib64/gcc/arm-none-eabi/4.5.2/../../../../arm-none-eabi/lib/libg.a(lib_a-fputwc.o)
                                                  /usr/local/lib64/gcc/arm-none-eabi/4.5.2/../../../../arm-none-eabi/lib/libg.a(lib_a-vfiprintf.o)
_free_r                                           /usr/local/lib64/gcc/arm-none-eabi/4.5.2/../../../../arm-none-eabi/lib/libg.a(lib_a-freer.o)
                                                  /usr/local/lib64/gcc/arm-none-eabi/4.5.2/../../../../arm-none-eabi/lib/libg.a(lib_a-fclose.o)
                                                  /usr/local/lib64/gcc/arm-none-eabi/4.5.2/../../../../arm-none-eabi/lib/libg.a(lib_a-refill.o)
                                                  /usr/local/lib64/gcc/arm-none-eabi/4.5.2/../../../../arm-none-eabi/lib/libg.a(lib_a-reallocr.o)
                                                  /usr/local/lib64/gcc/arm-none-eabi/4.5.2/../../../../arm-none-eabi/lib/libg.a(lib_a-mallocr.o)
                                                  /usr/local/lib64/gcc/arm-none-eabi/4.5.2/../../../../arm-none-eabi/lib/libg.a(lib_a-malloc.o)
                                                  /usr/local/lib64/gcc/arm-none-eabi/4.5.2/../../../../arm-none-eabi/lib/libg.a(lib_a-fvwrite.o)
                                                  /usr/local/lib64/gcc/arm-none-eabi/4.5.2/../../../../arm-none-eabi/lib/libg.a(lib_a-fflush.o)
                                                  /usr/local/lib64/gcc/arm-none-eabi/4.5.2/../../../../arm-none-eabi/lib/libg.a(lib_a-wsetup.o)
                                                  /usr/local/lib64/gcc/arm-none-eabi/4.5.2/../../../../arm-none-eabi/lib/libg.a(lib_a-svfiscanf.o)
                                                  /usr/local/lib64/gcc/arm-none-eabi/4.5.2/../../../../arm-none-eabi/lib/libg.a(lib_a-setvbuf.o)
                                                  /usr/local/lib64/gcc/arm-none-eabi/4.5.2/../../../../arm-none-eabi/lib/libg.a(lib_a-reent.o)
_fstat                                            build/obj/syscalls.o
                                                  /usr/local/lib64/gcc/arm-none-eabi/4.5.2/../../../../arm-none-eabi/lib/libg.a(lib_a-fstatr.o)
_fstat_r                                          /usr/local/lib64/gcc/arm-none-eabi/4.5.2/../../../../arm-none-eabi/lib/libg.a(lib_a-fstatr.o)
                                                  /usr/local/lib64/gcc/arm-none-eabi/4.5.2/../../../../arm-none-eabi/lib/libg.a(lib_a-makebuf.o)
_fwalk                                            /usr/local/lib64/gcc/arm-none-eabi/4.5.2/../../../../arm-none-eabi/lib/libg.a(lib_a-fwalk.o)
                                                  /usr/local/lib64/gcc/arm-none-eabi/4.5.2/../../../../arm-none-eabi/lib/libg.a(lib_a-refill.o)
                                                  /usr/local/lib64/gcc/arm-none-eabi/4.5.2/../../../../arm-none-eabi/lib/libg.a(lib_a-findfp.o)
_fwalk_reent                                      /usr/local/lib64/gcc/arm-none-eabi/4.5.2/../../../../arm-none-eabi/lib/libg.a(lib_a-fwalk.o)
                                                  /usr/local/lib64/gcc/arm-none-eabi/4.5.2/../../../../arm-none-eabi/lib/libg.a(lib_a-fflush.o)
_getpid                                           build/obj/syscalls.o
                                                  /usr/local/lib64/gcc/arm-none-eabi/4.5.2/../../../../arm-none-eabi/lib/libg.a(lib_a-signalr.o)
_getpid_r                                         /usr/local/lib64/gcc/arm-none-eabi/4.5.2/../../../../arm-none-eabi/lib/libg.a(lib_a-signalr.o)
                                                  /usr/local/lib64/gcc/arm-none-eabi/4.5.2/../../../../arm-none-eabi/lib/libg.a(lib_a-signal.o)
_gets_r                                           /usr/local/lib64/gcc/arm-none-eabi/4.5.2/../../../../arm-none-eabi/lib/libg.a(lib_a-gets.o)
_global_impure_ptr                                /usr/local/lib64/gcc/arm-none-eabi/4.5.2/../../../../arm-none-eabi/lib/libc.a(lib_a-impure.o)
                                                  /usr/local/lib64/gcc/arm-none-eabi/4.5.2/../../../../arm-none-eabi/lib/libg.a(lib_a-refill.o)
                                                  /usr/local/lib64/gcc/arm-none-eabi/4.5.2/../../../../arm-none-eabi/lib/libg.a(lib_a-findfp.o)
                                                  /usr/local/lib64/gcc/arm-none-eabi/4.5.2/../../../../arm-none-eabi/lib/libg.a(lib_a-fflush.o)
                                                  /usr/local/lib64/gcc/arm-none-eabi/4.5.2/../../../../arm-none-eabi/lib/libc.a(lib_a-__call_atexit.o)
                                                  /usr/local/lib64/gcc/arm-none-eabi/4.5.2/../../../../arm-none-eabi/lib/libc.a(lib_a-exit.o)
                                                  /usr/local/lib64/gcc/arm-none-eabi/4.5.2/../../../../arm-none-eabi/lib/libc.a(lib_a-__atexit.o)
_impure_ptr                                       /usr/local/lib64/gcc/arm-none-eabi/4.5.2/../../../../arm-none-eabi/lib/libc.a(lib_a-impure.o)
                                                  /usr/local/lib64/gcc/arm-none-eabi/4.5.2/../../../../arm-none-eabi/lib/libg.a(lib_a-fclose.o)
                                                  /usr/local/lib64/gcc/arm-none-eabi/4.5.2/../../../../arm-none-eabi/lib/libg.a(lib_a-wcrtomb.o)
                                                  /usr/local/lib64/gcc/arm-none-eabi/4.5.2/../../../../arm-none-eabi/lib/libg.a(lib_a-wbuf.o)
                                                  /usr/local/lib64/gcc/arm-none-eabi/4.5.2/../../../../arm-none-eabi/lib/libg.a(lib_a-strtoul.o)
                                                  /usr/local/lib64/gcc/arm-none-eabi/4.5.2/../../../../arm-none-eabi/lib/libg.a(lib_a-strtol.o)
                                                  /usr/local/lib64/gcc/arm-none-eabi/4.5.2/../../../../arm-none-eabi/lib/libg.a(lib_a-signal.o)
                                                  /usr/local/lib64/gcc/arm-none-eabi/4.5.2/../../../../arm-none-eabi/lib/libg.a(lib_a-mbrtowc.o)
                                                  /usr/local/lib64/gcc/arm-none-eabi/4.5.2/../../../../arm-none-eabi/lib/libg.a(lib_a-malloc.o)
                                                  /usr/local/lib64/gcc/arm-none-eabi/4.5.2/../../../../arm-none-eabi/lib/libg.a(lib_a-locale.o)
                                                  /usr/local/lib64/gcc/arm-none-eabi/4.5.2/../../../../arm-none-eabi/lib/libg.a(lib_a-fputwc.o)
                                                  /usr/local/lib64/gcc/arm-none-eabi/4.5.2/../../../../arm-none-eabi/lib/libg.a(lib_a-findfp.o)
                                                  /usr/local/lib64/gcc/arm-none-eabi/4.5.2/../../../../arm-none-eabi/lib/libg.a(lib_a-fflush.o)
                                                  /usr/local/lib64/gcc/arm-none-eabi/4.5.2/../../../../arm-none-eabi/lib/libg.a(lib_a-wsetup.o)
                                                  /usr/local/lib64/gcc/arm-none-eabi/4.5.2/../../../../arm-none-eabi/lib/libg.a(lib_a-vfiprintf.o)
                                                  /usr/local/lib64/gcc/arm-none-eabi/4.5.2/../../../../arm-none-eabi/lib/libg.a(lib_a-ungetc.o)
                                                  /usr/local/lib64/gcc/arm-none-eabi/4.5.2/../../../../arm-none-eabi/lib/libg.a(lib_a-siscanf.o)
                                                  /usr/local/lib64/gcc/arm-none-eabi/4.5.2/../../../../arm-none-eabi/lib/libg.a(lib_a-setvbuf.o)
                                                  /usr/local/lib64/gcc/arm-none-eabi/4.5.2/../../../../arm-none-eabi/lib/libg.a(lib_a-rget.o)
                                                  /usr/local/lib64/gcc/arm-none-eabi/4.5.2/../../../../arm-none-eabi/lib/libg.a(lib_a-reent.o)
                                                  /usr/local/lib64/gcc/arm-none-eabi/4.5.2/../../../../arm-none-eabi/lib/libg.a(lib_a-iprintf.o)
                                                  /usr/local/lib64/gcc/arm-none-eabi/4.5.2/../../../../arm-none-eabi/lib/libg.a(lib_a-gets.o)
                                                  /usr/local/lib64/gcc/arm-none-eabi/4.5.2/../../../../arm-none-eabi/lib/libg.a(lib_a-fiprintf.o)
                                                  /usr/local/lib64/gcc/arm-none-eabi/4.5.2/../../../../arm-none-eabi/lib/libg.a(lib_a-assert.o)
                                                  libusb/lib/libusb_sam3s_rel.a(release-USBDDriver.o)
                                                  libusb/lib/libusb_sam3s_rel.a(release-USBD.o)
                                                  libusb/lib/libusb_sam3s_rel.a(release-USBD_HAL.o)
                                                  build/obj/input.o
                                                  build/obj/main.o
                                                  build/obj/usb_console.o
_init                                             /usr/local/lib64/gcc/arm-none-eabi/4.5.2/thumb/v7/crti.o
                                                  /usr/local/lib64/gcc/arm-none-eabi/4.5.2/../../../../arm-none-eabi/lib/libc.a(lib_a-init.o)
_init_signal                                      /usr/local/lib64/gcc/arm-none-eabi/4.5.2/../../../../arm-none-eabi/lib/libg.a(lib_a-signal.o)
_init_signal_r                                    /usr/local/lib64/gcc/arm-none-eabi/4.5.2/../../../../arm-none-eabi/lib/libg.a(lib_a-signal.o)
_iprintf_r                                        /usr/local/lib64/gcc/arm-none-eabi/4.5.2/../../../../arm-none-eabi/lib/libg.a(lib_a-iprintf.o)
_isatty                                           build/obj/syscalls.o
                                                  /usr/local/lib64/gcc/arm-none-eabi/4.5.2/../../../../arm-none-eabi/lib/libg.a(lib_a-isattyr.o)
_isatty_r                                         /usr/local/lib64/gcc/arm-none-eabi/4.5.2/../../../../arm-none-eabi/lib/libg.a(lib_a-isattyr.o)
                                                  /usr/local/lib64/gcc/arm-none-eabi/4.5.2/../../../../arm-none-eabi/lib/libg.a(lib_a-makebuf.o)
_kill                                             build/obj/syscalls.o
                                                  /usr/local/lib64/gcc/arm-none-eabi/4.5.2/../../../../arm-none-eabi/lib/libg.a(lib_a-signalr.o)
_kill_r                                           /usr/local/lib64/gcc/arm-none-eabi/4.5.2/../../../../arm-none-eabi/lib/libg.a(lib_a-signalr.o)
                                                  /usr/local/lib64/gcc/arm-none-eabi/4.5.2/../../../../arm-none-eabi/lib/libg.a(lib_a-signal.o)
_link                                             build/obj/syscalls.o
_localeconv_r                                     /usr/local/lib64/gcc/arm-none-eabi/4.5.2/../../../../arm-none-eabi/lib/libg.a(lib_a-locale.o)
_lseek                                            build/obj/syscalls.o
                                                  /usr/local/lib64/gcc/arm-none-eabi/4.5.2/../../../../arm-none-eabi/lib/libg.a(lib_a-lseekr.o)
_lseek_r                                          /usr/local/lib64/gcc/arm-none-eabi/4.5.2/../../../../arm-none-eabi/lib/libg.a(lib_a-lseekr.o)
                                                  /usr/local/lib64/gcc/arm-none-eabi/4.5.2/../../../../arm-none-eabi/lib/libg.a(lib_a-stdio.o)
_mainCRTStartup                                   /usr/local/lib64/gcc/arm-none-eabi/4.5.2/../../../../arm-none-eabi/lib/crt0.o
_malloc_r                                         /usr/local/lib64/gcc/arm-none-eabi/4.5.2/../../../../arm-none-eabi/lib/libg.a(lib_a-mallocr.o)
                                                  /usr/local/lib64/gcc/arm-none-eabi/4.5.2/../../../../arm-none-eabi/lib/libg.a(lib_a-signal.o)
                                                  /usr/local/lib64/gcc/arm-none-eabi/4.5.2/../../../../arm-none-eabi/lib/libg.a(lib_a-reallocr.o)
                                                  /usr/local/lib64/gcc/arm-none-eabi/4.5.2/../../../../arm-none-eabi/lib/libg.a(lib_a-malloc.o)
                                                  /usr/local/lib64/gcc/arm-none-eabi/4.5.2/../../../../arm-none-eabi/lib/libg.a(lib_a-makebuf.o)
                                                  /usr/local/lib64/gcc/arm-none-eabi/4.5.2/../../../../arm-none-eabi/lib/libg.a(lib_a-fvwrite.o)
                                                  /usr/local/lib64/gcc/arm-none-eabi/4.5.2/../../../../arm-none-eabi/lib/libg.a(lib_a-findfp.o)
                                                  /usr/local/lib64/gcc/arm-none-eabi/4.5.2/../../../../arm-none-eabi/lib/libg.a(lib_a-ungetc.o)
_malloc_trim_r                                    /usr/local/lib64/gcc/arm-none-eabi/4.5.2/../../../../arm-none-eabi/lib/libg.a(lib_a-freer.o)
_mbrtowc_r                                        /usr/local/lib64/gcc/arm-none-eabi/4.5.2/../../../../arm-none-eabi/lib/libg.a(lib_a-mbrtowc.o)
                                                  /usr/local/lib64/gcc/arm-none-eabi/4.5.2/../../../../arm-none-eabi/lib/libg.a(lib_a-svfiscanf.o)
_mbtowc_r                                         /usr/local/lib64/gcc/arm-none-eabi/4.5.2/../../../../arm-none-eabi/lib/libg.a(lib_a-mbtowc_r.o)
_raise_r                                          /usr/local/lib64/gcc/arm-none-eabi/4.5.2/../../../../arm-none-eabi/lib/libg.a(lib_a-signal.o)
_read                                             build/obj/syscalls.o
                                                  /usr/local/lib64/gcc/arm-none-eabi/4.5.2/../../../../arm-none-eabi/lib/libg.a(lib_a-readr.o)
_read_r                                           /usr/local/lib64/gcc/arm-none-eabi/4.5.2/../../../../arm-none-eabi/lib/libg.a(lib_a-readr.o)
                                                  /usr/local/lib64/gcc/arm-none-eabi/4.5.2/../../../../arm-none-eabi/lib/libg.a(lib_a-stdio.o)
_realloc_r                                        /usr/local/lib64/gcc/arm-none-eabi/4.5.2/../../../../arm-none-eabi/lib/libg.a(lib_a-reallocr.o)
                                                  /usr/local/lib64/gcc/arm-none-eabi/4.5.2/../../../../arm-none-eabi/lib/libg.a(lib_a-fvwrite.o)
                                                  /usr/local/lib64/gcc/arm-none-eabi/4.5.2/../../../../arm-none-eabi/lib/libg.a(lib_a-ungetc.o)
_reclaim_reent                                    /usr/local/lib64/gcc/arm-none-eabi/4.5.2/../../../../arm-none-eabi/lib/libg.a(lib_a-reent.o)
_sbrk                                             build/obj/syscalls.o
                                                  /usr/local/lib64/gcc/arm-none-eabi/4.5.2/../../../../arm-none-eabi/lib/libg.a(lib_a-sbrkr.o)
_sbrk_r                                           /usr/local/lib64/gcc/arm-none-eabi/4.5.2/../../../../arm-none-eabi/lib/libg.a(lib_a-sbrkr.o)
                                                  /usr/local/lib64/gcc/arm-none-eabi/4.5.2/../../../../arm-none-eabi/lib/libg.a(lib_a-mallocr.o)
                                                  /usr/local/lib64/gcc/arm-none-eabi/4.5.2/../../../../arm-none-eabi/lib/libg.a(lib_a-freer.o)
_setlocale_r                                      /usr/local/lib64/gcc/arm-none-eabi/4.5.2/../../../../arm-none-eabi/lib/libg.a(lib_a-locale.o)
_sfixed                                           build/obj/startup.o
_sfread_r                                         /usr/local/lib64/gcc/arm-none-eabi/4.5.2/../../../../arm-none-eabi/lib/libg.a(lib_a-svfiscanf.o)
_signal_r                                         /usr/local/lib64/gcc/arm-none-eabi/4.5.2/../../../../arm-none-eabi/lib/libg.a(lib_a-signal.o)
_siscanf_r                                        /usr/local/lib64/gcc/arm-none-eabi/4.5.2/../../../../arm-none-eabi/lib/libg.a(lib_a-siscanf.o)
_srelocate                                        build/obj/startup.o
_start                                            /usr/local/lib64/gcc/arm-none-eabi/4.5.2/../../../../arm-none-eabi/lib/crt0.o
_state                                            build/obj/main.o
_strtol_r                                         /usr/local/lib64/gcc/arm-none-eabi/4.5.2/../../../../arm-none-eabi/lib/libg.a(lib_a-strtol.o)
                                                  /usr/local/lib64/gcc/arm-none-eabi/4.5.2/../../../../arm-none-eabi/lib/libg.a(lib_a-svfiscanf.o)
_strtoul_r                                        /usr/local/lib64/gcc/arm-none-eabi/4.5.2/../../../../arm-none-eabi/lib/libg.a(lib_a-strtoul.o)
                                                  /usr/local/lib64/gcc/arm-none-eabi/4.5.2/../../../../arm-none-eabi/lib/libg.a(lib_a-svfiscanf.o)
_sungetc_r                                        /usr/local/lib64/gcc/arm-none-eabi/4.5.2/../../../../arm-none-eabi/lib/libg.a(lib_a-svfiscanf.o)
_szero                                            build/obj/startup.o
_ungetc_r                                         /usr/local/lib64/gcc/arm-none-eabi/4.5.2/../../../../arm-none-eabi/lib/libg.a(lib_a-ungetc.o)
_vfiprintf_r                                      /usr/local/lib64/gcc/arm-none-eabi/4.5.2/../../../../arm-none-eabi/lib/libg.a(lib_a-vfiprintf.o)
                                                  /usr/local/lib64/gcc/arm-none-eabi/4.5.2/../../../../arm-none-eabi/lib/libg.a(lib_a-iprintf.o)
                                                  /usr/local/lib64/gcc/arm-none-eabi/4.5.2/../../../../arm-none-eabi/lib/libg.a(lib_a-fiprintf.o)
_wcrtomb_r                                        /usr/local/lib64/gcc/arm-none-eabi/4.5.2/../../../../arm-none-eabi/lib/libg.a(lib_a-wcrtomb.o)
                                                  /usr/local/lib64/gcc/arm-none-eabi/4.5.2/../../../../arm-none-eabi/lib/libg.a(lib_a-fputwc.o)
_wctomb_r                                         /usr/local/lib64/gcc/arm-none-eabi/4.5.2/../../../../arm-none-eabi/lib/libg.a(lib_a-wctomb_r.o)
_wrapup_reent                                     /usr/local/lib64/gcc/arm-none-eabi/4.5.2/../../../../arm-none-eabi/lib/libg.a(lib_a-reent.o)
_write                                            build/obj/syscalls.o
                                                  /usr/local/lib64/gcc/arm-none-eabi/4.5.2/../../../../arm-none-eabi/lib/libg.a(lib_a-writer.o)
_write_r                                          /usr/local/lib64/gcc/arm-none-eabi/4.5.2/../../../../arm-none-eabi/lib/libg.a(lib_a-writer.o)
                                                  /usr/local/lib64/gcc/arm-none-eabi/4.5.2/../../../../arm-none-eabi/lib/libg.a(lib_a-stdio.o)
abort                                             /usr/local/lib64/gcc/arm-none-eabi/4.5.2/../../../../arm-none-eabi/lib/libg.a(lib_a-abort.o)
                                                  /usr/local/lib64/gcc/arm-none-eabi/4.5.2/../../../../arm-none-eabi/lib/libg.a(lib_a-assert.o)
atexit                                            /usr/local/lib64/gcc/arm-none-eabi/4.5.2/../../../../arm-none-eabi/lib/libc.a(lib_a-atexit.o)
                                                  /usr/local/lib64/gcc/arm-none-eabi/4.5.2/../../../../arm-none-eabi/lib/crt0.o
blinkhandler                                      build/obj/led.o
                                                  build/obj/timetick.o
cdcdSerialDriverDescriptors                       build/obj/usb_device_descriptor.o
                                                  build/obj/usb_console.o
cleanup_glue                                      /usr/local/lib64/gcc/arm-none-eabi/4.5.2/../../../../arm-none-eabi/lib/libg.a(lib_a-reent.o)
configurationDescriptorsFS                        build/obj/usb_device_descriptor.o
current                                           build/obj/input.o
                                                  build/obj/main.o
deviceDescriptor                                  build/obj/usb_device_descriptor.o
do_hold                                           build/obj/main.o
do_press                                          build/obj/main.o
do_vent                                           build/obj/main.o
enter                                             build/obj/main.o
errno                                             /usr/local/lib64/gcc/arm-none-eabi/4.5.2/../../../../arm-none-eabi/lib/libg.a(lib_a-isattyr.o)
                                                  /usr/local/lib64/gcc/arm-none-eabi/4.5.2/../../../../arm-none-eabi/lib/libg.a(lib_a-fstatr.o)
                                                  /usr/local/lib64/gcc/arm-none-eabi/4.5.2/../../../../arm-none-eabi/lib/libg.a(lib_a-signalr.o)
                                                  /usr/local/lib64/gcc/arm-none-eabi/4.5.2/../../../../arm-none-eabi/lib/libg.a(lib_a-sbrkr.o)
                                                  /usr/local/lib64/gcc/arm-none-eabi/4.5.2/../../../../arm-none-eabi/lib/libg.a(lib_a-readr.o)
                                                  /usr/local/lib64/gcc/arm-none-eabi/4.5.2/../../../../arm-none-eabi/lib/libg.a(lib_a-lseekr.o)
                                                  /usr/local/lib64/gcc/arm-none-eabi/4.5.2/../../../../arm-none-eabi/lib/libg.a(lib_a-closer.o)
                                                  /usr/local/lib64/gcc/arm-none-eabi/4.5.2/../../../../arm-none-eabi/lib/libg.a(lib_a-writer.o)
                                                  /usr/local/lib64/gcc/arm-none-eabi/4.5.2/../../../../arm-none-eabi/lib/libg.a(lib_a-reent.o)
                                                  build/obj/syscalls.o
exception_table                                   build/obj/startup.o
exit                                              /usr/local/lib64/gcc/arm-none-eabi/4.5.2/../../../../arm-none-eabi/lib/libc.a(lib_a-exit.o)
                                                  /usr/local/lib64/gcc/arm-none-eabi/4.5.2/../../../../arm-none-eabi/lib/crt0.o
fclose                                            /usr/local/lib64/gcc/arm-none-eabi/4.5.2/../../../../arm-none-eabi/lib/libg.a(lib_a-fclose.o)
                                                  /usr/local/lib64/gcc/arm-none-eabi/4.5.2/../../../../arm-none-eabi/lib/libg.a(lib_a-findfp.o)
fflush                                            /usr/local/lib64/gcc/arm-none-eabi/4.5.2/../../../../arm-none-eabi/lib/libg.a(lib_a-fflush.o)
                                                  /usr/local/lib64/gcc/arm-none-eabi/4.5.2/../../../../arm-none-eabi/lib/libg.a(lib_a-refill.o)
fiprintf                                          /usr/local/lib64/gcc/arm-none-eabi/4.5.2/../../../../arm-none-eabi/lib/libg.a(lib_a-fiprintf.o)
                                                  /usr/local/lib64/gcc/arm-none-eabi/4.5.2/../../../../arm-none-eabi/lib/libg.a(lib_a-assert.o)
                                                  libusb/lib/libusb_sam3s_rel.a(release-USBDDriver.o)
                                                  libusb/lib/libusb_sam3s_rel.a(release-USBD.o)
                                                  libusb/lib/libusb_sam3s_rel.a(release-USBD_HAL.o)
                                                  build/obj/input.o
                                                  build/obj/main.o
                                                  build/obj/usb_console.o
fputwc                                            /usr/local/lib64/gcc/arm-none-eabi/4.5.2/../../../../arm-none-eabi/lib/libg.a(lib_a-fputwc.o)
free                                              /usr/local/lib64/gcc/arm-none-eabi/4.5.2/../../../../arm-none-eabi/lib/libg.a(lib_a-malloc.o)
                                                  /usr/local/lib64/gcc/arm-none-eabi/4.5.2/../../../../arm-none-eabi/lib/libc.a(lib_a-__call_atexit.o)
gets                                              /usr/local/lib64/gcc/arm-none-eabi/4.5.2/../../../../arm-none-eabi/lib/libg.a(lib_a-gets.o)
                                                  build/obj/main.o
hardware_init_hook                                /usr/local/lib64/gcc/arm-none-eabi/4.5.2/../../../../arm-none-eabi/lib/crt0.o
input_init                                        build/obj/input.o
                                                  build/obj/main.o
iprintf                                           /usr/local/lib64/gcc/arm-none-eabi/4.5.2/../../../../arm-none-eabi/lib/libg.a(lib_a-iprintf.o)
                                                  libchip/lib/libchip_sam3s4_rel.a(release-adc.o)
                                                  build/obj/main.o
                                                  build/obj/syscalls.o
iswspace                                          /usr/local/lib64/gcc/arm-none-eabi/4.5.2/../../../../arm-none-eabi/lib/libg.a(lib_a-iswspace.o)
                                                  /usr/local/lib64/gcc/arm-none-eabi/4.5.2/../../../../arm-none-eabi/lib/libg.a(lib_a-svfiscanf.o)
languageIdStringDescriptor                        build/obj/usb_device_descriptor.o
localeconv                                        /usr/local/lib64/gcc/arm-none-eabi/4.5.2/../../../../arm-none-eabi/lib/libg.a(lib_a-locale.o)
main                                              build/obj/main.o
                                                  build/obj/startup.o
                                                  /usr/local/lib64/gcc/arm-none-eabi/4.5.2/../../../../arm-none-eabi/lib/crt0.o
malloc                                            /usr/local/lib64/gcc/arm-none-eabi/4.5.2/../../../../arm-none-eabi/lib/libg.a(lib_a-malloc.o)
                                                  /usr/local/lib64/gcc/arm-none-eabi/4.5.2/../../../../arm-none-eabi/lib/libg.a(lib_a-setvbuf.o)
                                                  /usr/local/lib64/gcc/arm-none-eabi/4.5.2/../../../../arm-none-eabi/lib/libc.a(lib_a-__atexit.o)
mbrtowc                                           /usr/local/lib64/gcc/arm-none-eabi/4.5.2/../../../../arm-none-eabi/lib/libg.a(lib_a-mbrtowc.o)
memchr                                            /usr/local/lib64/gcc/arm-none-eabi/4.5.2/../../../../arm-none-eabi/lib/libg.a(lib_a-memchr.o)
                                                  /usr/local/lib64/gcc/arm-none-eabi/4.5.2/../../../../arm-none-eabi/lib/libg.a(lib_a-fvwrite.o)
                                                  /usr/local/lib64/gcc/arm-none-eabi/4.5.2/../../../../arm-none-eabi/lib/libg.a(lib_a-vfiprintf.o)
memcpy                                            /usr/local/lib64/gcc/arm-none-eabi/4.5.2/../../../../arm-none-eabi/lib/libg.a(lib_a-memcpy.o)
                                                  /usr/local/lib64/gcc/arm-none-eabi/4.5.2/../../../../arm-none-eabi/lib/libg.a(lib_a-fvwrite.o)
                                                  /usr/local/lib64/gcc/arm-none-eabi/4.5.2/../../../../arm-none-eabi/lib/libg.a(lib_a-ungetc.o)
                                                  /usr/local/lib64/gcc/arm-none-eabi/4.5.2/../../../../arm-none-eabi/lib/libg.a(lib_a-svfiscanf.o)
                                                  build/obj/input.o
                                                  build/obj/usb_console.o
memmove                                           /usr/local/lib64/gcc/arm-none-eabi/4.5.2/../../../../arm-none-eabi/lib/libg.a(lib_a-memmove.o)
                                                  /usr/local/lib64/gcc/arm-none-eabi/4.5.2/../../../../arm-none-eabi/lib/libg.a(lib_a-reallocr.o)
                                                  /usr/local/lib64/gcc/arm-none-eabi/4.5.2/../../../../arm-none-eabi/lib/libg.a(lib_a-fvwrite.o)
                                                  build/obj/usb_console.o
memset                                            /usr/local/lib64/gcc/arm-none-eabi/4.5.2/../../../../arm-none-eabi/lib/libc.a(lib_a-memset.o)
                                                  /usr/local/lib64/gcc/arm-none-eabi/4.5.2/../../../../arm-none-eabi/lib/libg.a(lib_a-findfp.o)
                                                  /usr/local/lib64/gcc/arm-none-eabi/4.5.2/../../../../arm-none-eabi/lib/libg.a(lib_a-svfiscanf.o)
                                                  /usr/local/lib64/gcc/arm-none-eabi/4.5.2/../../../../arm-none-eabi/lib/crt0.o
pdwStack                                          build/obj/startup.o
previous                                          build/obj/input.o
                                                  build/obj/main.o
productStringDescriptor                           build/obj/usb_device_descriptor.o
raise                                             /usr/local/lib64/gcc/arm-none-eabi/4.5.2/../../../../arm-none-eabi/lib/libg.a(lib_a-signal.o)
                                                  /usr/local/lib64/gcc/arm-none-eabi/4.5.2/../../../../arm-none-eabi/lib/libg.a(lib_a-abort.o)
setbuf                                            /usr/local/lib64/gcc/arm-none-eabi/4.5.2/../../../../arm-none-eabi/lib/libg.a(lib_a-setbuf.o)
                                                  build/obj/main.o
setlocale                                         /usr/local/lib64/gcc/arm-none-eabi/4.5.2/../../../../arm-none-eabi/lib/libg.a(lib_a-locale.o)
setvbuf                                           /usr/local/lib64/gcc/arm-none-eabi/4.5.2/../../../../arm-none-eabi/lib/libg.a(lib_a-setvbuf.o)
                                                  /usr/local/lib64/gcc/arm-none-eabi/4.5.2/../../../../arm-none-eabi/lib/libg.a(lib_a-setbuf.o)
signal                                            /usr/local/lib64/gcc/arm-none-eabi/4.5.2/../../../../arm-none-eabi/lib/libg.a(lib_a-signal.o)
siscanf                                           /usr/local/lib64/gcc/arm-none-eabi/4.5.2/../../../../arm-none-eabi/lib/libg.a(lib_a-siscanf.o)
                                                  build/obj/main.o
software_init_hook                                /usr/local/lib64/gcc/arm-none-eabi/4.5.2/../../../../arm-none-eabi/lib/crt0.o
start                                             /usr/local/lib64/gcc/arm-none-eabi/4.5.2/../../../../arm-none-eabi/lib/crt0.o
strcmp                                            /usr/local/lib64/gcc/arm-none-eabi/4.5.2/../../../../arm-none-eabi/lib/libg.a(lib_a-strcmp.o)
                                                  /usr/local/lib64/gcc/arm-none-eabi/4.5.2/../../../../arm-none-eabi/lib/libg.a(lib_a-locale.o)
stringDescriptors                                 build/obj/usb_device_descriptor.o
strlen                                            /usr/local/lib64/gcc/arm-none-eabi/4.5.2/../../../../arm-none-eabi/lib/libg.a(lib_a-strlen.o)
                                                  /usr/local/lib64/gcc/arm-none-eabi/4.5.2/../../../../arm-none-eabi/lib/libg.a(lib_a-vfiprintf.o)
                                                  /usr/local/lib64/gcc/arm-none-eabi/4.5.2/../../../../arm-none-eabi/lib/libg.a(lib_a-siscanf.o)
strtol                                            /usr/local/lib64/gcc/arm-none-eabi/4.5.2/../../../../arm-none-eabi/lib/libg.a(lib_a-strtol.o)
strtoul                                           /usr/local/lib64/gcc/arm-none-eabi/4.5.2/../../../../arm-none-eabi/lib/libg.a(lib_a-strtoul.o)
ungetc                                            /usr/local/lib64/gcc/arm-none-eabi/4.5.2/../../../../arm-none-eabi/lib/libg.a(lib_a-ungetc.o)
vfiprintf                                         /usr/local/lib64/gcc/arm-none-eabi/4.5.2/../../../../arm-none-eabi/lib/libg.a(lib_a-vfiprintf.o)
wcrtomb                                           /usr/local/lib64/gcc/arm-none-eabi/4.5.2/../../../../arm-none-eabi/lib/libg.a(lib_a-wcrtomb.o)
